MODULE Linux arm 736A6A3822493BC50A0CCA57285A5F4A0 TestSmallPointerArray
INFO CODE_ID 386A6A734922C53B0A0CCA57285A5F4A9CF0F079
INFO GENERATOR mozilla/dump_syms 2.3.6
PUBLIC 94c 0 _start
PUBLIC 95c 0 _start_main
PUBLIC 9c8 0 __atexit_handler_wrapper
PUBLIC 9e0 0 atexit
PUBLIC a0c 0 pthread_atfork
PUBLIC a28 0 call_fini_array
FUNC a6c 15c 0 TestArrayManipulation()
FUNC bc8 3c 0 MOZ_ReportAssertionFailure(char const*, char const*, int)
FUNC c04 130 0 TestRangeBasedLoops()
FUNC d34 28c 0 TestMove()
FUNC fc0 14 0 main
PUBLIC m fd4 0 __aeabi_memmove4
PUBLIC fd9 0 __ThumbV7PILongThunk__ZdlPv
PUBLIC ff0 0 <.plt ELF section in TestSmallPointerArray>
STACK CFI INIT a6c 15c .cfa: sp 0 + .ra: lr
STACK CFI a6e .cfa: sp 16 + .ra: .cfa -4 + ^ r7: .cfa -8 + ^ r6: .cfa -12 + ^ r4: .cfa -16 + ^
STACK CFI a70 .cfa: r7 8 +
STACK CFI INIT bc8 3c .cfa: sp 0 + .ra: lr
STACK CFI bca .cfa: sp 20 + .ra: .cfa -4 + ^ r7: .cfa -8 + ^ r6: .cfa -12 + ^ r5: .cfa -16 + ^ r4: .cfa -20 + ^
STACK CFI bcc .cfa: r7 8 +
STACK CFI bd0 r11: .cfa -24 + ^
STACK CFI INIT c04 130 .cfa: sp 0 + .ra: lr
STACK CFI c06 .cfa: sp 20 + .ra: .cfa -4 + ^ r7: .cfa -8 + ^ r6: .cfa -12 + ^ r5: .cfa -16 + ^ r4: .cfa -20 + ^
STACK CFI c08 .cfa: r7 8 +
STACK CFI c0c r11: .cfa -24 + ^
STACK CFI INIT d34 28c .cfa: sp 0 + .ra: lr
STACK CFI d36 .cfa: sp 20 + .ra: .cfa -4 + ^ r7: .cfa -8 + ^ r6: .cfa -12 + ^ r5: .cfa -16 + ^ r4: .cfa -20 + ^
STACK CFI d38 .cfa: r7 8 +
STACK CFI d3c r11: .cfa -24 + ^ r10: .cfa -28 + ^ r9: .cfa -32 + ^ r8: .cfa -36 + ^
STACK CFI INIT fc0 14 .cfa: sp 0 + .ra: lr
STACK CFI fc2 .cfa: sp 8 + .ra: .cfa -4 + ^ r7: .cfa -8 + ^
STACK CFI fc4 .cfa: r7 8 +
