MODULE Linux arm 64F539C4950F3017ED7AAF47B5016BDB0 TestBloomFilter
INFO CODE_ID C439F5640F951730ED7AAF47B5016BDB6C252FBE
INFO GENERATOR mozilla/dump_syms 2.3.6
PUBLIC 690 0 _start
PUBLIC 6a0 0 _start_main
PUBLIC 70c 0 __atexit_handler_wrapper
PUBLIC 724 0 atexit
PUBLIC 750 0 pthread_atfork
PUBLIC 76c 0 call_fini_array
FUNC 7b0 6 0 testBitBloomFilter()
FUNC 7b8 38 0 MOZ_ReportAssertionFailure(char const*, char const*, int)
FUNC 7f0 d4 0 testCountingBloomFilter()
FUNC 8c4 c 0 main
PUBLIC 8d0 0 <.plt ELF section in TestBloomFilter>
STACK CFI INIT 7b0 6 .cfa: sp 0 + .ra: lr
STACK CFI 7b2 .cfa: sp 8 + .ra: .cfa -4 + ^ r7: .cfa -8 + ^
STACK CFI 7b4 .cfa: r7 8 +
STACK CFI INIT 7b8 38 .cfa: sp 0 + .ra: lr
STACK CFI 7ba .cfa: sp 16 + .ra: .cfa -4 + ^ r7: .cfa -8 + ^ r5: .cfa -12 + ^ r4: .cfa -16 + ^
STACK CFI 7bc .cfa: r7 8 +
STACK CFI INIT 7f0 d4 .cfa: sp 0 + .ra: lr
STACK CFI 7f2 .cfa: sp 16 + .ra: .cfa -4 + ^ r7: .cfa -8 + ^ r6: .cfa -12 + ^ r4: .cfa -16 + ^
STACK CFI 7f4 .cfa: r7 8 +
STACK CFI INIT 8c4 c .cfa: sp 0 + .ra: lr
STACK CFI 8c6 .cfa: sp 8 + .ra: .cfa -4 + ^ r7: .cfa -8 + ^
STACK CFI 8c8 .cfa: r7 8 +
