MODULE Linux arm 48AB55A15653E9354E0B2BA0F6EE4F580 TestSHA1
INFO CODE_ID A155AB48535635E94E0B2BA0F6EE4F58712899AF
INFO GENERATOR mozilla/dump_syms 2.3.6
PUBLIC 750 0 _start
PUBLIC 760 0 _start_main
PUBLIC 7cc 0 __atexit_handler_wrapper
PUBLIC 7e4 0 atexit
PUBLIC 810 0 pthread_atfork
PUBLIC 82c 0 call_fini_array
FUNC 870 18c 0 main
FUNC 9fc 40 0 MOZ_ReportAssertionFailure(char const*, char const*, int)
PUBLIC m a3c 0 __aeabi_memset8
PUBLIC m a4c 0 __aeabi_memclr
PUBLIC a60 0 <.plt ELF section in TestSHA1>
STACK CFI INIT 870 18c .cfa: sp 0 + .ra: lr
STACK CFI 872 .cfa: sp 20 + .ra: .cfa -4 + ^ r7: .cfa -8 + ^ r6: .cfa -12 + ^ r5: .cfa -16 + ^ r4: .cfa -20 + ^
STACK CFI 874 .cfa: r7 8 +
STACK CFI 878 r8: .cfa -24 + ^
STACK CFI INIT 9fc 40 .cfa: sp 0 + .ra: lr
STACK CFI 9fe .cfa: sp 16 + .ra: .cfa -4 + ^ r7: .cfa -8 + ^ r6: .cfa -12 + ^ r4: .cfa -16 + ^
STACK CFI a00 .cfa: r7 8 +
