MODULE Linux arm B398487E2414C27DE0DFEFB4A367A8830 TestEndian
INFO CODE_ID 7E4898B314247DC2E0DFEFB4A367A883F8B219F7
INFO GENERATOR mozilla/dump_syms 2.3.6
PUBLIC ed4 0 _start
PUBLIC ee4 0 _start_main
PUBLIC f50 0 __atexit_handler_wrapper
PUBLIC f68 0 atexit
PUBLIC f94 0 pthread_atfork
PUBLIC fb0 0 call_fini_array
FUNC ff4 5d4 0 main
FUNC 15c8 3c 0 MOZ_ReportAssertionFailure(char const*, char const*, int)
FUNC 1604 8fc 0 TestBulkSwap<unsigned short, (unsigned int)8>(unsigned short const (&) [(unsigned int)8])
FUNC 1f00 8fc 0 TestBulkSwap<short, (unsigned int)8>(short const (&) [(unsigned int)8])
FUNC 27fc 8ec 0 TestBulkSwap<unsigned int, (unsigned int)4>(unsigned int const (&) [(unsigned int)4])
FUNC 30e8 8ec 0 TestBulkSwap<int, (unsigned int)4>(int const (&) [(unsigned int)4])
FUNC 39d4 518 0 TestBulkSwap<unsigned long long, (unsigned int)2>(unsigned long long const (&) [(unsigned int)2])
FUNC 3eec 518 0 TestBulkSwap<long long, (unsigned int)2>(long long const (&) [(unsigned int)2])
FUNC 4404 318 0 TestBulkNoSwap<unsigned short, (unsigned int)8>(unsigned short const (&) [(unsigned int)8])
FUNC 471c 318 0 TestBulkNoSwap<short, (unsigned int)8>(short const (&) [(unsigned int)8])
FUNC 4a34 168 0 TestBulkNoSwap<unsigned long long, (unsigned int)2>(unsigned long long const (&) [(unsigned int)2])
FUNC 4b9c 168 0 TestBulkNoSwap<long long, (unsigned int)2>(long long const (&) [(unsigned int)2])
FUNC 4d04 12 0 Reader<unsigned short>::readBE(void const*)
FUNC 4d18 210 0 TestBulkSwapFromSub<unsigned short, (unsigned int)8>(SwapExpectation, unsigned short const (&) [(unsigned int)8], void (*)(unsigned short*, void const*, unsigned int), unsigned short (*)(void const*))
FUNC 4f28 7c 0 mozilla::detail::EndianUtils::copyAndSwapTo<(mozilla::detail::Endianness)0, (mozilla::detail::Endianness)1, unsigned short>(void*, unsigned short const*, unsigned int)
FUNC 4fa4 80 0 mozilla::detail::EndianUtils::copyAndSwapFrom<(mozilla::detail::Endianness)1, (mozilla::detail::Endianness)0, unsigned short>(unsigned short*, void const*, unsigned int)
FUNC 5024 10 0 Reader<short>::readBE(void const*)
FUNC 5034 21c 0 TestBulkSwapFromSub<short, (unsigned int)8>(SwapExpectation, short const (&) [(unsigned int)8], void (*)(short*, void const*, unsigned int), short (*)(void const*))
FUNC 5250 1d8 0 TestBulkSwapToSub<unsigned int, (unsigned int)4>(SwapExpectation, unsigned int const (&) [(unsigned int)4], void (*)(void*, unsigned int const*, unsigned int), unsigned int (*)(void const*))
FUNC 5428 1c 0 Reader<unsigned int>::readBE(void const*)
FUNC 5444 218 0 TestBulkSwapFromSub<unsigned int, (unsigned int)4>(SwapExpectation, unsigned int const (&) [(unsigned int)4], void (*)(unsigned int*, void const*, unsigned int), unsigned int (*)(void const*))
FUNC 565c 8c 0 mozilla::detail::EndianUtils::copyAndSwapTo<(mozilla::detail::Endianness)0, (mozilla::detail::Endianness)1, unsigned int>(void*, unsigned int const*, unsigned int)
FUNC 56e8 8c 0 mozilla::detail::EndianUtils::copyAndSwapFrom<(mozilla::detail::Endianness)1, (mozilla::detail::Endianness)0, unsigned int>(unsigned int*, void const*, unsigned int)
FUNC 5774 1d8 0 TestBulkSwapToSub<int, (unsigned int)4>(SwapExpectation, int const (&) [(unsigned int)4], void (*)(void*, int const*, unsigned int), int (*)(void const*))
FUNC 594c 1c 0 Reader<int>::readBE(void const*)
FUNC 5968 218 0 TestBulkSwapFromSub<int, (unsigned int)4>(SwapExpectation, int const (&) [(unsigned int)4], void (*)(int*, void const*, unsigned int), int (*)(void const*))
FUNC 5b80 154 0 TestBulkSwapToSub<unsigned long long, (unsigned int)2>(SwapExpectation, unsigned long long const (&) [(unsigned int)2], void (*)(void*, unsigned long long const*, unsigned int), unsigned long long (*)(void const*))
FUNC 5cd4 3a 0 Reader<unsigned long long>::readBE(void const*)
FUNC 5d10 a8 0 mozilla::detail::EndianUtils::copyAndSwapTo<(mozilla::detail::Endianness)0, (mozilla::detail::Endianness)1, unsigned long long>(void*, unsigned long long const*, unsigned int)
FUNC 5db8 154 0 TestBulkSwapToSub<long long, (unsigned int)2>(SwapExpectation, long long const (&) [(unsigned int)2], void (*)(void*, long long const*, unsigned int), long long (*)(void const*))
FUNC 5f0c 3a 0 Reader<long long>::readBE(void const*)
FUNC 5f46 e 0 Reader<unsigned short>::readLE(void const*)
FUNC 5f54 c 0 copyAndSwapFromLittleEndian<unsigned short>(unsigned short*, void const*, unsigned int)
FUNC 5f60 6c 0 mozilla::detail::EndianUtils::copyAndSwapTo<(mozilla::detail::Endianness)0, (mozilla::detail::Endianness)0, unsigned short>(void*, unsigned short const*, unsigned int)
FUNC 5fcc 6c 0 mozilla::detail::EndianUtils::copyAndSwapFrom<(mozilla::detail::Endianness)0, (mozilla::detail::Endianness)0, unsigned short>(unsigned short*, void const*, unsigned int)
FUNC 6038 10 0 Reader<short>::readLE(void const*)
FUNC 6048 c 0 copyAndSwapFromLittleEndian<short>(short*, void const*, unsigned int)
FUNC 6054 c 0 copyAndSwapToLittleEndian<unsigned int>(void*, unsigned int const*, unsigned int)
FUNC 6060 1a 0 Reader<unsigned int>::readLE(void const*)
FUNC 607a c 0 copyAndSwapFromLittleEndian<unsigned int>(unsigned int*, void const*, unsigned int)
FUNC 6088 6c 0 mozilla::detail::EndianUtils::copyAndSwapTo<(mozilla::detail::Endianness)0, (mozilla::detail::Endianness)0, unsigned int>(void*, unsigned int const*, unsigned int)
FUNC 60f4 6c 0 mozilla::detail::EndianUtils::copyAndSwapFrom<(mozilla::detail::Endianness)0, (mozilla::detail::Endianness)0, unsigned int>(unsigned int*, void const*, unsigned int)
FUNC 6160 c 0 copyAndSwapToLittleEndian<int>(void*, int const*, unsigned int)
FUNC 616c 1a 0 Reader<int>::readLE(void const*)
FUNC 6186 c 0 copyAndSwapFromLittleEndian<int>(int*, void const*, unsigned int)
FUNC 6192 c 0 copyAndSwapToLittleEndian<unsigned long long>(void*, unsigned long long const*, unsigned int)
FUNC 619e 3e 0 Reader<unsigned long long>::readLE(void const*)
FUNC 61dc 6c 0 mozilla::detail::EndianUtils::copyAndSwapTo<(mozilla::detail::Endianness)0, (mozilla::detail::Endianness)0, unsigned long long>(void*, unsigned long long const*, unsigned int)
FUNC 6248 c 0 copyAndSwapToLittleEndian<long long>(void*, long long const*, unsigned int)
FUNC 6254 3e 0 Reader<long long>::readLE(void const*)
FUNC 6294 208 0 TestBulkInPlaceSub<unsigned short, (unsigned int)8>(SwapExpectation, unsigned short const (&) [(unsigned int)8], void (*)(unsigned short*, unsigned int), unsigned short (*)(void const*))
FUNC 649c 3c 0 swapToBigEndianInPlace<unsigned short>(unsigned short*, unsigned int)
FUNC 64d8 3c 0 swapFromBigEndianInPlace<unsigned short>(unsigned short*, unsigned int)
FUNC 6514 3c 0 swapToNetworkOrderInPlace<unsigned short>(unsigned short*, unsigned int)
FUNC 6550 3c 0 swapFromNetworkOrderInPlace<unsigned short>(unsigned short*, unsigned int)
FUNC 658c 218 0 TestBulkInPlaceSub<short, (unsigned int)8>(SwapExpectation, short const (&) [(unsigned int)8], void (*)(short*, unsigned int), short (*)(void const*))
FUNC 67a4 3c 0 swapToBigEndianInPlace<short>(short*, unsigned int)
FUNC 67e0 3c 0 swapFromBigEndianInPlace<short>(short*, unsigned int)
FUNC 681c 3c 0 swapToNetworkOrderInPlace<short>(short*, unsigned int)
FUNC 6858 3c 0 swapFromNetworkOrderInPlace<short>(short*, unsigned int)
FUNC 6894 1d8 0 TestBulkInPlaceSub<unsigned int, (unsigned int)4>(SwapExpectation, unsigned int const (&) [(unsigned int)4], void (*)(unsigned int*, unsigned int), unsigned int (*)(void const*))
FUNC 6a6c 38 0 swapToBigEndianInPlace<unsigned int>(unsigned int*, unsigned int)
FUNC 6aa4 38 0 swapFromBigEndianInPlace<unsigned int>(unsigned int*, unsigned int)
FUNC 6adc 38 0 swapToNetworkOrderInPlace<unsigned int>(unsigned int*, unsigned int)
FUNC 6b14 38 0 swapFromNetworkOrderInPlace<unsigned int>(unsigned int*, unsigned int)
FUNC 6b4c 1d8 0 TestBulkInPlaceSub<int, (unsigned int)4>(SwapExpectation, int const (&) [(unsigned int)4], void (*)(int*, unsigned int), int (*)(void const*))
FUNC 6d24 38 0 swapToBigEndianInPlace<int>(int*, unsigned int)
FUNC 6d5c 38 0 swapFromBigEndianInPlace<int>(int*, unsigned int)
FUNC 6d94 38 0 swapToNetworkOrderInPlace<int>(int*, unsigned int)
FUNC 6dcc 38 0 swapFromNetworkOrderInPlace<int>(int*, unsigned int)
FUNC 6e04 1c8 0 TestBulkInPlaceSub<unsigned long long, (unsigned int)2>(SwapExpectation, unsigned long long const (&) [(unsigned int)2], void (*)(unsigned long long*, unsigned int), unsigned long long (*)(void const*))
FUNC 6fcc 3c 0 swapToBigEndianInPlace<unsigned long long>(unsigned long long*, unsigned int)
FUNC 7008 3c 0 swapFromBigEndianInPlace<unsigned long long>(unsigned long long*, unsigned int)
FUNC 7044 3c 0 swapToNetworkOrderInPlace<unsigned long long>(unsigned long long*, unsigned int)
FUNC 7080 3c 0 swapFromNetworkOrderInPlace<unsigned long long>(unsigned long long*, unsigned int)
FUNC 70bc 1c8 0 TestBulkInPlaceSub<long long, (unsigned int)2>(SwapExpectation, long long const (&) [(unsigned int)2], void (*)(long long*, unsigned int), long long (*)(void const*))
FUNC 7284 3c 0 swapToBigEndianInPlace<long long>(long long*, unsigned int)
FUNC 72c0 3c 0 swapFromBigEndianInPlace<long long>(long long*, unsigned int)
FUNC 72fc 3c 0 swapToNetworkOrderInPlace<long long>(long long*, unsigned int)
FUNC 7338 3c 0 swapFromNetworkOrderInPlace<long long>(long long*, unsigned int)
FUNC 7374 2c 0 swapToLittleEndianInPlace<unsigned short>(unsigned short*, unsigned int)
FUNC 73a0 2c 0 swapFromLittleEndianInPlace<unsigned short>(unsigned short*, unsigned int)
FUNC 73cc 2c 0 swapToLittleEndianInPlace<short>(short*, unsigned int)
FUNC 73f8 2c 0 swapFromLittleEndianInPlace<short>(short*, unsigned int)
FUNC 7424 2c 0 swapToLittleEndianInPlace<unsigned int>(unsigned int*, unsigned int)
FUNC 7450 2c 0 swapFromLittleEndianInPlace<unsigned int>(unsigned int*, unsigned int)
FUNC 747c 2c 0 swapToLittleEndianInPlace<int>(int*, unsigned int)
FUNC 74a8 2c 0 swapFromLittleEndianInPlace<int>(int*, unsigned int)
FUNC 74d4 2c 0 swapToLittleEndianInPlace<unsigned long long>(unsigned long long*, unsigned int)
FUNC 7500 2c 0 swapFromLittleEndianInPlace<unsigned long long>(unsigned long long*, unsigned int)
FUNC 752c 2c 0 swapToLittleEndianInPlace<long long>(long long*, unsigned int)
FUNC 7558 2c 0 swapFromLittleEndianInPlace<long long>(long long*, unsigned int)
PUBLIC m 7584 0 __aeabi_memcpy
PUBLIC m 7588 0 __aeabi_memset
PUBLIC m 7598 0 __aeabi_memclr
PUBLIC 75a5 0 __ThumbV7PILongThunk___aeabi_memcpy
PUBLIC 75b0 0 <.plt ELF section in TestEndian>
STACK CFI INIT ff4 5d4 .cfa: sp 0 + .ra: lr
STACK CFI ff6 .cfa: sp 20 + .ra: .cfa -4 + ^ r7: .cfa -8 + ^ r6: .cfa -12 + ^ r5: .cfa -16 + ^ r4: .cfa -20 + ^
STACK CFI ff8 .cfa: r7 8 +
STACK CFI ffc r11: .cfa -24 + ^ r10: .cfa -28 + ^ r9: .cfa -32 + ^ r8: .cfa -36 + ^
STACK CFI INIT 15c8 3c .cfa: sp 0 + .ra: lr
STACK CFI 15ca .cfa: sp 20 + .ra: .cfa -4 + ^ r7: .cfa -8 + ^ r6: .cfa -12 + ^ r5: .cfa -16 + ^ r4: .cfa -20 + ^
STACK CFI 15cc .cfa: r7 8 +
STACK CFI 15d0 r11: .cfa -24 + ^
STACK CFI INIT 1604 8fc .cfa: sp 0 + .ra: lr
STACK CFI 1606 .cfa: sp 20 + .ra: .cfa -4 + ^ r7: .cfa -8 + ^ r6: .cfa -12 + ^ r5: .cfa -16 + ^ r4: .cfa -20 + ^
STACK CFI 1608 .cfa: r7 8 +
STACK CFI 160c r11: .cfa -24 + ^ r10: .cfa -28 + ^ r9: .cfa -32 + ^ r8: .cfa -36 + ^
STACK CFI INIT 1f00 8fc .cfa: sp 0 + .ra: lr
STACK CFI 1f02 .cfa: sp 20 + .ra: .cfa -4 + ^ r7: .cfa -8 + ^ r6: .cfa -12 + ^ r5: .cfa -16 + ^ r4: .cfa -20 + ^
STACK CFI 1f04 .cfa: r7 8 +
STACK CFI 1f08 r11: .cfa -24 + ^ r10: .cfa -28 + ^ r9: .cfa -32 + ^ r8: .cfa -36 + ^
STACK CFI INIT 27fc 8ec .cfa: sp 0 + .ra: lr
STACK CFI 27fe .cfa: sp 20 + .ra: .cfa -4 + ^ r7: .cfa -8 + ^ r6: .cfa -12 + ^ r5: .cfa -16 + ^ r4: .cfa -20 + ^
STACK CFI 2800 .cfa: r7 8 +
STACK CFI 2804 r11: .cfa -24 + ^ r10: .cfa -28 + ^ r9: .cfa -32 + ^ r8: .cfa -36 + ^
STACK CFI INIT 30e8 8ec .cfa: sp 0 + .ra: lr
STACK CFI 30ea .cfa: sp 20 + .ra: .cfa -4 + ^ r7: .cfa -8 + ^ r6: .cfa -12 + ^ r5: .cfa -16 + ^ r4: .cfa -20 + ^
STACK CFI 30ec .cfa: r7 8 +
STACK CFI 30f0 r11: .cfa -24 + ^ r10: .cfa -28 + ^ r9: .cfa -32 + ^ r8: .cfa -36 + ^
STACK CFI INIT 39d4 518 .cfa: sp 0 + .ra: lr
STACK CFI 39d6 .cfa: sp 20 + .ra: .cfa -4 + ^ r7: .cfa -8 + ^ r6: .cfa -12 + ^ r5: .cfa -16 + ^ r4: .cfa -20 + ^
STACK CFI 39d8 .cfa: r7 8 +
STACK CFI 39dc r11: .cfa -24 + ^ r10: .cfa -28 + ^ r9: .cfa -32 + ^ r8: .cfa -36 + ^
STACK CFI INIT 3eec 518 .cfa: sp 0 + .ra: lr
STACK CFI 3eee .cfa: sp 20 + .ra: .cfa -4 + ^ r7: .cfa -8 + ^ r6: .cfa -12 + ^ r5: .cfa -16 + ^ r4: .cfa -20 + ^
STACK CFI 3ef0 .cfa: r7 8 +
STACK CFI 3ef4 r11: .cfa -24 + ^ r10: .cfa -28 + ^ r9: .cfa -32 + ^ r8: .cfa -36 + ^
STACK CFI INIT 4404 318 .cfa: sp 0 + .ra: lr
STACK CFI 4406 .cfa: sp 20 + .ra: .cfa -4 + ^ r7: .cfa -8 + ^ r6: .cfa -12 + ^ r5: .cfa -16 + ^ r4: .cfa -20 + ^
STACK CFI 4408 .cfa: r7 8 +
STACK CFI 440c r11: .cfa -24 + ^ r10: .cfa -28 + ^ r9: .cfa -32 + ^ r8: .cfa -36 + ^
STACK CFI INIT 471c 318 .cfa: sp 0 + .ra: lr
STACK CFI 471e .cfa: sp 20 + .ra: .cfa -4 + ^ r7: .cfa -8 + ^ r6: .cfa -12 + ^ r5: .cfa -16 + ^ r4: .cfa -20 + ^
STACK CFI 4720 .cfa: r7 8 +
STACK CFI 4724 r11: .cfa -24 + ^ r10: .cfa -28 + ^ r9: .cfa -32 + ^ r8: .cfa -36 + ^
STACK CFI INIT 4a34 168 .cfa: sp 0 + .ra: lr
STACK CFI 4a36 .cfa: sp 20 + .ra: .cfa -4 + ^ r7: .cfa -8 + ^ r6: .cfa -12 + ^ r5: .cfa -16 + ^ r4: .cfa -20 + ^
STACK CFI 4a38 .cfa: r7 8 +
STACK CFI 4a3c r11: .cfa -24 + ^
STACK CFI INIT 4b9c 168 .cfa: sp 0 + .ra: lr
STACK CFI 4b9e .cfa: sp 20 + .ra: .cfa -4 + ^ r7: .cfa -8 + ^ r6: .cfa -12 + ^ r5: .cfa -16 + ^ r4: .cfa -20 + ^
STACK CFI 4ba0 .cfa: r7 8 +
STACK CFI 4ba4 r11: .cfa -24 + ^
STACK CFI INIT 4d04 12 .cfa: sp 0 + .ra: lr
STACK CFI 4d06 .cfa: sp 8 + .ra: .cfa -4 + ^ r7: .cfa -8 + ^
STACK CFI 4d08 .cfa: r7 8 +
STACK CFI INIT 4d18 210 .cfa: sp 0 + .ra: lr
STACK CFI 4d1a .cfa: sp 20 + .ra: .cfa -4 + ^ r7: .cfa -8 + ^ r6: .cfa -12 + ^ r5: .cfa -16 + ^ r4: .cfa -20 + ^
STACK CFI 4d1c .cfa: r7 8 +
STACK CFI 4d20 r11: .cfa -24 + ^ r10: .cfa -28 + ^ r9: .cfa -32 + ^ r8: .cfa -36 + ^
STACK CFI INIT 4f28 7c .cfa: sp 0 + .ra: lr
STACK CFI 4f2a .cfa: sp 16 + .ra: .cfa -4 + ^ r7: .cfa -8 + ^ r6: .cfa -12 + ^ r4: .cfa -16 + ^
STACK CFI 4f2c .cfa: r7 8 +
STACK CFI INIT 4fa4 80 .cfa: sp 0 + .ra: lr
STACK CFI 4fa6 .cfa: sp 16 + .ra: .cfa -4 + ^ r7: .cfa -8 + ^ r6: .cfa -12 + ^ r4: .cfa -16 + ^
STACK CFI 4fa8 .cfa: r7 8 +
STACK CFI INIT 5024 10 .cfa: sp 0 + .ra: lr
STACK CFI 5026 .cfa: sp 8 + .ra: .cfa -4 + ^ r7: .cfa -8 + ^
STACK CFI 5028 .cfa: r7 8 +
STACK CFI INIT 5034 21c .cfa: sp 0 + .ra: lr
STACK CFI 5036 .cfa: sp 20 + .ra: .cfa -4 + ^ r7: .cfa -8 + ^ r6: .cfa -12 + ^ r5: .cfa -16 + ^ r4: .cfa -20 + ^
STACK CFI 5038 .cfa: r7 8 +
STACK CFI 503c r11: .cfa -24 + ^ r10: .cfa -28 + ^ r9: .cfa -32 + ^ r8: .cfa -36 + ^
STACK CFI INIT 0 7c .cfa: sp 0 + .ra: lr
STACK CFI 2 .cfa: sp 16 + .ra: .cfa -4 + ^ r7: .cfa -8 + ^ r6: .cfa -12 + ^ r4: .cfa -16 + ^
STACK CFI 4 .cfa: r7 8 +
STACK CFI INIT 0 80 .cfa: sp 0 + .ra: lr
STACK CFI 2 .cfa: sp 16 + .ra: .cfa -4 + ^ r7: .cfa -8 + ^ r6: .cfa -12 + ^ r4: .cfa -16 + ^
STACK CFI 4 .cfa: r7 8 +
STACK CFI INIT 5250 1d8 .cfa: sp 0 + .ra: lr
STACK CFI 5252 .cfa: sp 20 + .ra: .cfa -4 + ^ r7: .cfa -8 + ^ r6: .cfa -12 + ^ r5: .cfa -16 + ^ r4: .cfa -20 + ^
STACK CFI 5254 .cfa: r7 8 +
STACK CFI 5258 r11: .cfa -24 + ^ r10: .cfa -28 + ^ r9: .cfa -32 + ^ r8: .cfa -36 + ^
STACK CFI INIT 5428 1c .cfa: sp 0 + .ra: lr
STACK CFI 542a .cfa: sp 8 + .ra: .cfa -4 + ^ r7: .cfa -8 + ^
STACK CFI 542c .cfa: r7 8 +
STACK CFI INIT 5444 218 .cfa: sp 0 + .ra: lr
STACK CFI 5446 .cfa: sp 20 + .ra: .cfa -4 + ^ r7: .cfa -8 + ^ r6: .cfa -12 + ^ r5: .cfa -16 + ^ r4: .cfa -20 + ^
STACK CFI 5448 .cfa: r7 8 +
STACK CFI 544c r11: .cfa -24 + ^ r10: .cfa -28 + ^ r9: .cfa -32 + ^ r8: .cfa -36 + ^
STACK CFI INIT 565c 8c .cfa: sp 0 + .ra: lr
STACK CFI 565e .cfa: sp 16 + .ra: .cfa -4 + ^ r7: .cfa -8 + ^ r6: .cfa -12 + ^ r4: .cfa -16 + ^
STACK CFI 5660 .cfa: r7 8 +
STACK CFI INIT 56e8 8c .cfa: sp 0 + .ra: lr
STACK CFI 56ea .cfa: sp 16 + .ra: .cfa -4 + ^ r7: .cfa -8 + ^ r6: .cfa -12 + ^ r4: .cfa -16 + ^
STACK CFI 56ec .cfa: r7 8 +
STACK CFI INIT 5774 1d8 .cfa: sp 0 + .ra: lr
STACK CFI 5776 .cfa: sp 20 + .ra: .cfa -4 + ^ r7: .cfa -8 + ^ r6: .cfa -12 + ^ r5: .cfa -16 + ^ r4: .cfa -20 + ^
STACK CFI 5778 .cfa: r7 8 +
STACK CFI 577c r11: .cfa -24 + ^ r10: .cfa -28 + ^ r9: .cfa -32 + ^ r8: .cfa -36 + ^
STACK CFI INIT 594c 1c .cfa: sp 0 + .ra: lr
STACK CFI 594e .cfa: sp 8 + .ra: .cfa -4 + ^ r7: .cfa -8 + ^
STACK CFI 5950 .cfa: r7 8 +
STACK CFI INIT 5968 218 .cfa: sp 0 + .ra: lr
STACK CFI 596a .cfa: sp 20 + .ra: .cfa -4 + ^ r7: .cfa -8 + ^ r6: .cfa -12 + ^ r5: .cfa -16 + ^ r4: .cfa -20 + ^
STACK CFI 596c .cfa: r7 8 +
STACK CFI 5970 r11: .cfa -24 + ^ r10: .cfa -28 + ^ r9: .cfa -32 + ^ r8: .cfa -36 + ^
STACK CFI INIT 0 8c .cfa: sp 0 + .ra: lr
STACK CFI 2 .cfa: sp 16 + .ra: .cfa -4 + ^ r7: .cfa -8 + ^ r6: .cfa -12 + ^ r4: .cfa -16 + ^
STACK CFI 4 .cfa: r7 8 +
STACK CFI INIT 0 8c .cfa: sp 0 + .ra: lr
STACK CFI 2 .cfa: sp 16 + .ra: .cfa -4 + ^ r7: .cfa -8 + ^ r6: .cfa -12 + ^ r4: .cfa -16 + ^
STACK CFI 4 .cfa: r7 8 +
STACK CFI INIT 5b80 154 .cfa: sp 0 + .ra: lr
STACK CFI 5b82 .cfa: sp 20 + .ra: .cfa -4 + ^ r7: .cfa -8 + ^ r6: .cfa -12 + ^ r5: .cfa -16 + ^ r4: .cfa -20 + ^
STACK CFI 5b84 .cfa: r7 8 +
STACK CFI 5b88 r11: .cfa -24 + ^ r10: .cfa -28 + ^ r9: .cfa -32 + ^ r8: .cfa -36 + ^
STACK CFI INIT 5cd4 3a .cfa: sp 0 + .ra: lr
STACK CFI 5cd6 .cfa: sp 16 + .ra: .cfa -4 + ^ r7: .cfa -8 + ^ r5: .cfa -12 + ^ r4: .cfa -16 + ^
STACK CFI 5cd8 .cfa: r7 8 +
STACK CFI INIT 5d10 a8 .cfa: sp 0 + .ra: lr
STACK CFI 5d12 .cfa: sp 16 + .ra: .cfa -4 + ^ r7: .cfa -8 + ^ r6: .cfa -12 + ^ r4: .cfa -16 + ^
STACK CFI 5d14 .cfa: r7 8 +
STACK CFI INIT 5db8 154 .cfa: sp 0 + .ra: lr
STACK CFI 5dba .cfa: sp 20 + .ra: .cfa -4 + ^ r7: .cfa -8 + ^ r6: .cfa -12 + ^ r5: .cfa -16 + ^ r4: .cfa -20 + ^
STACK CFI 5dbc .cfa: r7 8 +
STACK CFI 5dc0 r11: .cfa -24 + ^ r10: .cfa -28 + ^ r9: .cfa -32 + ^ r8: .cfa -36 + ^
STACK CFI INIT 5f0c 3a .cfa: sp 0 + .ra: lr
STACK CFI 5f0e .cfa: sp 16 + .ra: .cfa -4 + ^ r7: .cfa -8 + ^ r5: .cfa -12 + ^ r4: .cfa -16 + ^
STACK CFI 5f10 .cfa: r7 8 +
STACK CFI INIT 0 a8 .cfa: sp 0 + .ra: lr
STACK CFI 2 .cfa: sp 16 + .ra: .cfa -4 + ^ r7: .cfa -8 + ^ r6: .cfa -12 + ^ r4: .cfa -16 + ^
STACK CFI 4 .cfa: r7 8 +
STACK CFI INIT 5f46 e .cfa: sp 0 + .ra: lr
STACK CFI 5f48 .cfa: sp 8 + .ra: .cfa -4 + ^ r7: .cfa -8 + ^
STACK CFI 5f4a .cfa: r7 8 +
STACK CFI INIT 5f54 c .cfa: sp 0 + .ra: lr
STACK CFI 5f56 .cfa: sp 8 + .ra: .cfa -4 + ^ r7: .cfa -8 + ^
STACK CFI 5f58 .cfa: r7 8 +
STACK CFI INIT 5f60 6c .cfa: sp 0 + .ra: lr
STACK CFI 5f62 .cfa: sp 16 + .ra: .cfa -4 + ^ r7: .cfa -8 + ^ r6: .cfa -12 + ^ r4: .cfa -16 + ^
STACK CFI 5f64 .cfa: r7 8 +
STACK CFI INIT 5fcc 6c .cfa: sp 0 + .ra: lr
STACK CFI 5fce .cfa: sp 16 + .ra: .cfa -4 + ^ r7: .cfa -8 + ^ r6: .cfa -12 + ^ r4: .cfa -16 + ^
STACK CFI 5fd0 .cfa: r7 8 +
STACK CFI INIT 6038 10 .cfa: sp 0 + .ra: lr
STACK CFI 603a .cfa: sp 8 + .ra: .cfa -4 + ^ r7: .cfa -8 + ^
STACK CFI 603c .cfa: r7 8 +
STACK CFI INIT 6048 c .cfa: sp 0 + .ra: lr
STACK CFI 604a .cfa: sp 8 + .ra: .cfa -4 + ^ r7: .cfa -8 + ^
STACK CFI 604c .cfa: r7 8 +
STACK CFI INIT 0 6c .cfa: sp 0 + .ra: lr
STACK CFI 2 .cfa: sp 16 + .ra: .cfa -4 + ^ r7: .cfa -8 + ^ r6: .cfa -12 + ^ r4: .cfa -16 + ^
STACK CFI 4 .cfa: r7 8 +
STACK CFI INIT 0 6c .cfa: sp 0 + .ra: lr
STACK CFI 2 .cfa: sp 16 + .ra: .cfa -4 + ^ r7: .cfa -8 + ^ r6: .cfa -12 + ^ r4: .cfa -16 + ^
STACK CFI 4 .cfa: r7 8 +
STACK CFI INIT 6054 c .cfa: sp 0 + .ra: lr
STACK CFI 6056 .cfa: sp 8 + .ra: .cfa -4 + ^ r7: .cfa -8 + ^
STACK CFI 6058 .cfa: r7 8 +
STACK CFI INIT 6060 1a .cfa: sp 0 + .ra: lr
STACK CFI 6062 .cfa: sp 8 + .ra: .cfa -4 + ^ r7: .cfa -8 + ^
STACK CFI 6064 .cfa: r7 8 +
STACK CFI INIT 607a c .cfa: sp 0 + .ra: lr
STACK CFI 607c .cfa: sp 8 + .ra: .cfa -4 + ^ r7: .cfa -8 + ^
STACK CFI 607e .cfa: r7 8 +
STACK CFI INIT 6088 6c .cfa: sp 0 + .ra: lr
STACK CFI 608a .cfa: sp 16 + .ra: .cfa -4 + ^ r7: .cfa -8 + ^ r6: .cfa -12 + ^ r4: .cfa -16 + ^
STACK CFI 608c .cfa: r7 8 +
STACK CFI INIT 60f4 6c .cfa: sp 0 + .ra: lr
STACK CFI 60f6 .cfa: sp 16 + .ra: .cfa -4 + ^ r7: .cfa -8 + ^ r6: .cfa -12 + ^ r4: .cfa -16 + ^
STACK CFI 60f8 .cfa: r7 8 +
STACK CFI INIT 6160 c .cfa: sp 0 + .ra: lr
STACK CFI 6162 .cfa: sp 8 + .ra: .cfa -4 + ^ r7: .cfa -8 + ^
STACK CFI 6164 .cfa: r7 8 +
STACK CFI INIT 616c 1a .cfa: sp 0 + .ra: lr
STACK CFI 616e .cfa: sp 8 + .ra: .cfa -4 + ^ r7: .cfa -8 + ^
STACK CFI 6170 .cfa: r7 8 +
STACK CFI INIT 6186 c .cfa: sp 0 + .ra: lr
STACK CFI 6188 .cfa: sp 8 + .ra: .cfa -4 + ^ r7: .cfa -8 + ^
STACK CFI 618a .cfa: r7 8 +
STACK CFI INIT 0 6c .cfa: sp 0 + .ra: lr
STACK CFI 2 .cfa: sp 16 + .ra: .cfa -4 + ^ r7: .cfa -8 + ^ r6: .cfa -12 + ^ r4: .cfa -16 + ^
STACK CFI 4 .cfa: r7 8 +
STACK CFI INIT 0 6c .cfa: sp 0 + .ra: lr
STACK CFI 2 .cfa: sp 16 + .ra: .cfa -4 + ^ r7: .cfa -8 + ^ r6: .cfa -12 + ^ r4: .cfa -16 + ^
STACK CFI 4 .cfa: r7 8 +
STACK CFI INIT 6192 c .cfa: sp 0 + .ra: lr
STACK CFI 6194 .cfa: sp 8 + .ra: .cfa -4 + ^ r7: .cfa -8 + ^
STACK CFI 6196 .cfa: r7 8 +
STACK CFI INIT 619e 3e .cfa: sp 0 + .ra: lr
STACK CFI 61a0 .cfa: sp 20 + .ra: .cfa -4 + ^ r7: .cfa -8 + ^ r6: .cfa -12 + ^ r5: .cfa -16 + ^ r4: .cfa -20 + ^
STACK CFI 61a2 .cfa: r7 8 +
STACK CFI 61a6 r11: .cfa -24 + ^
STACK CFI INIT 61dc 6c .cfa: sp 0 + .ra: lr
STACK CFI 61de .cfa: sp 16 + .ra: .cfa -4 + ^ r7: .cfa -8 + ^ r6: .cfa -12 + ^ r4: .cfa -16 + ^
STACK CFI 61e0 .cfa: r7 8 +
STACK CFI INIT 6248 c .cfa: sp 0 + .ra: lr
STACK CFI 624a .cfa: sp 8 + .ra: .cfa -4 + ^ r7: .cfa -8 + ^
STACK CFI 624c .cfa: r7 8 +
STACK CFI INIT 6254 3e .cfa: sp 0 + .ra: lr
STACK CFI 6256 .cfa: sp 20 + .ra: .cfa -4 + ^ r7: .cfa -8 + ^ r6: .cfa -12 + ^ r5: .cfa -16 + ^ r4: .cfa -20 + ^
STACK CFI 6258 .cfa: r7 8 +
STACK CFI 625c r11: .cfa -24 + ^
STACK CFI INIT 0 6c .cfa: sp 0 + .ra: lr
STACK CFI 2 .cfa: sp 16 + .ra: .cfa -4 + ^ r7: .cfa -8 + ^ r6: .cfa -12 + ^ r4: .cfa -16 + ^
STACK CFI 4 .cfa: r7 8 +
STACK CFI INIT 6294 208 .cfa: sp 0 + .ra: lr
STACK CFI 6296 .cfa: sp 20 + .ra: .cfa -4 + ^ r7: .cfa -8 + ^ r6: .cfa -12 + ^ r5: .cfa -16 + ^ r4: .cfa -20 + ^
STACK CFI 6298 .cfa: r7 8 +
STACK CFI 629c r11: .cfa -24 + ^ r10: .cfa -28 + ^ r9: .cfa -32 + ^ r8: .cfa -36 + ^
STACK CFI INIT 649c 3c .cfa: sp 0 + .ra: lr
STACK CFI 649e .cfa: sp 16 + .ra: .cfa -4 + ^ r7: .cfa -8 + ^ r6: .cfa -12 + ^ r4: .cfa -16 + ^
STACK CFI 64a0 .cfa: r7 8 +
STACK CFI INIT 64d8 3c .cfa: sp 0 + .ra: lr
STACK CFI 64da .cfa: sp 16 + .ra: .cfa -4 + ^ r7: .cfa -8 + ^ r6: .cfa -12 + ^ r4: .cfa -16 + ^
STACK CFI 64dc .cfa: r7 8 +
STACK CFI INIT 6514 3c .cfa: sp 0 + .ra: lr
STACK CFI 6516 .cfa: sp 16 + .ra: .cfa -4 + ^ r7: .cfa -8 + ^ r6: .cfa -12 + ^ r4: .cfa -16 + ^
STACK CFI 6518 .cfa: r7 8 +
STACK CFI INIT 6550 3c .cfa: sp 0 + .ra: lr
STACK CFI 6552 .cfa: sp 16 + .ra: .cfa -4 + ^ r7: .cfa -8 + ^ r6: .cfa -12 + ^ r4: .cfa -16 + ^
STACK CFI 6554 .cfa: r7 8 +
STACK CFI INIT 658c 218 .cfa: sp 0 + .ra: lr
STACK CFI 658e .cfa: sp 20 + .ra: .cfa -4 + ^ r7: .cfa -8 + ^ r6: .cfa -12 + ^ r5: .cfa -16 + ^ r4: .cfa -20 + ^
STACK CFI 6590 .cfa: r7 8 +
STACK CFI 6594 r11: .cfa -24 + ^ r10: .cfa -28 + ^ r9: .cfa -32 + ^ r8: .cfa -36 + ^
STACK CFI INIT 67a4 3c .cfa: sp 0 + .ra: lr
STACK CFI 67a6 .cfa: sp 16 + .ra: .cfa -4 + ^ r7: .cfa -8 + ^ r6: .cfa -12 + ^ r4: .cfa -16 + ^
STACK CFI 67a8 .cfa: r7 8 +
STACK CFI INIT 67e0 3c .cfa: sp 0 + .ra: lr
STACK CFI 67e2 .cfa: sp 16 + .ra: .cfa -4 + ^ r7: .cfa -8 + ^ r6: .cfa -12 + ^ r4: .cfa -16 + ^
STACK CFI 67e4 .cfa: r7 8 +
STACK CFI INIT 681c 3c .cfa: sp 0 + .ra: lr
STACK CFI 681e .cfa: sp 16 + .ra: .cfa -4 + ^ r7: .cfa -8 + ^ r6: .cfa -12 + ^ r4: .cfa -16 + ^
STACK CFI 6820 .cfa: r7 8 +
STACK CFI INIT 6858 3c .cfa: sp 0 + .ra: lr
STACK CFI 685a .cfa: sp 16 + .ra: .cfa -4 + ^ r7: .cfa -8 + ^ r6: .cfa -12 + ^ r4: .cfa -16 + ^
STACK CFI 685c .cfa: r7 8 +
STACK CFI INIT 6894 1d8 .cfa: sp 0 + .ra: lr
STACK CFI 6896 .cfa: sp 20 + .ra: .cfa -4 + ^ r7: .cfa -8 + ^ r6: .cfa -12 + ^ r5: .cfa -16 + ^ r4: .cfa -20 + ^
STACK CFI 6898 .cfa: r7 8 +
STACK CFI 689c r11: .cfa -24 + ^ r10: .cfa -28 + ^ r9: .cfa -32 + ^ r8: .cfa -36 + ^
STACK CFI INIT 6a6c 38 .cfa: sp 0 + .ra: lr
STACK CFI 6a6e .cfa: sp 16 + .ra: .cfa -4 + ^ r7: .cfa -8 + ^ r6: .cfa -12 + ^ r4: .cfa -16 + ^
STACK CFI 6a70 .cfa: r7 8 +
STACK CFI INIT 6aa4 38 .cfa: sp 0 + .ra: lr
STACK CFI 6aa6 .cfa: sp 16 + .ra: .cfa -4 + ^ r7: .cfa -8 + ^ r6: .cfa -12 + ^ r4: .cfa -16 + ^
STACK CFI 6aa8 .cfa: r7 8 +
STACK CFI INIT 6adc 38 .cfa: sp 0 + .ra: lr
STACK CFI 6ade .cfa: sp 16 + .ra: .cfa -4 + ^ r7: .cfa -8 + ^ r6: .cfa -12 + ^ r4: .cfa -16 + ^
STACK CFI 6ae0 .cfa: r7 8 +
STACK CFI INIT 6b14 38 .cfa: sp 0 + .ra: lr
STACK CFI 6b16 .cfa: sp 16 + .ra: .cfa -4 + ^ r7: .cfa -8 + ^ r6: .cfa -12 + ^ r4: .cfa -16 + ^
STACK CFI 6b18 .cfa: r7 8 +
STACK CFI INIT 6b4c 1d8 .cfa: sp 0 + .ra: lr
STACK CFI 6b4e .cfa: sp 20 + .ra: .cfa -4 + ^ r7: .cfa -8 + ^ r6: .cfa -12 + ^ r5: .cfa -16 + ^ r4: .cfa -20 + ^
STACK CFI 6b50 .cfa: r7 8 +
STACK CFI 6b54 r11: .cfa -24 + ^ r10: .cfa -28 + ^ r9: .cfa -32 + ^ r8: .cfa -36 + ^
STACK CFI INIT 6d24 38 .cfa: sp 0 + .ra: lr
STACK CFI 6d26 .cfa: sp 16 + .ra: .cfa -4 + ^ r7: .cfa -8 + ^ r6: .cfa -12 + ^ r4: .cfa -16 + ^
STACK CFI 6d28 .cfa: r7 8 +
STACK CFI INIT 6d5c 38 .cfa: sp 0 + .ra: lr
STACK CFI 6d5e .cfa: sp 16 + .ra: .cfa -4 + ^ r7: .cfa -8 + ^ r6: .cfa -12 + ^ r4: .cfa -16 + ^
STACK CFI 6d60 .cfa: r7 8 +
STACK CFI INIT 6d94 38 .cfa: sp 0 + .ra: lr
STACK CFI 6d96 .cfa: sp 16 + .ra: .cfa -4 + ^ r7: .cfa -8 + ^ r6: .cfa -12 + ^ r4: .cfa -16 + ^
STACK CFI 6d98 .cfa: r7 8 +
STACK CFI INIT 6dcc 38 .cfa: sp 0 + .ra: lr
STACK CFI 6dce .cfa: sp 16 + .ra: .cfa -4 + ^ r7: .cfa -8 + ^ r6: .cfa -12 + ^ r4: .cfa -16 + ^
STACK CFI 6dd0 .cfa: r7 8 +
STACK CFI INIT 6e04 1c8 .cfa: sp 0 + .ra: lr
STACK CFI 6e06 .cfa: sp 20 + .ra: .cfa -4 + ^ r7: .cfa -8 + ^ r6: .cfa -12 + ^ r5: .cfa -16 + ^ r4: .cfa -20 + ^
STACK CFI 6e08 .cfa: r7 8 +
STACK CFI 6e0c r11: .cfa -24 + ^ r10: .cfa -28 + ^ r9: .cfa -32 + ^ r8: .cfa -36 + ^
STACK CFI INIT 6fcc 3c .cfa: sp 0 + .ra: lr
STACK CFI 6fce .cfa: sp 16 + .ra: .cfa -4 + ^ r7: .cfa -8 + ^ r6: .cfa -12 + ^ r4: .cfa -16 + ^
STACK CFI 6fd0 .cfa: r7 8 +
STACK CFI INIT 7008 3c .cfa: sp 0 + .ra: lr
STACK CFI 700a .cfa: sp 16 + .ra: .cfa -4 + ^ r7: .cfa -8 + ^ r6: .cfa -12 + ^ r4: .cfa -16 + ^
STACK CFI 700c .cfa: r7 8 +
STACK CFI INIT 7044 3c .cfa: sp 0 + .ra: lr
STACK CFI 7046 .cfa: sp 16 + .ra: .cfa -4 + ^ r7: .cfa -8 + ^ r6: .cfa -12 + ^ r4: .cfa -16 + ^
STACK CFI 7048 .cfa: r7 8 +
STACK CFI INIT 7080 3c .cfa: sp 0 + .ra: lr
STACK CFI 7082 .cfa: sp 16 + .ra: .cfa -4 + ^ r7: .cfa -8 + ^ r6: .cfa -12 + ^ r4: .cfa -16 + ^
STACK CFI 7084 .cfa: r7 8 +
STACK CFI INIT 70bc 1c8 .cfa: sp 0 + .ra: lr
STACK CFI 70be .cfa: sp 20 + .ra: .cfa -4 + ^ r7: .cfa -8 + ^ r6: .cfa -12 + ^ r5: .cfa -16 + ^ r4: .cfa -20 + ^
STACK CFI 70c0 .cfa: r7 8 +
STACK CFI 70c4 r11: .cfa -24 + ^ r10: .cfa -28 + ^ r9: .cfa -32 + ^ r8: .cfa -36 + ^
STACK CFI INIT 7284 3c .cfa: sp 0 + .ra: lr
STACK CFI 7286 .cfa: sp 16 + .ra: .cfa -4 + ^ r7: .cfa -8 + ^ r6: .cfa -12 + ^ r4: .cfa -16 + ^
STACK CFI 7288 .cfa: r7 8 +
STACK CFI INIT 72c0 3c .cfa: sp 0 + .ra: lr
STACK CFI 72c2 .cfa: sp 16 + .ra: .cfa -4 + ^ r7: .cfa -8 + ^ r6: .cfa -12 + ^ r4: .cfa -16 + ^
STACK CFI 72c4 .cfa: r7 8 +
STACK CFI INIT 72fc 3c .cfa: sp 0 + .ra: lr
STACK CFI 72fe .cfa: sp 16 + .ra: .cfa -4 + ^ r7: .cfa -8 + ^ r6: .cfa -12 + ^ r4: .cfa -16 + ^
STACK CFI 7300 .cfa: r7 8 +
STACK CFI INIT 7338 3c .cfa: sp 0 + .ra: lr
STACK CFI 733a .cfa: sp 16 + .ra: .cfa -4 + ^ r7: .cfa -8 + ^ r6: .cfa -12 + ^ r4: .cfa -16 + ^
STACK CFI 733c .cfa: r7 8 +
STACK CFI INIT 7374 2c .cfa: sp 0 + .ra: lr
STACK CFI 737c .cfa: sp 16 + .ra: .cfa -4 + ^ r7: .cfa -8 + ^ r6: .cfa -12 + ^ r4: .cfa -16 + ^
STACK CFI 737e .cfa: r7 8 +
STACK CFI INIT 73a0 2c .cfa: sp 0 + .ra: lr
STACK CFI 73a8 .cfa: sp 16 + .ra: .cfa -4 + ^ r7: .cfa -8 + ^ r6: .cfa -12 + ^ r4: .cfa -16 + ^
STACK CFI 73aa .cfa: r7 8 +
STACK CFI INIT 73cc 2c .cfa: sp 0 + .ra: lr
STACK CFI 73d4 .cfa: sp 16 + .ra: .cfa -4 + ^ r7: .cfa -8 + ^ r6: .cfa -12 + ^ r4: .cfa -16 + ^
STACK CFI 73d6 .cfa: r7 8 +
STACK CFI INIT 73f8 2c .cfa: sp 0 + .ra: lr
STACK CFI 7400 .cfa: sp 16 + .ra: .cfa -4 + ^ r7: .cfa -8 + ^ r6: .cfa -12 + ^ r4: .cfa -16 + ^
STACK CFI 7402 .cfa: r7 8 +
STACK CFI INIT 7424 2c .cfa: sp 0 + .ra: lr
STACK CFI 742c .cfa: sp 16 + .ra: .cfa -4 + ^ r7: .cfa -8 + ^ r6: .cfa -12 + ^ r4: .cfa -16 + ^
STACK CFI 742e .cfa: r7 8 +
STACK CFI INIT 7450 2c .cfa: sp 0 + .ra: lr
STACK CFI 7458 .cfa: sp 16 + .ra: .cfa -4 + ^ r7: .cfa -8 + ^ r6: .cfa -12 + ^ r4: .cfa -16 + ^
STACK CFI 745a .cfa: r7 8 +
STACK CFI INIT 747c 2c .cfa: sp 0 + .ra: lr
STACK CFI 7484 .cfa: sp 16 + .ra: .cfa -4 + ^ r7: .cfa -8 + ^ r6: .cfa -12 + ^ r4: .cfa -16 + ^
STACK CFI 7486 .cfa: r7 8 +
STACK CFI INIT 74a8 2c .cfa: sp 0 + .ra: lr
STACK CFI 74b0 .cfa: sp 16 + .ra: .cfa -4 + ^ r7: .cfa -8 + ^ r6: .cfa -12 + ^ r4: .cfa -16 + ^
STACK CFI 74b2 .cfa: r7 8 +
STACK CFI INIT 74d4 2c .cfa: sp 0 + .ra: lr
STACK CFI 74dc .cfa: sp 16 + .ra: .cfa -4 + ^ r7: .cfa -8 + ^ r6: .cfa -12 + ^ r4: .cfa -16 + ^
STACK CFI 74de .cfa: r7 8 +
STACK CFI INIT 7500 2c .cfa: sp 0 + .ra: lr
STACK CFI 7508 .cfa: sp 16 + .ra: .cfa -4 + ^ r7: .cfa -8 + ^ r6: .cfa -12 + ^ r4: .cfa -16 + ^
STACK CFI 750a .cfa: r7 8 +
STACK CFI INIT 752c 2c .cfa: sp 0 + .ra: lr
STACK CFI 7534 .cfa: sp 16 + .ra: .cfa -4 + ^ r7: .cfa -8 + ^ r6: .cfa -12 + ^ r4: .cfa -16 + ^
STACK CFI 7536 .cfa: r7 8 +
STACK CFI INIT 7558 2c .cfa: sp 0 + .ra: lr
STACK CFI 7560 .cfa: sp 16 + .ra: .cfa -4 + ^ r7: .cfa -8 + ^ r6: .cfa -12 + ^ r4: .cfa -16 + ^
STACK CFI 7562 .cfa: r7 8 +
