MODULE Linux arm 8B550211498B0764094B54A5BCBACD3F0 TestRange
INFO CODE_ID 1102558B8B496407094B54A5BCBACD3FA534330D
INFO GENERATOR mozilla/dump_syms 2.3.6
PUBLIC 594 0 _start
PUBLIC 5a4 0 _start_main
PUBLIC 610 0 __atexit_handler_wrapper
PUBLIC 628 0 atexit
PUBLIC 654 0 pthread_atfork
PUBLIC 670 0 call_fini_array
FUNC 6b4 6 0 test_RangeToBoolConversionShouldCompile()
FUNC 6bc 58 0 test_RangeT_To_RangeConstT_ShouldCompile()
FUNC 714 8 0 main
FUNC 71c 38 0 MOZ_ReportAssertionFailure(char const*, char const*, int)
FUNC 754 60 0 mozilla::RangedPtr<int const>::RangedPtr(int const*, int const*, int const*)
PUBLIC 7c0 0 <.plt ELF section in TestRange>
STACK CFI INIT 6b4 6 .cfa: sp 0 + .ra: lr
STACK CFI 6b6 .cfa: sp 8 + .ra: .cfa -4 + ^ r7: .cfa -8 + ^
STACK CFI 6b8 .cfa: r7 8 +
STACK CFI INIT 6bc 58 .cfa: sp 0 + .ra: lr
STACK CFI 6be .cfa: sp 8 + .ra: .cfa -4 + ^ r7: .cfa -8 + ^
STACK CFI 6c0 .cfa: r7 8 +
STACK CFI INIT 714 8 .cfa: sp 0 + .ra: lr
STACK CFI 716 .cfa: sp 8 + .ra: .cfa -4 + ^ r7: .cfa -8 + ^
STACK CFI 718 .cfa: r7 8 +
STACK CFI INIT 71c 38 .cfa: sp 0 + .ra: lr
STACK CFI 71e .cfa: sp 16 + .ra: .cfa -4 + ^ r7: .cfa -8 + ^ r5: .cfa -12 + ^ r4: .cfa -16 + ^
STACK CFI 720 .cfa: r7 8 +
STACK CFI INIT 754 60 .cfa: sp 0 + .ra: lr
STACK CFI 756 .cfa: sp 16 + .ra: .cfa -4 + ^ r7: .cfa -8 + ^ r6: .cfa -12 + ^ r4: .cfa -16 + ^
STACK CFI 758 .cfa: r7 8 +
