MODULE Linux arm DA232174F49C4A714D960AA080793EF00 TestRollingMean
INFO CODE_ID 742123DA9CF4714A4D960AA080793EF0BE5E8838
INFO GENERATOR mozilla/dump_syms 2.3.6
PUBLIC ab4 0 _start
PUBLIC ac4 0 _start_main
PUBLIC b30 0 __atexit_handler_wrapper
PUBLIC b48 0 atexit
PUBLIC b74 0 pthread_atfork
PUBLIC b90 0 call_fini_array
FUNC bd4 8c 0 main
FUNC c60 150 0 RollingMeanSuite::testClear()
FUNC db0 240 0 RollingMeanSuite::testRolling()
FUNC ff0 ec 0 RollingMeanSuite::testClass()
FUNC 10dc 200 0 RollingMeanSuite::testMove()
FUNC 12dc 3c 0 MOZ_ReportAssertionFailure(char const*, char const*, int)
FUNC 1318 c8 0 mozilla::Vector<unsigned int, (unsigned int)0, mozilla::MallocAllocPolicy>::~Vector()
FUNC 13e0 e4 0 mozilla::RollingMean<unsigned int, unsigned long long>::insert(unsigned int)
FUNC 14c4 118 0 mozilla::Vector<unsigned int, (unsigned int)0, mozilla::MallocAllocPolicy>::append<unsigned int&>(unsigned int&)
FUNC 15dc c0 0 mozilla::Vector<unsigned int, (unsigned int)0, mozilla::MallocAllocPolicy>::growStorageBy(unsigned int)
FUNC 169c 12c 0 mozilla::Vector<unsigned int, (unsigned int)0, mozilla::MallocAllocPolicy>::convertToHeapStorage(unsigned int)
FUNC 17c8 b8 0 mozilla::detail::VectorImpl<unsigned int, (unsigned int)0, mozilla::MallocAllocPolicy, true>::growTo(mozilla::Vector<unsigned int, (unsigned int)0, mozilla::MallocAllocPolicy>&, unsigned int)
FUNC 1880 bc 0 mozilla::Vector<unsigned int, (unsigned int)0, mozilla::MallocAllocPolicy>::clear()
FUNC 193c d0 0 mozilla::RollingMean<MyClass, MyClass>::insert(MyClass)
FUNC 1a0c 118 0 mozilla::Vector<MyClass, (unsigned int)0, mozilla::MallocAllocPolicy>::append<MyClass&>(MyClass&)
FUNC 1b24 c0 0 mozilla::Vector<MyClass, (unsigned int)0, mozilla::MallocAllocPolicy>::growStorageBy(unsigned int)
FUNC 1be4 134 0 mozilla::detail::VectorImpl<MyClass, (unsigned int)0, mozilla::MallocAllocPolicy, false>::growTo(mozilla::Vector<MyClass, (unsigned int)0, mozilla::MallocAllocPolicy>&, unsigned int)
PUBLIC m 1d18 0 __aeabi_uidiv
PUBLIC 1ee8 0 __aeabi_idiv0
PUBLIC 1eec 0 __aeabi_ldiv0
PUBLIC 1ef0 0 __aeabi_uidivmod
PUBLIC 1f0c 0 __aeabi_uldivmod
PUBLIC 1f30 0 <.plt ELF section in TestRollingMean>
STACK CFI INIT bd4 8c .cfa: sp 0 + .ra: lr
STACK CFI bd6 .cfa: sp 16 + .ra: .cfa -4 + ^ r7: .cfa -8 + ^ r6: .cfa -12 + ^ r4: .cfa -16 + ^
STACK CFI bd8 .cfa: r7 8 +
STACK CFI INIT c60 150 .cfa: sp 0 + .ra: lr
STACK CFI c62 .cfa: sp 16 + .ra: .cfa -4 + ^ r7: .cfa -8 + ^ r5: .cfa -12 + ^ r4: .cfa -16 + ^
STACK CFI c64 .cfa: r7 8 +
STACK CFI INIT db0 240 .cfa: sp 0 + .ra: lr
STACK CFI db2 .cfa: sp 16 + .ra: .cfa -4 + ^ r7: .cfa -8 + ^ r6: .cfa -12 + ^ r4: .cfa -16 + ^
STACK CFI db4 .cfa: r7 8 +
STACK CFI INIT ff0 ec .cfa: sp 0 + .ra: lr
STACK CFI ff2 .cfa: sp 16 + .ra: .cfa -4 + ^ r7: .cfa -8 + ^ r6: .cfa -12 + ^ r4: .cfa -16 + ^
STACK CFI ff4 .cfa: r7 8 +
STACK CFI INIT 10dc 200 .cfa: sp 0 + .ra: lr
STACK CFI 10de .cfa: sp 20 + .ra: .cfa -4 + ^ r7: .cfa -8 + ^ r6: .cfa -12 + ^ r5: .cfa -16 + ^ r4: .cfa -20 + ^
STACK CFI 10e0 .cfa: r7 8 +
STACK CFI 10e4 r10: .cfa -24 + ^ r9: .cfa -28 + ^ r8: .cfa -32 + ^
STACK CFI INIT 12dc 3c .cfa: sp 0 + .ra: lr
STACK CFI 12de .cfa: sp 20 + .ra: .cfa -4 + ^ r7: .cfa -8 + ^ r6: .cfa -12 + ^ r5: .cfa -16 + ^ r4: .cfa -20 + ^
STACK CFI 12e0 .cfa: r7 8 +
STACK CFI 12e4 r11: .cfa -24 + ^
STACK CFI INIT 1318 c8 .cfa: sp 0 + .ra: lr
STACK CFI 131a .cfa: sp 16 + .ra: .cfa -4 + ^ r7: .cfa -8 + ^ r6: .cfa -12 + ^ r4: .cfa -16 + ^
STACK CFI 131c .cfa: r7 8 +
STACK CFI INIT 13e0 e4 .cfa: sp 0 + .ra: lr
STACK CFI 13e2 .cfa: sp 16 + .ra: .cfa -4 + ^ r7: .cfa -8 + ^ r6: .cfa -12 + ^ r4: .cfa -16 + ^
STACK CFI 13e4 .cfa: r7 8 +
STACK CFI INIT 14c4 118 .cfa: sp 0 + .ra: lr
STACK CFI 14c6 .cfa: sp 16 + .ra: .cfa -4 + ^ r7: .cfa -8 + ^ r5: .cfa -12 + ^ r4: .cfa -16 + ^
STACK CFI 14c8 .cfa: r7 8 +
STACK CFI INIT 15dc c0 .cfa: sp 0 + .ra: lr
STACK CFI 1674 .cfa: sp 16 + .ra: .cfa -4 + ^ r7: .cfa -8 + ^ r6: .cfa -12 + ^ r4: .cfa -16 + ^
STACK CFI 1676 .cfa: r7 8 +
STACK CFI INIT 169c 12c .cfa: sp 0 + .ra: lr
STACK CFI 169e .cfa: sp 20 + .ra: .cfa -4 + ^ r7: .cfa -8 + ^ r6: .cfa -12 + ^ r5: .cfa -16 + ^ r4: .cfa -20 + ^
STACK CFI 16a0 .cfa: r7 8 +
STACK CFI 16a4 r10: .cfa -24 + ^ r9: .cfa -28 + ^ r8: .cfa -32 + ^
STACK CFI INIT 17c8 b8 .cfa: sp 0 + .ra: lr
STACK CFI 17ca .cfa: sp 16 + .ra: .cfa -4 + ^ r7: .cfa -8 + ^ r5: .cfa -12 + ^ r4: .cfa -16 + ^
STACK CFI 17cc .cfa: r7 8 +
STACK CFI INIT 1880 bc .cfa: sp 0 + .ra: lr
STACK CFI 1882 .cfa: sp 16 + .ra: .cfa -4 + ^ r7: .cfa -8 + ^ r6: .cfa -12 + ^ r4: .cfa -16 + ^
STACK CFI 1884 .cfa: r7 8 +
STACK CFI INIT 193c d0 .cfa: sp 0 + .ra: lr
STACK CFI 193e .cfa: sp 16 + .ra: .cfa -4 + ^ r7: .cfa -8 + ^ r6: .cfa -12 + ^ r4: .cfa -16 + ^
STACK CFI 1940 .cfa: r7 8 +
STACK CFI INIT 1a0c 118 .cfa: sp 0 + .ra: lr
STACK CFI 1a0e .cfa: sp 16 + .ra: .cfa -4 + ^ r7: .cfa -8 + ^ r5: .cfa -12 + ^ r4: .cfa -16 + ^
STACK CFI 1a10 .cfa: r7 8 +
STACK CFI INIT 1b24 c0 .cfa: sp 0 + .ra: lr
STACK CFI 1bbc .cfa: sp 16 + .ra: .cfa -4 + ^ r7: .cfa -8 + ^ r6: .cfa -12 + ^ r4: .cfa -16 + ^
STACK CFI 1bbe .cfa: r7 8 +
STACK CFI INIT 0 12c .cfa: sp 0 + .ra: lr
STACK CFI 2 .cfa: sp 20 + .ra: .cfa -4 + ^ r7: .cfa -8 + ^ r6: .cfa -12 + ^ r5: .cfa -16 + ^ r4: .cfa -20 + ^
STACK CFI 4 .cfa: r7 8 +
STACK CFI 8 r10: .cfa -24 + ^ r9: .cfa -28 + ^ r8: .cfa -32 + ^
STACK CFI INIT 1be4 134 .cfa: sp 0 + .ra: lr
STACK CFI 1be6 .cfa: sp 20 + .ra: .cfa -4 + ^ r7: .cfa -8 + ^ r6: .cfa -12 + ^ r5: .cfa -16 + ^ r4: .cfa -20 + ^
STACK CFI 1be8 .cfa: r7 8 +
STACK CFI 1bec r11: .cfa -24 + ^ r10: .cfa -28 + ^ r9: .cfa -32 + ^ r8: .cfa -36 + ^
STACK CFI INIT 0 bc .cfa: sp 0 + .ra: lr
STACK CFI 2 .cfa: sp 16 + .ra: .cfa -4 + ^ r7: .cfa -8 + ^ r6: .cfa -12 + ^ r4: .cfa -16 + ^
STACK CFI 4 .cfa: r7 8 +
STACK CFI INIT 0 c8 .cfa: sp 0 + .ra: lr
STACK CFI 2 .cfa: sp 16 + .ra: .cfa -4 + ^ r7: .cfa -8 + ^ r6: .cfa -12 + ^ r4: .cfa -16 + ^
STACK CFI 4 .cfa: r7 8 +
