MODULE Linux arm 1A74BC052AD864DFF9E174F8DDA53D990 TestLinkedList
INFO CODE_ID 05BC741AD82ADF64F9E174F8DDA53D99BA8720CC
INFO GENERATOR mozilla/dump_syms 2.3.6
PUBLIC d70 0 _start
PUBLIC d80 0 _start_main
PUBLIC dec 0 __atexit_handler_wrapper
PUBLIC e04 0 atexit
PUBLIC e30 0 pthread_atfork
PUBLIC e4c 0 call_fini_array
FUNC e90 598 0 TestSplice()
FUNC 1428 a8 0 mozilla::LinkedList<SomeClass>::extendBack(mozilla::LinkedList<SomeClass>&&)
FUNC 14d0 c0 0 mozilla::LinkedList<SomeClass>::splice(unsigned int, mozilla::LinkedList<SomeClass>&, unsigned int, unsigned int)
FUNC 1590 3c 0 MOZ_ReportAssertionFailure(char const*, char const*, int)
FUNC 15cc c4 0 CheckListValues<(unsigned int)3>(mozilla::LinkedList<SomeClass>&, unsigned int (&) [(unsigned int)3])
FUNC 1690 1d18 0 main
FUNC 33a8 80 0 mozilla::LinkedList<SomeClass>::popFirst()
FUNC 3428 80 0 mozilla::LinkedList<SomeClass>::popLast()
FUNC 34a8 c4 0 CheckListValues<(unsigned int)1>(mozilla::LinkedList<SomeClass>&, unsigned int (&) [(unsigned int)1])
FUNC 356c c4 0 CheckListValues<(unsigned int)2>(mozilla::LinkedList<SomeClass>&, unsigned int (&) [(unsigned int)2])
FUNC 3630 ac 0 mozilla::LinkedListElement<SomeClass>::removeFrom(mozilla::LinkedList<SomeClass> const&)
FUNC 36dc d8 0 mozilla::LinkedListElement<SomeClass>::setPrevious(SomeClass*)
FUNC 37b4 d8 0 mozilla::LinkedListElement<SomeClass>::setNext(SomeClass*)
FUNC 388c 74 0 mozilla::LinkedList<SomeClass>::~LinkedList()
FUNC 3900 38 0 MOZ_ReportCrash(char const*, char const*, int)
FUNC 3938 80 0 mozilla::LinkedListElement<SomeClass>::~LinkedListElement()
FUNC 39b8 74 0 mozilla::LinkedList<PrivateClass>::~LinkedList()
FUNC 3a2c 98 0 mozilla::LinkedListElement<SomeClass>::operator=(mozilla::LinkedListElement<SomeClass>&&)
FUNC 3ac4 bc 0 mozilla::LinkedListElement<SomeClass>::adjustLinkForMove(mozilla::LinkedListElement<SomeClass>&&)
FUNC 3b80 84 0 mozilla::LinkedListElement<RefPtr<CountedClass> >::remove()
FUNC 3c04 7c 0 CountedClass::~CountedClass()
FUNC 3c80 a0 0 mozilla::LinkedList<RefPtr<CountedClass> >::~LinkedList()
FUNC 3d20 88 0 mozilla::LinkedListElement<RefPtr<CountedClass> >::setNextUnsafe(CountedClass*)
FUNC 3da8 c8 0 mozilla::LinkedListElement<SomeClass>::transferBeforeUnsafe(mozilla::LinkedListElement<SomeClass>&, mozilla::LinkedListElement<SomeClass>&)
PUBLIC 3e70 0 <.plt ELF section in TestLinkedList>
STACK CFI INIT e90 598 .cfa: sp 0 + .ra: lr
STACK CFI e92 .cfa: sp 20 + .ra: .cfa -4 + ^ r7: .cfa -8 + ^ r6: .cfa -12 + ^ r5: .cfa -16 + ^ r4: .cfa -20 + ^
STACK CFI e94 .cfa: r7 8 +
STACK CFI e98 r11: .cfa -24 + ^ r10: .cfa -28 + ^ r9: .cfa -32 + ^ r8: .cfa -36 + ^
STACK CFI INIT 1428 a8 .cfa: sp 0 + .ra: lr
STACK CFI 142a .cfa: sp 16 + .ra: .cfa -4 + ^ r7: .cfa -8 + ^ r6: .cfa -12 + ^ r4: .cfa -16 + ^
STACK CFI 142c .cfa: r7 8 +
STACK CFI INIT 14d0 c0 .cfa: sp 0 + .ra: lr
STACK CFI 14d2 .cfa: sp 16 + .ra: .cfa -4 + ^ r7: .cfa -8 + ^ r6: .cfa -12 + ^ r4: .cfa -16 + ^
STACK CFI 14d4 .cfa: r7 8 +
STACK CFI INIT 1590 3c .cfa: sp 0 + .ra: lr
STACK CFI 1592 .cfa: sp 20 + .ra: .cfa -4 + ^ r7: .cfa -8 + ^ r6: .cfa -12 + ^ r5: .cfa -16 + ^ r4: .cfa -20 + ^
STACK CFI 1594 .cfa: r7 8 +
STACK CFI 1598 r11: .cfa -24 + ^
STACK CFI INIT 15cc c4 .cfa: sp 0 + .ra: lr
STACK CFI 15ce .cfa: sp 16 + .ra: .cfa -4 + ^ r7: .cfa -8 + ^ r6: .cfa -12 + ^ r4: .cfa -16 + ^
STACK CFI 15d0 .cfa: r7 8 +
STACK CFI INIT 1690 1d18 .cfa: sp 0 + .ra: lr
STACK CFI 1692 .cfa: sp 20 + .ra: .cfa -4 + ^ r7: .cfa -8 + ^ r6: .cfa -12 + ^ r5: .cfa -16 + ^ r4: .cfa -20 + ^
STACK CFI 1694 .cfa: r7 8 +
STACK CFI 1698 r11: .cfa -24 + ^ r10: .cfa -28 + ^ r9: .cfa -32 + ^ r8: .cfa -36 + ^
STACK CFI INIT 33a8 80 .cfa: sp 0 + .ra: lr
STACK CFI 33aa .cfa: sp 16 + .ra: .cfa -4 + ^ r7: .cfa -8 + ^ r6: .cfa -12 + ^ r4: .cfa -16 + ^
STACK CFI 33ac .cfa: r7 8 +
STACK CFI INIT 3428 80 .cfa: sp 0 + .ra: lr
STACK CFI 342a .cfa: sp 16 + .ra: .cfa -4 + ^ r7: .cfa -8 + ^ r6: .cfa -12 + ^ r4: .cfa -16 + ^
STACK CFI 342c .cfa: r7 8 +
STACK CFI INIT 34a8 c4 .cfa: sp 0 + .ra: lr
STACK CFI 34aa .cfa: sp 16 + .ra: .cfa -4 + ^ r7: .cfa -8 + ^ r6: .cfa -12 + ^ r4: .cfa -16 + ^
STACK CFI 34ac .cfa: r7 8 +
STACK CFI INIT 356c c4 .cfa: sp 0 + .ra: lr
STACK CFI 356e .cfa: sp 16 + .ra: .cfa -4 + ^ r7: .cfa -8 + ^ r6: .cfa -12 + ^ r4: .cfa -16 + ^
STACK CFI 3570 .cfa: r7 8 +
STACK CFI INIT 3630 ac .cfa: sp 0 + .ra: lr
STACK CFI 3632 .cfa: sp 16 + .ra: .cfa -4 + ^ r7: .cfa -8 + ^ r6: .cfa -12 + ^ r4: .cfa -16 + ^
STACK CFI 3634 .cfa: r7 8 +
STACK CFI INIT 36dc d8 .cfa: sp 0 + .ra: lr
STACK CFI 36de .cfa: sp 16 + .ra: .cfa -4 + ^ r7: .cfa -8 + ^ r6: .cfa -12 + ^ r4: .cfa -16 + ^
STACK CFI 36e0 .cfa: r7 8 +
STACK CFI INIT 37b4 d8 .cfa: sp 0 + .ra: lr
STACK CFI 37b6 .cfa: sp 16 + .ra: .cfa -4 + ^ r7: .cfa -8 + ^ r6: .cfa -12 + ^ r4: .cfa -16 + ^
STACK CFI 37b8 .cfa: r7 8 +
STACK CFI INIT 388c 74 .cfa: sp 0 + .ra: lr
STACK CFI 388e .cfa: sp 16 + .ra: .cfa -4 + ^ r7: .cfa -8 + ^ r6: .cfa -12 + ^ r4: .cfa -16 + ^
STACK CFI 3890 .cfa: r7 8 +
STACK CFI INIT 3900 38 .cfa: sp 0 + .ra: lr
STACK CFI 3902 .cfa: sp 16 + .ra: .cfa -4 + ^ r7: .cfa -8 + ^ r5: .cfa -12 + ^ r4: .cfa -16 + ^
STACK CFI 3904 .cfa: r7 8 +
STACK CFI INIT 3938 80 .cfa: sp 0 + .ra: lr
STACK CFI 393a .cfa: sp 16 + .ra: .cfa -4 + ^ r7: .cfa -8 + ^ r6: .cfa -12 + ^ r4: .cfa -16 + ^
STACK CFI 393c .cfa: r7 8 +
STACK CFI INIT 39b8 74 .cfa: sp 0 + .ra: lr
STACK CFI 39ba .cfa: sp 16 + .ra: .cfa -4 + ^ r7: .cfa -8 + ^ r6: .cfa -12 + ^ r4: .cfa -16 + ^
STACK CFI 39bc .cfa: r7 8 +
STACK CFI INIT 0 80 .cfa: sp 0 + .ra: lr
STACK CFI 2 .cfa: sp 16 + .ra: .cfa -4 + ^ r7: .cfa -8 + ^ r6: .cfa -12 + ^ r4: .cfa -16 + ^
STACK CFI 4 .cfa: r7 8 +
STACK CFI INIT 3a2c 98 .cfa: sp 0 + .ra: lr
STACK CFI 3a2e .cfa: sp 16 + .ra: .cfa -4 + ^ r7: .cfa -8 + ^ r6: .cfa -12 + ^ r4: .cfa -16 + ^
STACK CFI 3a30 .cfa: r7 8 +
STACK CFI INIT 3ac4 bc .cfa: sp 0 + .ra: lr
STACK CFI 3ac6 .cfa: sp 16 + .ra: .cfa -4 + ^ r7: .cfa -8 + ^ r6: .cfa -12 + ^ r4: .cfa -16 + ^
STACK CFI 3ac8 .cfa: r7 8 +
STACK CFI INIT 3b80 84 .cfa: sp 0 + .ra: lr
STACK CFI 3b82 .cfa: sp 16 + .ra: .cfa -4 + ^ r7: .cfa -8 + ^ r6: .cfa -12 + ^ r4: .cfa -16 + ^
STACK CFI 3b84 .cfa: r7 8 +
STACK CFI INIT 3c04 7c .cfa: sp 0 + .ra: lr
STACK CFI 3c06 .cfa: sp 16 + .ra: .cfa -4 + ^ r7: .cfa -8 + ^ r6: .cfa -12 + ^ r4: .cfa -16 + ^
STACK CFI 3c08 .cfa: r7 8 +
STACK CFI INIT 3c80 a0 .cfa: sp 0 + .ra: lr
STACK CFI 3c82 .cfa: sp 16 + .ra: .cfa -4 + ^ r7: .cfa -8 + ^ r6: .cfa -12 + ^ r4: .cfa -16 + ^
STACK CFI 3c84 .cfa: r7 8 +
STACK CFI INIT 3d20 88 .cfa: sp 0 + .ra: lr
STACK CFI 3d22 .cfa: sp 16 + .ra: .cfa -4 + ^ r7: .cfa -8 + ^ r6: .cfa -12 + ^ r4: .cfa -16 + ^
STACK CFI 3d24 .cfa: r7 8 +
STACK CFI INIT 3da8 c8 .cfa: sp 0 + .ra: lr
STACK CFI 3daa .cfa: sp 16 + .ra: .cfa -4 + ^ r7: .cfa -8 + ^ r6: .cfa -12 + ^ r4: .cfa -16 + ^
STACK CFI 3dac .cfa: r7 8 +
