MODULE Linux arm 2910A6BBA0212F3C9A5A452A451163BA0 TestUniquePtr
INFO CODE_ID BBA6102921A03C2F9A5A452A451163BACF28CE66
INFO GENERATOR mozilla/dump_syms 2.3.6
PUBLIC af4 0 _start
PUBLIC b04 0 _start_main
PUBLIC b70 0 __atexit_handler_wrapper
PUBLIC b88 0 atexit
PUBLIC bb4 0 pthread_atfork
PUBLIC bd0 0 call_fini_array
FUNC c14 42c 0 main
FUNC 1040 3c 0 MOZ_ReportAssertionFailure(char const*, char const*, int)
FUNC 107c 20 0 A::~A()
FUNC 109c 1c 0 A::~A()
FUNC 10b8 38 0 B::~B()
FUNC 10f0 2c 0 B::~B()
FUNC 111c 118 0 mozilla::Vector<std::__ndk1::unique_ptr<A, std::__ndk1::default_delete<A> >, (unsigned int)0, mozilla::MallocAllocPolicy>::append<B*>(B*&&)
FUNC 1234 94 0 AppendNullptrTwice<std::__ndk1::unique_ptr<A, std::__ndk1::default_delete<A> > >::operator()(mozilla::Vector<std::__ndk1::unique_ptr<A, std::__ndk1::default_delete<A> >, (unsigned int)0, mozilla::MallocAllocPolicy>&)
FUNC 12c8 fc 0 mozilla::Vector<std::__ndk1::unique_ptr<A, std::__ndk1::default_delete<A> >, (unsigned int)0, mozilla::MallocAllocPolicy>::~Vector()
FUNC 13c4 c0 0 mozilla::Vector<std::__ndk1::unique_ptr<A, std::__ndk1::default_delete<A> >, (unsigned int)0, mozilla::MallocAllocPolicy>::growStorageBy(unsigned int)
FUNC 1484 188 0 mozilla::Vector<std::__ndk1::unique_ptr<A, std::__ndk1::default_delete<A> >, (unsigned int)0, mozilla::MallocAllocPolicy>::convertToHeapStorage(unsigned int)
FUNC 160c 104 0 mozilla::detail::VectorImpl<std::__ndk1::unique_ptr<A, std::__ndk1::default_delete<A> >, (unsigned int)0, mozilla::MallocAllocPolicy, false>::growTo(mozilla::Vector<std::__ndk1::unique_ptr<A, std::__ndk1::default_delete<A> >, (unsigned int)0, mozilla::MallocAllocPolicy>&, unsigned int)
FUNC 1710 118 0 mozilla::Vector<std::__ndk1::unique_ptr<A, std::__ndk1::default_delete<A> >, (unsigned int)0, mozilla::MallocAllocPolicy>::append<std::nullptr_t>(std::nullptr_t&&)
PUBLIC 1829 0 __ThumbV7PILongThunk__ZdlPv
PUBLIC 1840 0 <.plt ELF section in TestUniquePtr>
STACK CFI INIT c14 42c .cfa: sp 0 + .ra: lr
STACK CFI c16 .cfa: sp 20 + .ra: .cfa -4 + ^ r7: .cfa -8 + ^ r6: .cfa -12 + ^ r5: .cfa -16 + ^ r4: .cfa -20 + ^
STACK CFI c18 .cfa: r7 8 +
STACK CFI c1c r11: .cfa -24 + ^ r10: .cfa -28 + ^ r9: .cfa -32 + ^ r8: .cfa -36 + ^
STACK CFI INIT 1040 3c .cfa: sp 0 + .ra: lr
STACK CFI 1042 .cfa: sp 20 + .ra: .cfa -4 + ^ r7: .cfa -8 + ^ r6: .cfa -12 + ^ r5: .cfa -16 + ^ r4: .cfa -20 + ^
STACK CFI 1044 .cfa: r7 8 +
STACK CFI 1048 r11: .cfa -24 + ^
STACK CFI INIT 107c 20 .cfa: sp 0 + .ra: lr
STACK CFI 107e .cfa: sp 8 + .ra: .cfa -4 + ^ r7: .cfa -8 + ^
STACK CFI 1080 .cfa: r7 8 +
STACK CFI INIT 109c 1c .cfa: sp 0 + .ra: lr
STACK CFI 109e .cfa: sp 8 + .ra: .cfa -4 + ^ r7: .cfa -8 + ^
STACK CFI 10a0 .cfa: r7 8 +
STACK CFI INIT 10b8 38 .cfa: sp 0 + .ra: lr
STACK CFI 10ba .cfa: sp 8 + .ra: .cfa -4 + ^ r7: .cfa -8 + ^
STACK CFI 10bc .cfa: r7 8 +
STACK CFI INIT 10f0 2c .cfa: sp 0 + .ra: lr
STACK CFI 10f2 .cfa: sp 8 + .ra: .cfa -4 + ^ r7: .cfa -8 + ^
STACK CFI 10f4 .cfa: r7 8 +
STACK CFI INIT 111c 118 .cfa: sp 0 + .ra: lr
STACK CFI 111e .cfa: sp 16 + .ra: .cfa -4 + ^ r7: .cfa -8 + ^ r5: .cfa -12 + ^ r4: .cfa -16 + ^
STACK CFI 1120 .cfa: r7 8 +
STACK CFI INIT 0 118 .cfa: sp 0 + .ra: lr
STACK CFI 2 .cfa: sp 16 + .ra: .cfa -4 + ^ r7: .cfa -8 + ^ r5: .cfa -12 + ^ r4: .cfa -16 + ^
STACK CFI 4 .cfa: r7 8 +
STACK CFI INIT 1234 94 .cfa: sp 0 + .ra: lr
STACK CFI 1236 .cfa: sp 16 + .ra: .cfa -4 + ^ r7: .cfa -8 + ^ r5: .cfa -12 + ^ r4: .cfa -16 + ^
STACK CFI 1238 .cfa: r7 8 +
STACK CFI INIT 12c8 fc .cfa: sp 0 + .ra: lr
STACK CFI 12ca .cfa: sp 20 + .ra: .cfa -4 + ^ r7: .cfa -8 + ^ r6: .cfa -12 + ^ r5: .cfa -16 + ^ r4: .cfa -20 + ^
STACK CFI 12cc .cfa: r7 8 +
STACK CFI 12d0 r8: .cfa -24 + ^
STACK CFI INIT 13c4 c0 .cfa: sp 0 + .ra: lr
STACK CFI 145c .cfa: sp 16 + .ra: .cfa -4 + ^ r7: .cfa -8 + ^ r6: .cfa -12 + ^ r4: .cfa -16 + ^
STACK CFI 145e .cfa: r7 8 +
STACK CFI INIT 1484 188 .cfa: sp 0 + .ra: lr
STACK CFI 1486 .cfa: sp 20 + .ra: .cfa -4 + ^ r7: .cfa -8 + ^ r6: .cfa -12 + ^ r5: .cfa -16 + ^ r4: .cfa -20 + ^
STACK CFI 1488 .cfa: r7 8 +
STACK CFI 148c r11: .cfa -24 + ^ r10: .cfa -28 + ^ r9: .cfa -32 + ^ r8: .cfa -36 + ^
STACK CFI INIT 160c 104 .cfa: sp 0 + .ra: lr
STACK CFI 160e .cfa: sp 20 + .ra: .cfa -4 + ^ r7: .cfa -8 + ^ r6: .cfa -12 + ^ r5: .cfa -16 + ^ r4: .cfa -20 + ^
STACK CFI 1610 .cfa: r7 8 +
STACK CFI 1614 r10: .cfa -24 + ^ r9: .cfa -28 + ^ r8: .cfa -32 + ^
STACK CFI INIT 1710 118 .cfa: sp 0 + .ra: lr
STACK CFI 1712 .cfa: sp 16 + .ra: .cfa -4 + ^ r7: .cfa -8 + ^ r6: .cfa -12 + ^ r4: .cfa -16 + ^
STACK CFI 1714 .cfa: r7 8 +
