MODULE Linux arm B3370D34F2EFEC0475B597107A44D4140 TestBoundedMPSCQueue
INFO CODE_ID 340D37B3EFF204EC75B597107A44D41486AC02EC
INFO GENERATOR mozilla/dump_syms 2.3.6
PUBLIC 32a4 0 _start
PUBLIC 32b4 0 _start_main
PUBLIC 3320 0 __atexit_handler_wrapper
PUBLIC 3338 0 atexit
PUBLIC 3364 0 pthread_atfork
PUBLIC 3380 0 call_fini_array
FUNC 33c4 24 0 StackWalkCallback(void*, void*, NativeStack*)
FUNC 33e8 222 0 FillNativeStack(NativeStack*)
FUNC 360c a24 0 main
FUNC 4030 c8 0 testBasicApiCapacities<(unsigned int)1, (unsigned int)5, (unsigned int)7, (unsigned int)10, (unsigned int)15>()
FUNC 40f8 16c 0 mozilla::MPSCRingBufferBase<NativeStack, (unsigned int)2>::MPSCRingBufferBase()
FUNC 4264 38 0 MOZ_ReportAssertionFailure(char const*, char const*, int)
FUNC 429c f6 0 mozilla::MPSCRingBufferBase<NativeStack, (unsigned int)15>::MPSCRingBufferBase()
FUNC 4394 150 0 BasicAPITestMP<(unsigned int)15>(mozilla::MPSCRingBufferBase<NativeStack, (unsigned int)15>&, unsigned int)
FUNC 44e4 d4 0 testBasicApi<(unsigned int)1>()
FUNC 45b8 304 0 BasicAPITestWithStack<(unsigned int)1>(mozilla::MPSCRingBufferBase<NativeStack, (unsigned int)1>&, unsigned int)
FUNC 48bc 40 0 MOZ_ReportCrash(char const*, char const*, int)
FUNC 48fc 3b0 0 mozilla::MPSCRingBufferBase<NativeStack, (unsigned int)5>::MPSCRingBufferBase()
FUNC 4cac 2ac 0 BasicAPITestWithStack<(unsigned int)5>(mozilla::MPSCRingBufferBase<NativeStack, (unsigned int)5>&, unsigned int)
FUNC 4f58 17a 0 mozilla::MPSCRingBufferBase<NativeStack, (unsigned int)5>::Send(NativeStack&)
FUNC 50d2 184 0 mozilla::MPSCRingBufferBase<NativeStack, (unsigned int)5>::Recv(NativeStack*)
FUNC 5256 13c 0 mozilla::MPSCRingBufferBase<NativeStack, (unsigned int)7>::MPSCRingBufferBase()
FUNC 5394 1c0 0 BasicAPITestWithStack<(unsigned int)7>(mozilla::MPSCRingBufferBase<NativeStack, (unsigned int)7>&, unsigned int)
FUNC 5554 190 0 mozilla::MPSCRingBufferBase<NativeStack, (unsigned int)7>::Send(NativeStack&)
FUNC 56e4 19a 0 mozilla::MPSCRingBufferBase<NativeStack, (unsigned int)7>::Recv(NativeStack*)
FUNC 587e ba 0 mozilla::MPSCRingBufferBase<NativeStack, (unsigned int)10>::MPSCRingBufferBase()
FUNC 5938 280 0 BasicAPITestWithStack<(unsigned int)10>(mozilla::MPSCRingBufferBase<NativeStack, (unsigned int)10>&, unsigned int)
FUNC 5bb8 11a 0 mozilla::MPSCRingBufferBase<NativeStack, (unsigned int)10>::MarkSlot(std::__ndk1::atomic<unsigned long long>&, unsigned long long)
FUNC 5cd4 280 0 BasicAPITestWithStack<(unsigned int)15>(mozilla::MPSCRingBufferBase<NativeStack, (unsigned int)15>&, unsigned int)
FUNC 5f54 15a 0 mozilla::MPSCRingBufferBase<NativeStack, (unsigned int)15>::MarkSlot(std::__ndk1::atomic<unsigned long long>&, unsigned long long)
FUNC 60b0 140 0 std::__ndk1::__thread_proxy[abi:dn210000]<std::__ndk1::tuple<std::__ndk1::unique_ptr<std::__ndk1::__thread_struct, std::__ndk1::default_delete<std::__ndk1::unique_ptr> >, BasicAPITestMP<(unsigned int)15>(mozilla::MPSCRingBufferBase<NativeStack, (unsigned int)15>&, unsigned int)::{lambda()#1}> >(std::__ndk1::tuple<std::__ndk1::unique_ptr<std::__ndk1::__thread_struct, std::__ndk1::default_delete<std::__ndk1::unique_ptr> >, BasicAPITestMP<(unsigned int)15>(mozilla::MPSCRingBufferBase<NativeStack, (unsigned int)15>&, unsigned int)::{lambda()#1}>)
FUNC 61f0 178 0 std::__ndk1::__thread_proxy[abi:dn210000]<std::__ndk1::tuple<std::__ndk1::unique_ptr<std::__ndk1::__thread_struct, std::__ndk1::default_delete<std::__ndk1::unique_ptr> >, BasicAPITestMP<(unsigned int)15>(mozilla::MPSCRingBufferBase<NativeStack, (unsigned int)15>&, unsigned int)::{lambda()#2}> >(std::__ndk1::tuple<std::__ndk1::unique_ptr<std::__ndk1::__thread_struct, std::__ndk1::default_delete<std::__ndk1::unique_ptr> >, BasicAPITestMP<(unsigned int)15>(mozilla::MPSCRingBufferBase<NativeStack, (unsigned int)15>&, unsigned int)::{lambda()#2}>)
FUNC 6368 10 0 std::__ndk1::thread::~thread()
PUBLIC 6379 0 __clang_call_terminate
FUNC 6384 2c 0 std::__ndk1::thread::join()
FUNC 63b0 28 0 std::__ndk1::thread::detach()
FUNC 63d8 14 0 std::__ndk1::thread::hardware_concurrency()
FUNC 63ec 6c 0 std::__ndk1::this_thread::sleep_for(std::__ndk1::chrono::duration<long long, std::__ndk1::ratio<(long long)1, (long long)1000000000> > const&)
FUNC 6458 64 0 std::__ndk1::__thread_local_data()
FUNC 64bc 28 0 std::__ndk1::__thread_specific_ptr<std::__ndk1::__thread_struct>::__thread_specific_ptr()
FUNC 64e4 88 0 std::__ndk1::__thread_struct_imp::~__thread_struct_imp()
FUNC 656c 9c 0 std::__ndk1::__thread_struct_imp::notify_all_at_thread_exit(std::__ndk1::condition_variable*, std::__ndk1::mutex*)
FUNC 6608 a2 0 std::__ndk1::__thread_struct_imp::__make_ready_at_thread_exit(std::__ndk1::__assoc_sub_state*)
FUNC 66aa 20 0 std::__ndk1::__thread_struct::__thread_struct()
FUNC 66ca 20 0 std::__ndk1::__thread_struct::~__thread_struct()
FUNC 66ea 9e 0 std::__ndk1::__thread_struct::notify_all_at_thread_exit(std::__ndk1::condition_variable*, std::__ndk1::mutex*)
FUNC 6788 a2 0 std::__ndk1::__thread_struct::__make_ready_at_thread_exit(std::__ndk1::__assoc_sub_state*)
FUNC 682c 10 0 std::__ndk1::vector<std::__ndk1::pair<std::__ndk1::condition_variable*, std::__ndk1::mutex*>, std::__ndk1::__hidden_allocator<std::__ndk1::pair<std::__ndk1::condition_variable*, std::__ndk1::mutex*> > >::__throw_length_error[abi:ne210000]()
FUNC 683c 38 0 std::__ndk1::__throw_length_error[abi:ne210000](char const*)
FUNC 6874 18 0 std::length_error::length_error[abi:ne210000](char const*)
FUNC 688c 10 0 std::__ndk1::vector<std::__ndk1::__assoc_sub_state*, std::__ndk1::__hidden_allocator<std::__ndk1::__assoc_sub_state*> >::__throw_length_error[abi:ne210000]()
FUNC 689c 1c 0 std::__ndk1::__thread_specific_ptr<std::__ndk1::__thread_struct>::__at_thread_exit(void*)
FUNC 68b8 e 0 std::__ndk1::condition_variable::notify_one()
FUNC 68c6 e 0 std::__ndk1::condition_variable::notify_all()
FUNC 68d4 34 0 std::__ndk1::condition_variable::wait(std::__ndk1::unique_lock<std::__ndk1::mutex>&)
FUNC 6908 94 0 std::__ndk1::condition_variable::__do_timed_wait(std::__ndk1::unique_lock<std::__ndk1::mutex>&, std::__ndk1::chrono::time_point<std::__ndk1::chrono::system_clock, std::__ndk1::chrono::duration<long long, std::__ndk1::ratio<(long long)1, (long long)1000000000> > >)
FUNC 699c 5a 0 std::__ndk1::notify_all_at_thread_exit(std::__ndk1::condition_variable&, std::__ndk1::unique_lock<std::__ndk1::mutex>)
FUNC 69f8 1c 0 std::__ndk1::mutex::lock()
FUNC 6a14 14 0 std::__ndk1::mutex::try_lock()
FUNC 6a28 e 0 std::__ndk1::mutex::unlock()
FUNC 6a38 64 0 std::__ndk1::recursive_mutex::recursive_mutex()
FUNC 6a9c 12 0 std::__ndk1::recursive_mutex::~recursive_mutex()
FUNC 6ab0 1c 0 std::__ndk1::recursive_mutex::lock()
FUNC 6acc e 0 std::__ndk1::recursive_mutex::unlock()
FUNC 6ada 14 0 std::__ndk1::recursive_mutex::try_lock()
FUNC 6aee e 0 std::__ndk1::timed_mutex::timed_mutex()
FUNC 6afc 38 0 std::__ndk1::timed_mutex::~timed_mutex()
FUNC 6b34 64 0 std::__ndk1::timed_mutex::lock()
FUNC 6b98 1c 0 std::__ndk1::unique_lock<std::__ndk1::mutex>::~unique_lock[abi:ne210000]()
FUNC 6bb4 30 0 std::__ndk1::timed_mutex::try_lock()
FUNC 6be4 34 0 std::__ndk1::timed_mutex::unlock()
FUNC 6c18 e 0 std::__ndk1::recursive_timed_mutex::recursive_timed_mutex()
FUNC 6c28 38 0 std::__ndk1::recursive_timed_mutex::~recursive_timed_mutex()
FUNC 6c60 94 0 std::__ndk1::recursive_timed_mutex::lock()
FUNC 6cf4 4c 0 std::__ndk1::recursive_timed_mutex::try_lock()
FUNC 6d40 48 0 std::__ndk1::recursive_timed_mutex::unlock()
FUNC 6d88 12 0 std::__ndk1::condition_variable::~condition_variable()
FUNC 6d9a 12 0 std::__ndk1::mutex::~mutex()
FUNC 6dac 10 0 std::__ndk1::__future_error_category::name() const
FUNC 6dbc f8 0 std::__ndk1::__future_error_category::message(int) const
FUNC 6eb4 40 0 std::__ndk1::future_category()
FUNC 6ef4 68 0 std::__ndk1::future_error::future_error(std::__ndk1::error_code)
FUNC 6f5c c 0 std::__ndk1::future_error::~future_error()
FUNC 6f68 16 0 std::__ndk1::future_error::~future_error()
FUNC 6f7e e 0 std::__ndk1::__assoc_sub_state::__on_zero_shared()
FUNC 6f8c 58 0 std::__ndk1::__assoc_sub_state::set_value()
FUNC 6fe4 74 0 std::__ndk1::__throw_future_error[abi:ne210000](std::__ndk1::future_errc)
FUNC 7058 60 0 std::__ndk1::__assoc_sub_state::set_value_at_thread_exit()
FUNC 70b8 66 0 std::__ndk1::__assoc_sub_state::set_exception(std::exception_ptr)
FUNC 711e 66 0 std::__ndk1::__assoc_sub_state::set_exception_at_thread_exit(std::exception_ptr)
FUNC 7184 2a 0 std::__ndk1::__assoc_sub_state::__make_ready()
FUNC 71ae a2 0 std::__ndk1::__assoc_sub_state::copy()
FUNC 7250 60 0 std::__ndk1::__assoc_sub_state::__sub_wait(std::__ndk1::unique_lock<std::__ndk1::mutex>&)
FUNC 72b0 70 0 std::__ndk1::__assoc_sub_state::wait()
FUNC 7320 a 0 std::__ndk1::__assoc_sub_state::__execute()
FUNC 732a 52 0 std::__ndk1::future<void>::future(std::__ndk1::__assoc_sub_state*)
FUNC 737c 46 0 std::__ndk1::future<void>::~future()
FUNC 73c2 62 0 std::__ndk1::future<void>::get()
FUNC 7424 30 0 std::__ndk1::promise<void>::promise()
FUNC 7454 118 0 std::__ndk1::promise<void>::~promise()
FUNC 756c 14 0 std::__ndk1::promise<void>::get_future()
FUNC 7580 14 0 std::__ndk1::promise<void>::set_value()
FUNC 7594 34 0 std::__ndk1::promise<void>::set_exception(std::exception_ptr)
FUNC 75c8 14 0 std::__ndk1::promise<void>::set_value_at_thread_exit()
FUNC 75dc 34 0 std::__ndk1::promise<void>::set_exception_at_thread_exit(std::exception_ptr)
FUNC 7610 46 0 std::__ndk1::shared_future<void>::~shared_future()
FUNC 7656 56 0 std::__ndk1::shared_future<void>::operator=(std::__ndk1::shared_future<void> const&)
FUNC 76ac 38 0 std::__ndk1::__assoc_sub_state::~__assoc_sub_state()
FUNC 76e4 40 0 std::__ndk1::__assoc_sub_state::~__assoc_sub_state()
FUNC 7724 12 0 std::__ndk1::__future_error_category::~__future_error_category()
FUNC 7736 e 0 _ZZSt18make_exception_ptrB8ne210000INSt6__ndk112future_errorEESt13exception_ptrT_ENUlPvE_8__invokeES4_
FUNC 7744 b0 0 std::__ndk1::__do_message::message(int) const
FUNC 77f4 10 0 std::__ndk1::__generic_error_category::name() const
FUNC 7804 48 0 std::__ndk1::__generic_error_category::message(int) const
FUNC 784c 40 0 std::__ndk1::generic_category()
FUNC 788c 10 0 std::__ndk1::__system_error_category::name() const
FUNC 789c 40 0 std::__ndk1::__system_error_category::message(int) const
FUNC 78dc 24 0 std::__ndk1::__system_error_category::default_error_condition(int) const
FUNC 7900 40 0 std::__ndk1::system_category()
FUNC 7940 12 0 std::__ndk1::error_condition::message() const
FUNC 7952 12 0 std::__ndk1::error_code::message() const
FUNC 7964 b0 0 std::__ndk1::system_error::system_error(std::__ndk1::error_code, std::__ndk1::basic_string<char, std::__ndk1::char_traits<char>, std::__ndk1::allocator<char> > const&)
FUNC 7a14 9c 0 std::__ndk1::(anonymous namespace)::make_error_str(std::__ndk1::error_code const&, std::__ndk1::basic_string<char, std::__ndk1::char_traits<char>, std::__ndk1::allocator<char> >)
FUNC 7ab0 e4 0 std::__ndk1::system_error::system_error(std::__ndk1::error_code, char const*)
FUNC 7b94 78 0 std::__ndk1::system_error::system_error(std::__ndk1::error_code)
FUNC 7c0c b8 0 std::__ndk1::system_error::system_error(int, std::__ndk1::error_category const&, std::__ndk1::basic_string<char, std::__ndk1::char_traits<char>, std::__ndk1::allocator<char> > const&)
FUNC 7cc4 e4 0 std::__ndk1::system_error::system_error(int, std::__ndk1::error_category const&, char const*)
FUNC 7da8 78 0 std::__ndk1::system_error::system_error(int, std::__ndk1::error_category const&)
FUNC 7e20 c 0 std::__ndk1::system_error::~system_error()
FUNC 7e2c 16 0 std::__ndk1::system_error::~system_error()
FUNC 7e44 14 0 std::__ndk1::__throw_system_error(int, char const*)
FUNC 7e58 44 0 std::__ndk1::__throw_system_error[abi:ne210000](std::__ndk1::error_code, char const*)
FUNC 7e9c 6 0 std::__ndk1::__do_message::~__do_message()
FUNC 7ea2 12 0 std::__ndk1::__generic_error_category::~__generic_error_category()
FUNC 7eb4 12 0 std::__ndk1::__system_error_category::~__system_error_category()
FUNC 7ec8 10 0 std::__ndk1::basic_string<char, std::__ndk1::char_traits<char>, std::__ndk1::allocator<char> >::__throw_length_error[abi:ne210000]()
FUNC 7ed8 44 0 std::__ndk1::basic_string<char, std::__ndk1::char_traits<char>, std::__ndk1::allocator<char> >::__init_copy_ctor_external(char const*, unsigned int)
FUNC 7f1c 12 0 __cxa_pure_virtual
FUNC 7f30 40 0 MOZ_ReportCrash
PUBLIC 7f70 0 __aeabi_ldivmod
PUBLIC m 7f94 0 __aeabi_memcpy4
PUBLIC m 7f98 0 __aeabi_memmove4
PUBLIC m 7f9c 0 __aeabi_memset
PUBLIC m 7fac 0 __aeabi_memclr8
PUBLIC 7fb8 0 __aeabi_uldivmod
PUBLIC 7fdd 0 __ThumbV7PILongThunk__ZdlPvj
PUBLIC 7fe9 0 __ThumbV7PILongThunk__ZNSt11logic_errorD2Ev
PUBLIC 7ff5 0 __ThumbV7PILongThunk__ZNSt6__ndk114__shared_countD2Ev
PUBLIC 8001 0 __ThumbV7PILongThunk__ZNSt13runtime_errorD2Ev
PUBLIC 8010 0 <.plt ELF section in TestBoundedMPSCQueue>
STACK CFI INIT 33c4 24 .cfa: sp 0 + .ra: lr
STACK CFI 33c6 .cfa: sp 8 + .ra: .cfa -4 + ^ r7: .cfa -8 + ^
STACK CFI 33c8 .cfa: r7 8 +
STACK CFI INIT 33e8 222 .cfa: sp 0 + .ra: lr
STACK CFI 33ea .cfa: sp 8 + .ra: .cfa -4 + ^ r7: .cfa -8 + ^
STACK CFI 33ec .cfa: r7 8 +
STACK CFI INIT 360c a24 .cfa: sp 0 + .ra: lr
STACK CFI 360e .cfa: sp 20 + .ra: .cfa -4 + ^ r7: .cfa -8 + ^ r6: .cfa -12 + ^ r5: .cfa -16 + ^ r4: .cfa -20 + ^
STACK CFI 3610 .cfa: r7 8 +
STACK CFI 3614 r11: .cfa -24 + ^ r10: .cfa -28 + ^ r9: .cfa -32 + ^ r8: .cfa -36 + ^
STACK CFI INIT 4030 c8 .cfa: sp 0 + .ra: lr
STACK CFI 4032 .cfa: sp 16 + .ra: .cfa -4 + ^ r7: .cfa -8 + ^ r5: .cfa -12 + ^ r4: .cfa -16 + ^
STACK CFI 4034 .cfa: r7 8 +
STACK CFI INIT 40f8 16c .cfa: sp 0 + .ra: lr
STACK CFI 40fa .cfa: sp 20 + .ra: .cfa -4 + ^ r7: .cfa -8 + ^ r6: .cfa -12 + ^ r5: .cfa -16 + ^ r4: .cfa -20 + ^
STACK CFI 40fc .cfa: r7 8 +
STACK CFI 4100 r11: .cfa -24 + ^ r10: .cfa -28 + ^ r9: .cfa -32 + ^ r8: .cfa -36 + ^
STACK CFI INIT 4264 38 .cfa: sp 0 + .ra: lr
STACK CFI 4266 .cfa: sp 16 + .ra: .cfa -4 + ^ r7: .cfa -8 + ^ r5: .cfa -12 + ^ r4: .cfa -16 + ^
STACK CFI 4268 .cfa: r7 8 +
STACK CFI INIT 429c f6 .cfa: sp 0 + .ra: lr
STACK CFI 429e .cfa: sp 20 + .ra: .cfa -4 + ^ r7: .cfa -8 + ^ r6: .cfa -12 + ^ r5: .cfa -16 + ^ r4: .cfa -20 + ^
STACK CFI 42a0 .cfa: r7 8 +
STACK CFI 42a4 r11: .cfa -24 + ^
STACK CFI INIT 4394 150 .cfa: sp 0 + .ra: lr
STACK CFI 4396 .cfa: sp 20 + .ra: .cfa -4 + ^ r7: .cfa -8 + ^ r6: .cfa -12 + ^ r5: .cfa -16 + ^ r4: .cfa -20 + ^
STACK CFI 4398 .cfa: r7 8 +
STACK CFI 439c r11: .cfa -24 + ^ r10: .cfa -28 + ^ r9: .cfa -32 + ^ r8: .cfa -36 + ^
STACK CFI INIT 44e4 d4 .cfa: sp 0 + .ra: lr
STACK CFI 44e6 .cfa: sp 16 + .ra: .cfa -4 + ^ r7: .cfa -8 + ^ r6: .cfa -12 + ^ r4: .cfa -16 + ^
STACK CFI 44e8 .cfa: r7 8 +
STACK CFI INIT 45b8 304 .cfa: sp 0 + .ra: lr
STACK CFI 45ba .cfa: sp 20 + .ra: .cfa -4 + ^ r7: .cfa -8 + ^ r6: .cfa -12 + ^ r5: .cfa -16 + ^ r4: .cfa -20 + ^
STACK CFI 45bc .cfa: r7 8 +
STACK CFI 45c0 r11: .cfa -24 + ^ r10: .cfa -28 + ^ r9: .cfa -32 + ^ r8: .cfa -36 + ^
STACK CFI INIT 48bc 40 .cfa: sp 0 + .ra: lr
STACK CFI 48be .cfa: sp 16 + .ra: .cfa -4 + ^ r7: .cfa -8 + ^ r6: .cfa -12 + ^ r4: .cfa -16 + ^
STACK CFI 48c0 .cfa: r7 8 +
STACK CFI INIT 48fc 3b0 .cfa: sp 0 + .ra: lr
STACK CFI 48fe .cfa: sp 20 + .ra: .cfa -4 + ^ r7: .cfa -8 + ^ r6: .cfa -12 + ^ r5: .cfa -16 + ^ r4: .cfa -20 + ^
STACK CFI 4900 .cfa: r7 8 +
STACK CFI 4904 r11: .cfa -24 + ^ r10: .cfa -28 + ^ r9: .cfa -32 + ^ r8: .cfa -36 + ^
STACK CFI INIT 4cac 2ac .cfa: sp 0 + .ra: lr
STACK CFI 4cae .cfa: sp 20 + .ra: .cfa -4 + ^ r7: .cfa -8 + ^ r6: .cfa -12 + ^ r5: .cfa -16 + ^ r4: .cfa -20 + ^
STACK CFI 4cb0 .cfa: r7 8 +
STACK CFI 4cb4 r8: .cfa -24 + ^
STACK CFI INIT 4f58 17a .cfa: sp 0 + .ra: lr
STACK CFI 4f5a .cfa: sp 20 + .ra: .cfa -4 + ^ r7: .cfa -8 + ^ r6: .cfa -12 + ^ r5: .cfa -16 + ^ r4: .cfa -20 + ^
STACK CFI 4f5c .cfa: r7 8 +
STACK CFI 4f60 r11: .cfa -24 + ^ r10: .cfa -28 + ^ r9: .cfa -32 + ^ r8: .cfa -36 + ^
STACK CFI INIT 50d2 184 .cfa: sp 0 + .ra: lr
STACK CFI 50d4 .cfa: sp 20 + .ra: .cfa -4 + ^ r7: .cfa -8 + ^ r6: .cfa -12 + ^ r5: .cfa -16 + ^ r4: .cfa -20 + ^
STACK CFI 50d6 .cfa: r7 8 +
STACK CFI 50da r11: .cfa -24 + ^ r10: .cfa -28 + ^ r9: .cfa -32 + ^ r8: .cfa -36 + ^
STACK CFI INIT 5256 13c .cfa: sp 0 + .ra: lr
STACK CFI 5258 .cfa: sp 20 + .ra: .cfa -4 + ^ r7: .cfa -8 + ^ r6: .cfa -12 + ^ r5: .cfa -16 + ^ r4: .cfa -20 + ^
STACK CFI 525a .cfa: r7 8 +
STACK CFI 525e r11: .cfa -24 + ^ r10: .cfa -28 + ^ r9: .cfa -32 + ^ r8: .cfa -36 + ^
STACK CFI INIT 5394 1c0 .cfa: sp 0 + .ra: lr
STACK CFI 5396 .cfa: sp 20 + .ra: .cfa -4 + ^ r7: .cfa -8 + ^ r6: .cfa -12 + ^ r5: .cfa -16 + ^ r4: .cfa -20 + ^
STACK CFI 5398 .cfa: r7 8 +
STACK CFI 539c r11: .cfa -24 + ^ r10: .cfa -28 + ^ r9: .cfa -32 + ^ r8: .cfa -36 + ^
STACK CFI INIT 5554 190 .cfa: sp 0 + .ra: lr
STACK CFI 5556 .cfa: sp 20 + .ra: .cfa -4 + ^ r7: .cfa -8 + ^ r6: .cfa -12 + ^ r5: .cfa -16 + ^ r4: .cfa -20 + ^
STACK CFI 5558 .cfa: r7 8 +
STACK CFI 555c r11: .cfa -24 + ^ r10: .cfa -28 + ^ r9: .cfa -32 + ^ r8: .cfa -36 + ^
STACK CFI INIT 56e4 19a .cfa: sp 0 + .ra: lr
STACK CFI 56e6 .cfa: sp 20 + .ra: .cfa -4 + ^ r7: .cfa -8 + ^ r6: .cfa -12 + ^ r5: .cfa -16 + ^ r4: .cfa -20 + ^
STACK CFI 56e8 .cfa: r7 8 +
STACK CFI 56ec r11: .cfa -24 + ^ r10: .cfa -28 + ^ r9: .cfa -32 + ^ r8: .cfa -36 + ^
STACK CFI INIT 587e ba .cfa: sp 0 + .ra: lr
STACK CFI 5880 .cfa: sp 20 + .ra: .cfa -4 + ^ r7: .cfa -8 + ^ r6: .cfa -12 + ^ r5: .cfa -16 + ^ r4: .cfa -20 + ^
STACK CFI 5882 .cfa: r7 8 +
STACK CFI 5886 r11: .cfa -24 + ^
STACK CFI INIT 5938 280 .cfa: sp 0 + .ra: lr
STACK CFI 593a .cfa: sp 20 + .ra: .cfa -4 + ^ r7: .cfa -8 + ^ r6: .cfa -12 + ^ r5: .cfa -16 + ^ r4: .cfa -20 + ^
STACK CFI 593c .cfa: r7 8 +
STACK CFI 5940 r11: .cfa -24 + ^ r10: .cfa -28 + ^ r9: .cfa -32 + ^ r8: .cfa -36 + ^
STACK CFI INIT 5bb8 11a .cfa: sp 0 + .ra: lr
STACK CFI 5bba .cfa: sp 20 + .ra: .cfa -4 + ^ r7: .cfa -8 + ^ r6: .cfa -12 + ^ r5: .cfa -16 + ^ r4: .cfa -20 + ^
STACK CFI 5bbc .cfa: r7 8 +
STACK CFI 5bc0 r11: .cfa -24 + ^ r10: .cfa -28 + ^ r9: .cfa -32 + ^ r8: .cfa -36 + ^
STACK CFI INIT 5cd4 280 .cfa: sp 0 + .ra: lr
STACK CFI 5cd6 .cfa: sp 20 + .ra: .cfa -4 + ^ r7: .cfa -8 + ^ r6: .cfa -12 + ^ r5: .cfa -16 + ^ r4: .cfa -20 + ^
STACK CFI 5cd8 .cfa: r7 8 +
STACK CFI 5cdc r11: .cfa -24 + ^ r10: .cfa -28 + ^ r9: .cfa -32 + ^ r8: .cfa -36 + ^
STACK CFI INIT 5f54 15a .cfa: sp 0 + .ra: lr
STACK CFI 5f56 .cfa: sp 20 + .ra: .cfa -4 + ^ r7: .cfa -8 + ^ r6: .cfa -12 + ^ r5: .cfa -16 + ^ r4: .cfa -20 + ^
STACK CFI 5f58 .cfa: r7 8 +
STACK CFI 5f5c r11: .cfa -24 + ^ r10: .cfa -28 + ^ r9: .cfa -32 + ^ r8: .cfa -36 + ^
STACK CFI INIT 60b0 140 .cfa: sp 0 + .ra: lr
STACK CFI 60b2 .cfa: sp 20 + .ra: .cfa -4 + ^ r7: .cfa -8 + ^ r6: .cfa -12 + ^ r5: .cfa -16 + ^ r4: .cfa -20 + ^
STACK CFI 60b4 .cfa: r7 8 +
STACK CFI 60b8 r11: .cfa -24 + ^ r10: .cfa -28 + ^ r9: .cfa -32 + ^ r8: .cfa -36 + ^
STACK CFI INIT 61f0 178 .cfa: sp 0 + .ra: lr
STACK CFI 61f2 .cfa: sp 20 + .ra: .cfa -4 + ^ r7: .cfa -8 + ^ r6: .cfa -12 + ^ r5: .cfa -16 + ^ r4: .cfa -20 + ^
STACK CFI 61f4 .cfa: r7 8 +
STACK CFI 61f8 r11: .cfa -24 + ^ r10: .cfa -28 + ^ r9: .cfa -32 + ^ r8: .cfa -36 + ^
STACK CFI INIT 6368 10 .cfa: sp 0 + .ra: lr
STACK CFI 6372 .cfa: sp 8 + .ra: .cfa -4 + ^ r7: .cfa -8 + ^
STACK CFI 6374 .cfa: r7 8 +
STACK CFI INIT 6378 c .cfa: sp 0 + .ra: lr
STACK CFI 637a .cfa: sp 8 + .ra: .cfa -4 + ^ r7: .cfa -8 + ^
STACK CFI 637c .cfa: r7 8 +
STACK CFI INIT 6384 2c .cfa: sp 0 + .ra: lr
STACK CFI 6386 .cfa: sp 16 + .ra: .cfa -4 + ^ r7: .cfa -8 + ^ r5: .cfa -12 + ^ r4: .cfa -16 + ^
STACK CFI 6388 .cfa: r7 8 +
STACK CFI INIT 63b0 28 .cfa: sp 0 + .ra: lr
STACK CFI 63b2 .cfa: sp 16 + .ra: .cfa -4 + ^ r7: .cfa -8 + ^ r6: .cfa -12 + ^ r4: .cfa -16 + ^
STACK CFI 63b4 .cfa: r7 8 +
STACK CFI INIT 63d8 14 .cfa: sp 0 + .ra: lr
STACK CFI 63da .cfa: sp 8 + .ra: .cfa -4 + ^ r7: .cfa -8 + ^
STACK CFI 63dc .cfa: r7 8 +
STACK CFI INIT 63ec 6c .cfa: sp 0 + .ra: lr
STACK CFI 63ee .cfa: sp 16 + .ra: .cfa -4 + ^ r7: .cfa -8 + ^ r5: .cfa -12 + ^ r4: .cfa -16 + ^
STACK CFI 63f0 .cfa: r7 8 +
STACK CFI INIT 6458 64 .cfa: sp 0 + .ra: lr
STACK CFI 645a .cfa: sp 16 + .ra: .cfa -4 + ^ r7: .cfa -8 + ^ r6: .cfa -12 + ^ r4: .cfa -16 + ^
STACK CFI 645c .cfa: r7 8 +
STACK CFI INIT 64bc 28 .cfa: sp 0 + .ra: lr
STACK CFI 64be .cfa: sp 16 + .ra: .cfa -4 + ^ r7: .cfa -8 + ^ r6: .cfa -12 + ^ r4: .cfa -16 + ^
STACK CFI 64c0 .cfa: r7 8 +
STACK CFI INIT 64e4 88 .cfa: sp 0 + .ra: lr
STACK CFI 64e6 .cfa: sp 20 + .ra: .cfa -4 + ^ r7: .cfa -8 + ^ r6: .cfa -12 + ^ r5: .cfa -16 + ^ r4: .cfa -20 + ^
STACK CFI 64e8 .cfa: r7 8 +
STACK CFI 64ec r8: .cfa -24 + ^
STACK CFI INIT 656c 9c .cfa: sp 0 + .ra: lr
STACK CFI 656e .cfa: sp 20 + .ra: .cfa -4 + ^ r7: .cfa -8 + ^ r6: .cfa -12 + ^ r5: .cfa -16 + ^ r4: .cfa -20 + ^
STACK CFI 6570 .cfa: r7 8 +
STACK CFI 6574 r11: .cfa -24 + ^ r10: .cfa -28 + ^ r9: .cfa -32 + ^ r8: .cfa -36 + ^
STACK CFI INIT 6608 a2 .cfa: sp 0 + .ra: lr
STACK CFI 660a .cfa: sp 20 + .ra: .cfa -4 + ^ r7: .cfa -8 + ^ r6: .cfa -12 + ^ r5: .cfa -16 + ^ r4: .cfa -20 + ^
STACK CFI 660c .cfa: r7 8 +
STACK CFI 6610 r11: .cfa -24 + ^ r10: .cfa -28 + ^ r9: .cfa -32 + ^ r8: .cfa -36 + ^
STACK CFI INIT 66aa 20 .cfa: sp 0 + .ra: lr
STACK CFI 66ac .cfa: sp 16 + .ra: .cfa -4 + ^ r7: .cfa -8 + ^ r6: .cfa -12 + ^ r4: .cfa -16 + ^
STACK CFI 66ae .cfa: r7 8 +
STACK CFI INIT 66ca 20 .cfa: sp 0 + .ra: lr
STACK CFI 66d2 .cfa: sp 16 + .ra: .cfa -4 + ^ r7: .cfa -8 + ^ r6: .cfa -12 + ^ r4: .cfa -16 + ^
STACK CFI 66d4 .cfa: r7 8 +
STACK CFI INIT 66ea 9e .cfa: sp 0 + .ra: lr
STACK CFI 66ec .cfa: sp 20 + .ra: .cfa -4 + ^ r7: .cfa -8 + ^ r6: .cfa -12 + ^ r5: .cfa -16 + ^ r4: .cfa -20 + ^
STACK CFI 66ee .cfa: r7 8 +
STACK CFI 66f2 r11: .cfa -24 + ^ r10: .cfa -28 + ^ r9: .cfa -32 + ^ r8: .cfa -36 + ^
STACK CFI INIT 6788 a2 .cfa: sp 0 + .ra: lr
STACK CFI 678a .cfa: sp 20 + .ra: .cfa -4 + ^ r7: .cfa -8 + ^ r6: .cfa -12 + ^ r5: .cfa -16 + ^ r4: .cfa -20 + ^
STACK CFI 678c .cfa: r7 8 +
STACK CFI 6790 r11: .cfa -24 + ^ r10: .cfa -28 + ^ r9: .cfa -32 + ^ r8: .cfa -36 + ^
STACK CFI INIT 682c 10 .cfa: sp 0 + .ra: lr
STACK CFI 682e .cfa: sp 8 + .ra: .cfa -4 + ^ r7: .cfa -8 + ^
STACK CFI 6830 .cfa: r7 8 +
STACK CFI INIT 683c 38 .cfa: sp 0 + .ra: lr
STACK CFI 683e .cfa: sp 16 + .ra: .cfa -4 + ^ r7: .cfa -8 + ^ r5: .cfa -12 + ^ r4: .cfa -16 + ^
STACK CFI 6840 .cfa: r7 8 +
STACK CFI INIT 6874 18 .cfa: sp 0 + .ra: lr
STACK CFI 6876 .cfa: sp 8 + .ra: .cfa -4 + ^ r7: .cfa -8 + ^
STACK CFI 6878 .cfa: r7 8 +
STACK CFI INIT 688c 10 .cfa: sp 0 + .ra: lr
STACK CFI 688e .cfa: sp 8 + .ra: .cfa -4 + ^ r7: .cfa -8 + ^
STACK CFI 6890 .cfa: r7 8 +
STACK CFI INIT 689c 1c .cfa: sp 0 + .ra: lr
STACK CFI 68a4 .cfa: sp 16 + .ra: .cfa -4 + ^ r7: .cfa -8 + ^ r6: .cfa -12 + ^ r4: .cfa -16 + ^
STACK CFI 68a6 .cfa: r7 8 +
STACK CFI INIT 68b8 e .cfa: sp 0 + .ra: lr
STACK CFI 68ba .cfa: sp 8 + .ra: .cfa -4 + ^ r7: .cfa -8 + ^
STACK CFI 68bc .cfa: r7 8 +
STACK CFI INIT 0 c .cfa: sp 0 + .ra: lr
STACK CFI 2 .cfa: sp 8 + .ra: .cfa -4 + ^ r7: .cfa -8 + ^
STACK CFI 4 .cfa: r7 8 +
STACK CFI INIT 68c6 e .cfa: sp 0 + .ra: lr
STACK CFI 68c8 .cfa: sp 8 + .ra: .cfa -4 + ^ r7: .cfa -8 + ^
STACK CFI 68ca .cfa: r7 8 +
STACK CFI INIT 68d4 34 .cfa: sp 0 + .ra: lr
STACK CFI 68d6 .cfa: sp 8 + .ra: .cfa -4 + ^ r7: .cfa -8 + ^
STACK CFI 68d8 .cfa: r7 8 +
STACK CFI INIT 6908 94 .cfa: sp 0 + .ra: lr
STACK CFI 690a .cfa: sp 20 + .ra: .cfa -4 + ^ r7: .cfa -8 + ^ r6: .cfa -12 + ^ r5: .cfa -16 + ^ r4: .cfa -20 + ^
STACK CFI 690c .cfa: r7 8 +
STACK CFI 6910 r8: .cfa -24 + ^
STACK CFI INIT 699c 5a .cfa: sp 0 + .ra: lr
STACK CFI 699e .cfa: sp 20 + .ra: .cfa -4 + ^ r7: .cfa -8 + ^ r6: .cfa -12 + ^ r5: .cfa -16 + ^ r4: .cfa -20 + ^
STACK CFI 69a0 .cfa: r7 8 +
STACK CFI 69a4 r8: .cfa -24 + ^
STACK CFI INIT 69f8 1c .cfa: sp 0 + .ra: lr
STACK CFI 69fa .cfa: sp 8 + .ra: .cfa -4 + ^ r7: .cfa -8 + ^
STACK CFI 69fc .cfa: r7 8 +
STACK CFI INIT 6a14 14 .cfa: sp 0 + .ra: lr
STACK CFI 6a16 .cfa: sp 8 + .ra: .cfa -4 + ^ r7: .cfa -8 + ^
STACK CFI 6a18 .cfa: r7 8 +
STACK CFI INIT 0 c .cfa: sp 0 + .ra: lr
STACK CFI 2 .cfa: sp 8 + .ra: .cfa -4 + ^ r7: .cfa -8 + ^
STACK CFI 4 .cfa: r7 8 +
STACK CFI INIT 6a28 e .cfa: sp 0 + .ra: lr
STACK CFI 6a2a .cfa: sp 8 + .ra: .cfa -4 + ^ r7: .cfa -8 + ^
STACK CFI 6a2c .cfa: r7 8 +
STACK CFI INIT 6a38 64 .cfa: sp 0 + .ra: lr
STACK CFI 6a3a .cfa: sp 20 + .ra: .cfa -4 + ^ r7: .cfa -8 + ^ r6: .cfa -12 + ^ r5: .cfa -16 + ^ r4: .cfa -20 + ^
STACK CFI 6a3c .cfa: r7 8 +
STACK CFI 6a40 r11: .cfa -24 + ^
STACK CFI INIT 6a9c 12 .cfa: sp 0 + .ra: lr
STACK CFI 6a9e .cfa: sp 16 + .ra: .cfa -4 + ^ r7: .cfa -8 + ^ r6: .cfa -12 + ^ r4: .cfa -16 + ^
STACK CFI 6aa0 .cfa: r7 8 +
STACK CFI INIT 6ab0 1c .cfa: sp 0 + .ra: lr
STACK CFI 6ab2 .cfa: sp 8 + .ra: .cfa -4 + ^ r7: .cfa -8 + ^
STACK CFI 6ab4 .cfa: r7 8 +
STACK CFI INIT 6acc e .cfa: sp 0 + .ra: lr
STACK CFI 6ace .cfa: sp 8 + .ra: .cfa -4 + ^ r7: .cfa -8 + ^
STACK CFI 6ad0 .cfa: r7 8 +
STACK CFI INIT 6ada 14 .cfa: sp 0 + .ra: lr
STACK CFI 6adc .cfa: sp 8 + .ra: .cfa -4 + ^ r7: .cfa -8 + ^
STACK CFI 6ade .cfa: r7 8 +
STACK CFI INIT 6aee e .cfa: sp 0 + .ra: lr
STACK CFI 6af0 .cfa: sp 8 + .ra: .cfa -4 + ^ r7: .cfa -8 + ^
STACK CFI 6af2 .cfa: r7 8 +
STACK CFI INIT 6afc 38 .cfa: sp 0 + .ra: lr
STACK CFI 6afe .cfa: sp 16 + .ra: .cfa -4 + ^ r7: .cfa -8 + ^ r6: .cfa -12 + ^ r4: .cfa -16 + ^
STACK CFI 6b00 .cfa: r7 8 +
STACK CFI INIT 6b34 64 .cfa: sp 0 + .ra: lr
STACK CFI 6b36 .cfa: sp 20 + .ra: .cfa -4 + ^ r7: .cfa -8 + ^ r6: .cfa -12 + ^ r5: .cfa -16 + ^ r4: .cfa -20 + ^
STACK CFI 6b38 .cfa: r7 8 +
STACK CFI 6b3c r11: .cfa -24 + ^
STACK CFI INIT 6b98 1c .cfa: sp 0 + .ra: lr
STACK CFI 6b9a .cfa: sp 16 + .ra: .cfa -4 + ^ r7: .cfa -8 + ^ r6: .cfa -12 + ^ r4: .cfa -16 + ^
STACK CFI 6b9c .cfa: r7 8 +
STACK CFI INIT 6bb4 30 .cfa: sp 0 + .ra: lr
STACK CFI 6bb6 .cfa: sp 16 + .ra: .cfa -4 + ^ r7: .cfa -8 + ^ r5: .cfa -12 + ^ r4: .cfa -16 + ^
STACK CFI 6bb8 .cfa: r7 8 +
STACK CFI INIT 6be4 34 .cfa: sp 0 + .ra: lr
STACK CFI 6be6 .cfa: sp 16 + .ra: .cfa -4 + ^ r7: .cfa -8 + ^ r6: .cfa -12 + ^ r4: .cfa -16 + ^
STACK CFI 6be8 .cfa: r7 8 +
STACK CFI INIT 6c18 e .cfa: sp 0 + .ra: lr
STACK CFI 6c1a .cfa: sp 8 + .ra: .cfa -4 + ^ r7: .cfa -8 + ^
STACK CFI 6c1c .cfa: r7 8 +
STACK CFI INIT 6c28 38 .cfa: sp 0 + .ra: lr
STACK CFI 6c2a .cfa: sp 16 + .ra: .cfa -4 + ^ r7: .cfa -8 + ^ r6: .cfa -12 + ^ r4: .cfa -16 + ^
STACK CFI 6c2c .cfa: r7 8 +
STACK CFI INIT 6c60 94 .cfa: sp 0 + .ra: lr
STACK CFI 6c62 .cfa: sp 20 + .ra: .cfa -4 + ^ r7: .cfa -8 + ^ r6: .cfa -12 + ^ r5: .cfa -16 + ^ r4: .cfa -20 + ^
STACK CFI 6c64 .cfa: r7 8 +
STACK CFI 6c68 r8: .cfa -24 + ^
STACK CFI INIT 6cf4 4c .cfa: sp 0 + .ra: lr
STACK CFI 6cf6 .cfa: sp 20 + .ra: .cfa -4 + ^ r7: .cfa -8 + ^ r6: .cfa -12 + ^ r5: .cfa -16 + ^ r4: .cfa -20 + ^
STACK CFI 6cf8 .cfa: r7 8 +
STACK CFI 6cfc r11: .cfa -24 + ^
STACK CFI INIT 6d40 48 .cfa: sp 0 + .ra: lr
STACK CFI 6d42 .cfa: sp 16 + .ra: .cfa -4 + ^ r7: .cfa -8 + ^ r6: .cfa -12 + ^ r4: .cfa -16 + ^
STACK CFI 6d44 .cfa: r7 8 +
STACK CFI INIT 6d88 12 .cfa: sp 0 + .ra: lr
STACK CFI 6d8a .cfa: sp 16 + .ra: .cfa -4 + ^ r7: .cfa -8 + ^ r6: .cfa -12 + ^ r4: .cfa -16 + ^
STACK CFI 6d8c .cfa: r7 8 +
STACK CFI INIT 0 c .cfa: sp 0 + .ra: lr
STACK CFI 2 .cfa: sp 8 + .ra: .cfa -4 + ^ r7: .cfa -8 + ^
STACK CFI 4 .cfa: r7 8 +
STACK CFI INIT 6d9a 12 .cfa: sp 0 + .ra: lr
STACK CFI 6d9c .cfa: sp 16 + .ra: .cfa -4 + ^ r7: .cfa -8 + ^ r6: .cfa -12 + ^ r4: .cfa -16 + ^
STACK CFI 6d9e .cfa: r7 8 +
STACK CFI INIT 0 c .cfa: sp 0 + .ra: lr
STACK CFI 2 .cfa: sp 8 + .ra: .cfa -4 + ^ r7: .cfa -8 + ^
STACK CFI 4 .cfa: r7 8 +
STACK CFI INIT 6dac 10 .cfa: sp 0 + .ra: lr
STACK CFI 6dae .cfa: sp 8 + .ra: .cfa -4 + ^ r7: .cfa -8 + ^
STACK CFI 6db0 .cfa: r7 8 +
STACK CFI INIT 6dbc f8 .cfa: sp 0 + .ra: lr
STACK CFI 6dbe .cfa: sp 16 + .ra: .cfa -4 + ^ r7: .cfa -8 + ^ r5: .cfa -12 + ^ r4: .cfa -16 + ^
STACK CFI 6dc0 .cfa: r7 8 +
STACK CFI INIT 6eb4 40 .cfa: sp 0 + .ra: lr
STACK CFI 6eb6 .cfa: sp 8 + .ra: .cfa -4 + ^ r7: .cfa -8 + ^
STACK CFI 6eb8 .cfa: r7 8 +
STACK CFI INIT 6ef4 68 .cfa: sp 0 + .ra: lr
STACK CFI 6ef6 .cfa: sp 16 + .ra: .cfa -4 + ^ r7: .cfa -8 + ^ r5: .cfa -12 + ^ r4: .cfa -16 + ^
STACK CFI 6ef8 .cfa: r7 8 +
STACK CFI INIT 6f5c c .cfa: sp 0 + .ra: lr
STACK CFI 6f5e .cfa: sp 8 + .ra: .cfa -4 + ^ r7: .cfa -8 + ^
STACK CFI 6f60 .cfa: r7 8 +
STACK CFI INIT 6f68 16 .cfa: sp 0 + .ra: lr
STACK CFI 6f6a .cfa: sp 16 + .ra: .cfa -4 + ^ r7: .cfa -8 + ^ r6: .cfa -12 + ^ r4: .cfa -16 + ^
STACK CFI 6f6c .cfa: r7 8 +
STACK CFI INIT 6f7e e .cfa: sp 0 + .ra: lr
STACK CFI 6f80 .cfa: sp 8 + .ra: .cfa -4 + ^ r7: .cfa -8 + ^
STACK CFI 6f82 .cfa: r7 8 +
STACK CFI INIT 6f8c 58 .cfa: sp 0 + .ra: lr
STACK CFI 6f8e .cfa: sp 20 + .ra: .cfa -4 + ^ r7: .cfa -8 + ^ r6: .cfa -12 + ^ r5: .cfa -16 + ^ r4: .cfa -20 + ^
STACK CFI 6f90 .cfa: r7 8 +
STACK CFI 6f94 r11: .cfa -24 + ^
STACK CFI INIT 6fe4 74 .cfa: sp 0 + .ra: lr
STACK CFI 6fe6 .cfa: sp 16 + .ra: .cfa -4 + ^ r7: .cfa -8 + ^ r5: .cfa -12 + ^ r4: .cfa -16 + ^
STACK CFI 6fe8 .cfa: r7 8 +
STACK CFI INIT 7058 60 .cfa: sp 0 + .ra: lr
STACK CFI 705a .cfa: sp 20 + .ra: .cfa -4 + ^ r7: .cfa -8 + ^ r6: .cfa -12 + ^ r5: .cfa -16 + ^ r4: .cfa -20 + ^
STACK CFI 705c .cfa: r7 8 +
STACK CFI 7060 r11: .cfa -24 + ^
STACK CFI INIT 70b8 66 .cfa: sp 0 + .ra: lr
STACK CFI 70ba .cfa: sp 20 + .ra: .cfa -4 + ^ r7: .cfa -8 + ^ r6: .cfa -12 + ^ r5: .cfa -16 + ^ r4: .cfa -20 + ^
STACK CFI 70bc .cfa: r7 8 +
STACK CFI 70c0 r11: .cfa -24 + ^ r9: .cfa -28 + ^ r8: .cfa -32 + ^
STACK CFI INIT 711e 66 .cfa: sp 0 + .ra: lr
STACK CFI 7120 .cfa: sp 20 + .ra: .cfa -4 + ^ r7: .cfa -8 + ^ r6: .cfa -12 + ^ r5: .cfa -16 + ^ r4: .cfa -20 + ^
STACK CFI 7122 .cfa: r7 8 +
STACK CFI 7126 r11: .cfa -24 + ^ r9: .cfa -28 + ^ r8: .cfa -32 + ^
STACK CFI INIT 7184 2a .cfa: sp 0 + .ra: lr
STACK CFI 7186 .cfa: sp 16 + .ra: .cfa -4 + ^ r7: .cfa -8 + ^ r5: .cfa -12 + ^ r4: .cfa -16 + ^
STACK CFI 7188 .cfa: r7 8 +
STACK CFI INIT 71ae a2 .cfa: sp 0 + .ra: lr
STACK CFI 71b0 .cfa: sp 20 + .ra: .cfa -4 + ^ r7: .cfa -8 + ^ r6: .cfa -12 + ^ r5: .cfa -16 + ^ r4: .cfa -20 + ^
STACK CFI 71b2 .cfa: r7 8 +
STACK CFI 71b6 r11: .cfa -24 + ^
STACK CFI INIT 7250 60 .cfa: sp 0 + .ra: lr
STACK CFI 7252 .cfa: sp 20 + .ra: .cfa -4 + ^ r7: .cfa -8 + ^ r6: .cfa -12 + ^ r5: .cfa -16 + ^ r4: .cfa -20 + ^
STACK CFI 7254 .cfa: r7 8 +
STACK CFI 7258 r11: .cfa -24 + ^
STACK CFI INIT 72b0 70 .cfa: sp 0 + .ra: lr
STACK CFI 72b2 .cfa: sp 20 + .ra: .cfa -4 + ^ r7: .cfa -8 + ^ r6: .cfa -12 + ^ r5: .cfa -16 + ^ r4: .cfa -20 + ^
STACK CFI 72b4 .cfa: r7 8 +
STACK CFI 72b8 r11: .cfa -24 + ^
STACK CFI INIT 7320 a .cfa: sp 0 + .ra: lr
STACK CFI 7322 .cfa: sp 8 + .ra: .cfa -4 + ^ r7: .cfa -8 + ^
STACK CFI 7324 .cfa: r7 8 +
STACK CFI INIT 732a 52 .cfa: sp 0 + .ra: lr
STACK CFI 732c .cfa: sp 20 + .ra: .cfa -4 + ^ r7: .cfa -8 + ^ r6: .cfa -12 + ^ r5: .cfa -16 + ^ r4: .cfa -20 + ^
STACK CFI 732e .cfa: r7 8 +
STACK CFI 7332 r11: .cfa -24 + ^
STACK CFI INIT 737c 46 .cfa: sp 0 + .ra: lr
STACK CFI 738a .cfa: sp 16 + .ra: .cfa -4 + ^ r7: .cfa -8 + ^ r6: .cfa -12 + ^ r4: .cfa -16 + ^
STACK CFI 738c .cfa: r7 8 +
STACK CFI INIT 73c2 62 .cfa: sp 0 + .ra: lr
STACK CFI 73c4 .cfa: sp 16 + .ra: .cfa -4 + ^ r7: .cfa -8 + ^ r6: .cfa -12 + ^ r4: .cfa -16 + ^
STACK CFI 73c6 .cfa: r7 8 +
STACK CFI INIT 7424 30 .cfa: sp 0 + .ra: lr
STACK CFI 7426 .cfa: sp 16 + .ra: .cfa -4 + ^ r7: .cfa -8 + ^ r6: .cfa -12 + ^ r4: .cfa -16 + ^
STACK CFI 7428 .cfa: r7 8 +
STACK CFI INIT 7454 118 .cfa: sp 0 + .ra: lr
STACK CFI 7456 .cfa: sp 20 + .ra: .cfa -4 + ^ r7: .cfa -8 + ^ r6: .cfa -12 + ^ r5: .cfa -16 + ^ r4: .cfa -20 + ^
STACK CFI 7458 .cfa: r7 8 +
STACK CFI 745c r8: .cfa -24 + ^
STACK CFI INIT 0 c .cfa: sp 0 + .ra: lr
STACK CFI 2 .cfa: sp 8 + .ra: .cfa -4 + ^ r7: .cfa -8 + ^
STACK CFI 4 .cfa: r7 8 +
STACK CFI INIT 756c 14 .cfa: sp 0 + .ra: lr
STACK CFI 756e .cfa: sp 8 + .ra: .cfa -4 + ^ r7: .cfa -8 + ^
STACK CFI 7570 .cfa: r7 8 +
STACK CFI INIT 7580 14 .cfa: sp 0 + .ra: lr
STACK CFI 758c .cfa: sp 8 + .ra: .cfa -4 + ^ r7: .cfa -8 + ^
STACK CFI 758e .cfa: r7 8 +
STACK CFI INIT 7594 34 .cfa: sp 0 + .ra: lr
STACK CFI 7596 .cfa: sp 16 + .ra: .cfa -4 + ^ r7: .cfa -8 + ^ r5: .cfa -12 + ^ r4: .cfa -16 + ^
STACK CFI 7598 .cfa: r7 8 +
STACK CFI INIT 75c8 14 .cfa: sp 0 + .ra: lr
STACK CFI 75d4 .cfa: sp 8 + .ra: .cfa -4 + ^ r7: .cfa -8 + ^
STACK CFI 75d6 .cfa: r7 8 +
STACK CFI INIT 75dc 34 .cfa: sp 0 + .ra: lr
STACK CFI 75de .cfa: sp 16 + .ra: .cfa -4 + ^ r7: .cfa -8 + ^ r5: .cfa -12 + ^ r4: .cfa -16 + ^
STACK CFI 75e0 .cfa: r7 8 +
STACK CFI INIT 7610 46 .cfa: sp 0 + .ra: lr
STACK CFI 761e .cfa: sp 16 + .ra: .cfa -4 + ^ r7: .cfa -8 + ^ r6: .cfa -12 + ^ r4: .cfa -16 + ^
STACK CFI 7620 .cfa: r7 8 +
STACK CFI INIT 7656 56 .cfa: sp 0 + .ra: lr
STACK CFI 7658 .cfa: sp 16 + .ra: .cfa -4 + ^ r7: .cfa -8 + ^ r5: .cfa -12 + ^ r4: .cfa -16 + ^
STACK CFI 765a .cfa: r7 8 +
STACK CFI INIT 76ac 38 .cfa: sp 0 + .ra: lr
STACK CFI 76ae .cfa: sp 16 + .ra: .cfa -4 + ^ r7: .cfa -8 + ^ r5: .cfa -12 + ^ r4: .cfa -16 + ^
STACK CFI 76b0 .cfa: r7 8 +
STACK CFI INIT 76e4 40 .cfa: sp 0 + .ra: lr
STACK CFI 76e6 .cfa: sp 16 + .ra: .cfa -4 + ^ r7: .cfa -8 + ^ r5: .cfa -12 + ^ r4: .cfa -16 + ^
STACK CFI 76e8 .cfa: r7 8 +
STACK CFI INIT 7724 12 .cfa: sp 0 + .ra: lr
STACK CFI 7726 .cfa: sp 8 + .ra: .cfa -4 + ^ r7: .cfa -8 + ^
STACK CFI 7728 .cfa: r7 8 +
STACK CFI INIT 7736 e .cfa: sp 0 + .ra: lr
STACK CFI 7738 .cfa: sp 8 + .ra: .cfa -4 + ^ r7: .cfa -8 + ^
STACK CFI 773a .cfa: r7 8 +
STACK CFI INIT 7744 b0 .cfa: sp 0 + .ra: lr
STACK CFI 7746 .cfa: sp 20 + .ra: .cfa -4 + ^ r7: .cfa -8 + ^ r6: .cfa -12 + ^ r5: .cfa -16 + ^ r4: .cfa -20 + ^
STACK CFI 7748 .cfa: r7 8 +
STACK CFI 774c r10: .cfa -24 + ^ r9: .cfa -28 + ^ r8: .cfa -32 + ^
STACK CFI INIT 77f4 10 .cfa: sp 0 + .ra: lr
STACK CFI 77f6 .cfa: sp 8 + .ra: .cfa -4 + ^ r7: .cfa -8 + ^
STACK CFI 77f8 .cfa: r7 8 +
STACK CFI INIT 7804 48 .cfa: sp 0 + .ra: lr
STACK CFI 7810 .cfa: sp 16 + .ra: .cfa -4 + ^ r7: .cfa -8 + ^ r6: .cfa -12 + ^ r4: .cfa -16 + ^
STACK CFI 7812 .cfa: r7 8 +
STACK CFI INIT 784c 40 .cfa: sp 0 + .ra: lr
STACK CFI 784e .cfa: sp 8 + .ra: .cfa -4 + ^ r7: .cfa -8 + ^
STACK CFI 7850 .cfa: r7 8 +
STACK CFI INIT 788c 10 .cfa: sp 0 + .ra: lr
STACK CFI 788e .cfa: sp 8 + .ra: .cfa -4 + ^ r7: .cfa -8 + ^
STACK CFI 7890 .cfa: r7 8 +
STACK CFI INIT 789c 40 .cfa: sp 0 + .ra: lr
STACK CFI 78a8 .cfa: sp 16 + .ra: .cfa -4 + ^ r7: .cfa -8 + ^ r6: .cfa -12 + ^ r4: .cfa -16 + ^
STACK CFI 78aa .cfa: r7 8 +
STACK CFI INIT 78dc 24 .cfa: sp 0 + .ra: lr
STACK CFI 78de .cfa: sp 8 + .ra: .cfa -4 + ^ r7: .cfa -8 + ^
STACK CFI 78e0 .cfa: r7 8 +
STACK CFI INIT 7900 40 .cfa: sp 0 + .ra: lr
STACK CFI 7902 .cfa: sp 8 + .ra: .cfa -4 + ^ r7: .cfa -8 + ^
STACK CFI 7904 .cfa: r7 8 +
STACK CFI INIT 7940 12 .cfa: sp 0 + .ra: lr
STACK CFI 7942 .cfa: sp 8 + .ra: .cfa -4 + ^ r7: .cfa -8 + ^
STACK CFI 7944 .cfa: r7 8 +
STACK CFI INIT 7952 12 .cfa: sp 0 + .ra: lr
STACK CFI 7954 .cfa: sp 8 + .ra: .cfa -4 + ^ r7: .cfa -8 + ^
STACK CFI 7956 .cfa: r7 8 +
STACK CFI INIT 7964 b0 .cfa: sp 0 + .ra: lr
STACK CFI 7966 .cfa: sp 16 + .ra: .cfa -4 + ^ r7: .cfa -8 + ^ r6: .cfa -12 + ^ r4: .cfa -16 + ^
STACK CFI 7968 .cfa: r7 8 +
STACK CFI INIT 7a14 9c .cfa: sp 0 + .ra: lr
STACK CFI 7a16 .cfa: sp 20 + .ra: .cfa -4 + ^ r7: .cfa -8 + ^ r6: .cfa -12 + ^ r5: .cfa -16 + ^ r4: .cfa -20 + ^
STACK CFI 7a18 .cfa: r7 8 +
STACK CFI 7a1c r11: .cfa -24 + ^
STACK CFI INIT 7ab0 e4 .cfa: sp 0 + .ra: lr
STACK CFI 7ab2 .cfa: sp 20 + .ra: .cfa -4 + ^ r7: .cfa -8 + ^ r6: .cfa -12 + ^ r5: .cfa -16 + ^ r4: .cfa -20 + ^
STACK CFI 7ab4 .cfa: r7 8 +
STACK CFI 7ab8 r11: .cfa -24 + ^ r9: .cfa -28 + ^ r8: .cfa -32 + ^
STACK CFI INIT 7b94 78 .cfa: sp 0 + .ra: lr
STACK CFI 7b96 .cfa: sp 20 + .ra: .cfa -4 + ^ r7: .cfa -8 + ^ r6: .cfa -12 + ^ r5: .cfa -16 + ^ r4: .cfa -20 + ^
STACK CFI 7b98 .cfa: r7 8 +
STACK CFI 7b9c r11: .cfa -24 + ^
STACK CFI INIT 7c0c b8 .cfa: sp 0 + .ra: lr
STACK CFI 7c0e .cfa: sp 20 + .ra: .cfa -4 + ^ r7: .cfa -8 + ^ r6: .cfa -12 + ^ r5: .cfa -16 + ^ r4: .cfa -20 + ^
STACK CFI 7c10 .cfa: r7 8 +
STACK CFI 7c14 r11: .cfa -24 + ^
STACK CFI INIT 7cc4 e4 .cfa: sp 0 + .ra: lr
STACK CFI 7cc6 .cfa: sp 20 + .ra: .cfa -4 + ^ r7: .cfa -8 + ^ r6: .cfa -12 + ^ r5: .cfa -16 + ^ r4: .cfa -20 + ^
STACK CFI 7cc8 .cfa: r7 8 +
STACK CFI 7ccc r11: .cfa -24 + ^ r10: .cfa -28 + ^ r9: .cfa -32 + ^ r8: .cfa -36 + ^
STACK CFI INIT 7da8 78 .cfa: sp 0 + .ra: lr
STACK CFI 7daa .cfa: sp 20 + .ra: .cfa -4 + ^ r7: .cfa -8 + ^ r6: .cfa -12 + ^ r5: .cfa -16 + ^ r4: .cfa -20 + ^
STACK CFI 7dac .cfa: r7 8 +
STACK CFI 7db0 r11: .cfa -24 + ^
STACK CFI INIT 7e20 c .cfa: sp 0 + .ra: lr
STACK CFI 7e22 .cfa: sp 8 + .ra: .cfa -4 + ^ r7: .cfa -8 + ^
STACK CFI 7e24 .cfa: r7 8 +
STACK CFI INIT 7e2c 16 .cfa: sp 0 + .ra: lr
STACK CFI 7e2e .cfa: sp 16 + .ra: .cfa -4 + ^ r7: .cfa -8 + ^ r6: .cfa -12 + ^ r4: .cfa -16 + ^
STACK CFI 7e30 .cfa: r7 8 +
STACK CFI INIT 7e44 14 .cfa: sp 0 + .ra: lr
STACK CFI 7e46 .cfa: sp 8 + .ra: .cfa -4 + ^ r7: .cfa -8 + ^
STACK CFI 7e48 .cfa: r7 8 +
STACK CFI INIT 7e58 44 .cfa: sp 0 + .ra: lr
STACK CFI 7e5a .cfa: sp 20 + .ra: .cfa -4 + ^ r7: .cfa -8 + ^ r6: .cfa -12 + ^ r5: .cfa -16 + ^ r4: .cfa -20 + ^
STACK CFI 7e5c .cfa: r7 8 +
STACK CFI 7e60 r8: .cfa -24 + ^
STACK CFI INIT 7e9c 6 .cfa: sp 0 + .ra: lr
STACK CFI 7e9e .cfa: sp 8 + .ra: .cfa -4 + ^ r7: .cfa -8 + ^
STACK CFI 7ea0 .cfa: r7 8 +
STACK CFI INIT 7ea2 12 .cfa: sp 0 + .ra: lr
STACK CFI 7ea4 .cfa: sp 8 + .ra: .cfa -4 + ^ r7: .cfa -8 + ^
STACK CFI 7ea6 .cfa: r7 8 +
STACK CFI INIT 7eb4 12 .cfa: sp 0 + .ra: lr
STACK CFI 7eb6 .cfa: sp 8 + .ra: .cfa -4 + ^ r7: .cfa -8 + ^
STACK CFI 7eb8 .cfa: r7 8 +
STACK CFI INIT 7ec8 10 .cfa: sp 0 + .ra: lr
STACK CFI 7eca .cfa: sp 8 + .ra: .cfa -4 + ^ r7: .cfa -8 + ^
STACK CFI 7ecc .cfa: r7 8 +
STACK CFI INIT 0 38 .cfa: sp 0 + .ra: lr
STACK CFI 2 .cfa: sp 16 + .ra: .cfa -4 + ^ r7: .cfa -8 + ^ r5: .cfa -12 + ^ r4: .cfa -16 + ^
STACK CFI 4 .cfa: r7 8 +
STACK CFI INIT 0 18 .cfa: sp 0 + .ra: lr
STACK CFI 2 .cfa: sp 8 + .ra: .cfa -4 + ^ r7: .cfa -8 + ^
STACK CFI 4 .cfa: r7 8 +
STACK CFI INIT 7ed8 44 .cfa: sp 0 + .ra: lr
STACK CFI 7eda .cfa: sp 20 + .ra: .cfa -4 + ^ r7: .cfa -8 + ^ r6: .cfa -12 + ^ r5: .cfa -16 + ^ r4: .cfa -20 + ^
STACK CFI 7edc .cfa: r7 8 +
STACK CFI 7ee0 r8: .cfa -24 + ^
STACK CFI INIT 7f1c 12 .cfa: sp 0 + .ra: lr
STACK CFI 7f1e .cfa: sp 8 + .ra: .cfa -4 + ^ r7: .cfa -8 + ^
STACK CFI 7f20 .cfa: r7 8 +
STACK CFI INIT 7f30 40 .cfa: sp 0 + .ra: lr
STACK CFI 7f32 .cfa: sp 16 + .ra: .cfa -4 + ^ r7: .cfa -8 + ^ r6: .cfa -12 + ^ r4: .cfa -16 + ^
STACK CFI 7f34 .cfa: r7 8 +
