MODULE Linux arm E50A8AEE5C087600E7820CED6F5B3E5B0 TestResult
INFO CODE_ID EE8A0AE5085C0076E7820CED6F5B3E5B1788EA55
INFO GENERATOR mozilla/dump_syms 2.3.6
PUBLIC 53c 0 _start
PUBLIC 54c 0 _start_main
PUBLIC 5b8 0 __atexit_handler_wrapper
PUBLIC 5d0 0 atexit
PUBLIC 5fc 0 pthread_atfork
PUBLIC 618 0 call_fini_array
FUNC 65c 6 0 UpcastTest()
FUNC 664 3c 0 MOZ_ReportAssertionFailure(char const*, char const*, int)
FUNC 6a0 a4 0 main
PUBLIC 750 0 <.plt ELF section in TestResult>
STACK CFI INIT 65c 6 .cfa: sp 0 + .ra: lr
STACK CFI 65e .cfa: sp 8 + .ra: .cfa -4 + ^ r7: .cfa -8 + ^
STACK CFI 660 .cfa: r7 8 +
STACK CFI INIT 664 3c .cfa: sp 0 + .ra: lr
STACK CFI 666 .cfa: sp 20 + .ra: .cfa -4 + ^ r7: .cfa -8 + ^ r6: .cfa -12 + ^ r5: .cfa -16 + ^ r4: .cfa -20 + ^
STACK CFI 668 .cfa: r7 8 +
STACK CFI 66c r11: .cfa -24 + ^
STACK CFI INIT 0 6 .cfa: sp 0 + .ra: lr
STACK CFI 2 .cfa: sp 8 + .ra: .cfa -4 + ^ r7: .cfa -8 + ^
STACK CFI 4 .cfa: r7 8 +
STACK CFI INIT 6a0 a4 .cfa: sp 0 + .ra: lr
STACK CFI 6a2 .cfa: sp 16 + .ra: .cfa -4 + ^ r7: .cfa -8 + ^ r6: .cfa -12 + ^ r4: .cfa -16 + ^
STACK CFI 6a4 .cfa: r7 8 +
