MODULE Linux arm B469639C249E474C81BF4D3EC9321B6C0 ShowSSEConfig
INFO CODE_ID 9C6369B49E244C4781BF4D3EC9321B6C739E2ED6
INFO GENERATOR mozilla/dump_syms 2.3.7
PUBLIC 498 0 _start
PUBLIC 4a8 0 _start_main
PUBLIC 514 0 __atexit_handler_wrapper
PUBLIC 52c 0 atexit
PUBLIC 558 0 pthread_atfork
PUBLIC 574 0 call_fini_array
FUNC 5b8 dc 0 main
PUBLIC 6a0 0 <.plt ELF section in ShowSSEConfig>
STACK CFI INIT 5b8 dc .cfa: sp 0 + .ra: lr
STACK CFI 5ba .cfa: sp 16 + .ra: .cfa -4 + ^ r7: .cfa -8 + ^ r5: .cfa -12 + ^ r4: .cfa -16 + ^
STACK CFI 5bc .cfa: r7 8 +
