MODULE Linux arm 292B1B5BF564619FB0FB69F149BE4DA80 TestThreadSafeWeakPtr
INFO CODE_ID 5B1B2B2964F59F61B0FB69F149BE4DA863167376
INFO GENERATOR mozilla/dump_syms 2.3.6
PUBLIC 91c 0 _start
PUBLIC 92c 0 _start_main
PUBLIC 998 0 __atexit_handler_wrapper
PUBLIC 9b0 0 atexit
PUBLIC 9dc 0 pthread_atfork
PUBLIC 9f8 0 call_fini_array
FUNC a3c 924 0 main
FUNC 1360 3c 0 MOZ_ReportAssertionFailure(char const*, char const*, int)
FUNC 139c 94 0 mozilla::detail::RefCounted<mozilla::detail::ThreadSafeWeakReference, (mozilla::detail::RefCountAtomicity)0>::Release() const
FUNC 1430 90 0 mozilla::SupportsThreadSafeWeakPtr<C>::Release() const
PUBLIC 14c1 0 __ThumbV7PILongThunk__ZdlPv
PUBLIC 14d0 0 <.plt ELF section in TestThreadSafeWeakPtr>
STACK CFI INIT a3c 924 .cfa: sp 0 + .ra: lr
STACK CFI a3e .cfa: sp 20 + .ra: .cfa -4 + ^ r7: .cfa -8 + ^ r6: .cfa -12 + ^ r5: .cfa -16 + ^ r4: .cfa -20 + ^
STACK CFI a40 .cfa: r7 8 +
STACK CFI a44 r11: .cfa -24 + ^ r10: .cfa -28 + ^ r9: .cfa -32 + ^ r8: .cfa -36 + ^
STACK CFI INIT 1360 3c .cfa: sp 0 + .ra: lr
STACK CFI 1362 .cfa: sp 20 + .ra: .cfa -4 + ^ r7: .cfa -8 + ^ r6: .cfa -12 + ^ r5: .cfa -16 + ^ r4: .cfa -20 + ^
STACK CFI 1364 .cfa: r7 8 +
STACK CFI 1368 r11: .cfa -24 + ^
STACK CFI INIT 139c 94 .cfa: sp 0 + .ra: lr
STACK CFI 139e .cfa: sp 16 + .ra: .cfa -4 + ^ r7: .cfa -8 + ^ r6: .cfa -12 + ^ r4: .cfa -16 + ^
STACK CFI 13a0 .cfa: r7 8 +
STACK CFI INIT 1430 90 .cfa: sp 0 + .ra: lr
STACK CFI 1432 .cfa: sp 16 + .ra: .cfa -4 + ^ r7: .cfa -8 + ^ r5: .cfa -12 + ^ r4: .cfa -16 + ^
STACK CFI 1434 .cfa: r7 8 +
