MODULE Linux arm 14BB236D5FFA8D16996EF9F0DBA465A50 TestBitSet
INFO CODE_ID 6D23BB14FA5F168D996EF9F0DBA465A55C08AB23
INFO GENERATOR mozilla/dump_syms 2.3.6
PUBLIC f40 0 _start
PUBLIC f50 0 _start_main
PUBLIC fbc 0 __atexit_handler_wrapper
PUBLIC fd4 0 atexit
PUBLIC 1000 0 pthread_atfork
PUBLIC 101c 0 call_fini_array
FUNC 1060 6c 0 main
FUNC 10cc 50 0 BitSetSuite<mozilla::Atomic<unsigned int, (mozilla::MemoryOrdering)2, void> >::runTests()
FUNC 111c 50 0 BitSetSuite<mozilla::Atomic<unsigned long long, (mozilla::MemoryOrdering)2, void> >::runTests()
FUNC 116c 8e8 0 BitSetSuite<unsigned char>::testFindBits()
FUNC 1a54 3c 0 MOZ_ReportAssertionFailure(char const*, char const*, int)
FUNC 1a90 ec 0 BitSetSuite<unsigned int>::testSetBit()
FUNC 1b7c 8c4 0 BitSetSuite<unsigned int>::testFindBits()
FUNC 2440 160 0 BitSetSuite<unsigned long long>::testSetBit()
FUNC 25a0 e80 0 BitSetSuite<unsigned long long>::testFindBits()
FUNC 3420 1d4 0 BitSetSuite<unsigned long long>::testLogicalForSize<(unsigned int)65>()
FUNC 35f4 2b4 0 BitSetSuite<mozilla::Atomic<unsigned int, (mozilla::MemoryOrdering)2, void> >::testConstructAndAssign()
FUNC 38a8 358 0 BitSetSuite<mozilla::Atomic<unsigned int, (mozilla::MemoryOrdering)2, void> >::testSetBit()
FUNC 3c00 c20 0 BitSetSuite<mozilla::Atomic<unsigned int, (mozilla::MemoryOrdering)2, void> >::testFindBits()
FUNC 4820 164 0 BitSetSuite<mozilla::Atomic<unsigned int, (mozilla::MemoryOrdering)2, void> >::testCountForSize<(unsigned int)1>()
FUNC 4984 148 0 BitSetSuite<mozilla::Atomic<unsigned int, (mozilla::MemoryOrdering)2, void> >::testCountForSize<(unsigned int)32>()
FUNC 4acc 2a4 0 BitSetSuite<mozilla::Atomic<unsigned int, (mozilla::MemoryOrdering)2, void> >::testCountForSize<(unsigned int)33>()
FUNC 4d70 33c 0 BitSetSuite<mozilla::Atomic<unsigned int, (mozilla::MemoryOrdering)2, void> >::testComparisonForSize<(unsigned int)1>()
FUNC 50ac 308 0 BitSetSuite<mozilla::Atomic<unsigned int, (mozilla::MemoryOrdering)2, void> >::testComparisonForSize<(unsigned int)32>()
FUNC 53b4 41c 0 BitSetSuite<mozilla::Atomic<unsigned int, (mozilla::MemoryOrdering)2, void> >::testComparisonForSize<(unsigned int)33>()
FUNC 57d0 9e0 0 BitSetSuite<mozilla::Atomic<unsigned int, (mozilla::MemoryOrdering)2, void> >::testLogicalForSize<(unsigned int)2>()
FUNC 61b0 8fc 0 BitSetSuite<mozilla::Atomic<unsigned int, (mozilla::MemoryOrdering)2, void> >::testLogicalForSize<(unsigned int)32>()
FUNC 6aac 10a0 0 BitSetSuite<mozilla::Atomic<unsigned int, (mozilla::MemoryOrdering)2, void> >::testLogicalForSize<(unsigned int)33>()
FUNC 7b4c 388 0 BitSetSuite<mozilla::Atomic<unsigned long long, (mozilla::MemoryOrdering)2, void> >::testConstructAndAssign()
FUNC 7ed4 44c 0 BitSetSuite<mozilla::Atomic<unsigned long long, (mozilla::MemoryOrdering)2, void> >::testSetBit()
FUNC 8320 1474 0 BitSetSuite<mozilla::Atomic<unsigned long long, (mozilla::MemoryOrdering)2, void> >::testFindBits()
FUNC 9794 1b4 0 BitSetSuite<mozilla::Atomic<unsigned long long, (mozilla::MemoryOrdering)2, void> >::testCountForSize<(unsigned int)1>()
FUNC 9948 198 0 BitSetSuite<mozilla::Atomic<unsigned long long, (mozilla::MemoryOrdering)2, void> >::testCountForSize<(unsigned int)64>()
FUNC 9ae0 41c 0 BitSetSuite<mozilla::Atomic<unsigned long long, (mozilla::MemoryOrdering)2, void> >::testCountForSize<(unsigned int)65>()
FUNC 9efc 434 0 BitSetSuite<mozilla::Atomic<unsigned long long, (mozilla::MemoryOrdering)2, void> >::testComparisonForSize<(unsigned int)1>()
FUNC a330 400 0 BitSetSuite<mozilla::Atomic<unsigned long long, (mozilla::MemoryOrdering)2, void> >::testComparisonForSize<(unsigned int)64>()
FUNC a730 610 0 BitSetSuite<mozilla::Atomic<unsigned long long, (mozilla::MemoryOrdering)2, void> >::testComparisonForSize<(unsigned int)65>()
FUNC ad40 d8c 0 BitSetSuite<mozilla::Atomic<unsigned long long, (mozilla::MemoryOrdering)2, void> >::testLogicalForSize<(unsigned int)2>()
FUNC bacc ce0 0 BitSetSuite<mozilla::Atomic<unsigned long long, (mozilla::MemoryOrdering)2, void> >::testLogicalForSize<(unsigned int)64>()
FUNC c7ac 1730 0 BitSetSuite<mozilla::Atomic<unsigned long long, (mozilla::MemoryOrdering)2, void> >::testLogicalForSize<(unsigned int)65>()
PUBLIC dee0 0 <.plt ELF section in TestBitSet>
STACK CFI INIT 1060 6c .cfa: sp 0 + .ra: lr
STACK CFI 1062 .cfa: sp 16 + .ra: .cfa -4 + ^ r7: .cfa -8 + ^ r6: .cfa -12 + ^ r4: .cfa -16 + ^
STACK CFI 1064 .cfa: r7 8 +
STACK CFI INIT 10cc 50 .cfa: sp 0 + .ra: lr
STACK CFI 10ce .cfa: sp 16 + .ra: .cfa -4 + ^ r7: .cfa -8 + ^ r6: .cfa -12 + ^ r4: .cfa -16 + ^
STACK CFI 10d0 .cfa: r7 8 +
STACK CFI INIT 111c 50 .cfa: sp 0 + .ra: lr
STACK CFI 111e .cfa: sp 16 + .ra: .cfa -4 + ^ r7: .cfa -8 + ^ r6: .cfa -12 + ^ r4: .cfa -16 + ^
STACK CFI 1120 .cfa: r7 8 +
STACK CFI INIT 116c 8e8 .cfa: sp 0 + .ra: lr
STACK CFI 116e .cfa: sp 20 + .ra: .cfa -4 + ^ r7: .cfa -8 + ^ r6: .cfa -12 + ^ r5: .cfa -16 + ^ r4: .cfa -20 + ^
STACK CFI 1170 .cfa: r7 8 +
STACK CFI 1174 r11: .cfa -24 + ^ r10: .cfa -28 + ^ r9: .cfa -32 + ^ r8: .cfa -36 + ^
STACK CFI INIT 1a54 3c .cfa: sp 0 + .ra: lr
STACK CFI 1a56 .cfa: sp 20 + .ra: .cfa -4 + ^ r7: .cfa -8 + ^ r6: .cfa -12 + ^ r5: .cfa -16 + ^ r4: .cfa -20 + ^
STACK CFI 1a58 .cfa: r7 8 +
STACK CFI 1a5c r11: .cfa -24 + ^
STACK CFI INIT 1a90 ec .cfa: sp 0 + .ra: lr
STACK CFI 1a92 .cfa: sp 16 + .ra: .cfa -4 + ^ r7: .cfa -8 + ^ r6: .cfa -12 + ^ r4: .cfa -16 + ^
STACK CFI 1a94 .cfa: r7 8 +
STACK CFI INIT 1b7c 8c4 .cfa: sp 0 + .ra: lr
STACK CFI 1b7e .cfa: sp 20 + .ra: .cfa -4 + ^ r7: .cfa -8 + ^ r6: .cfa -12 + ^ r5: .cfa -16 + ^ r4: .cfa -20 + ^
STACK CFI 1b80 .cfa: r7 8 +
STACK CFI 1b84 r11: .cfa -24 + ^ r10: .cfa -28 + ^ r9: .cfa -32 + ^ r8: .cfa -36 + ^
STACK CFI INIT 2440 160 .cfa: sp 0 + .ra: lr
STACK CFI 2442 .cfa: sp 16 + .ra: .cfa -4 + ^ r7: .cfa -8 + ^ r6: .cfa -12 + ^ r4: .cfa -16 + ^
STACK CFI 2444 .cfa: r7 8 +
STACK CFI INIT 25a0 e80 .cfa: sp 0 + .ra: lr
STACK CFI 25a2 .cfa: sp 20 + .ra: .cfa -4 + ^ r7: .cfa -8 + ^ r6: .cfa -12 + ^ r5: .cfa -16 + ^ r4: .cfa -20 + ^
STACK CFI 25a4 .cfa: r7 8 +
STACK CFI 25a8 r11: .cfa -24 + ^ r10: .cfa -28 + ^ r9: .cfa -32 + ^ r8: .cfa -36 + ^
STACK CFI INIT 3420 1d4 .cfa: sp 0 + .ra: lr
STACK CFI 3422 .cfa: sp 20 + .ra: .cfa -4 + ^ r7: .cfa -8 + ^ r6: .cfa -12 + ^ r5: .cfa -16 + ^ r4: .cfa -20 + ^
STACK CFI 3424 .cfa: r7 8 +
STACK CFI 3428 r10: .cfa -24 + ^ r9: .cfa -28 + ^ r8: .cfa -32 + ^
STACK CFI INIT 35f4 2b4 .cfa: sp 0 + .ra: lr
STACK CFI 35f6 .cfa: sp 16 + .ra: .cfa -4 + ^ r7: .cfa -8 + ^ r6: .cfa -12 + ^ r4: .cfa -16 + ^
STACK CFI 35f8 .cfa: r7 8 +
STACK CFI INIT 38a8 358 .cfa: sp 0 + .ra: lr
STACK CFI 38aa .cfa: sp 16 + .ra: .cfa -4 + ^ r7: .cfa -8 + ^ r6: .cfa -12 + ^ r4: .cfa -16 + ^
STACK CFI 38ac .cfa: r7 8 +
STACK CFI INIT 3c00 c20 .cfa: sp 0 + .ra: lr
STACK CFI 3c02 .cfa: sp 20 + .ra: .cfa -4 + ^ r7: .cfa -8 + ^ r6: .cfa -12 + ^ r5: .cfa -16 + ^ r4: .cfa -20 + ^
STACK CFI 3c04 .cfa: r7 8 +
STACK CFI 3c08 r11: .cfa -24 + ^ r10: .cfa -28 + ^ r9: .cfa -32 + ^ r8: .cfa -36 + ^
STACK CFI INIT 4820 164 .cfa: sp 0 + .ra: lr
STACK CFI 4822 .cfa: sp 16 + .ra: .cfa -4 + ^ r7: .cfa -8 + ^ r6: .cfa -12 + ^ r4: .cfa -16 + ^
STACK CFI 4824 .cfa: r7 8 +
STACK CFI INIT 4984 148 .cfa: sp 0 + .ra: lr
STACK CFI 4986 .cfa: sp 16 + .ra: .cfa -4 + ^ r7: .cfa -8 + ^ r6: .cfa -12 + ^ r4: .cfa -16 + ^
STACK CFI 4988 .cfa: r7 8 +
STACK CFI INIT 4acc 2a4 .cfa: sp 0 + .ra: lr
STACK CFI 4ace .cfa: sp 16 + .ra: .cfa -4 + ^ r7: .cfa -8 + ^ r6: .cfa -12 + ^ r4: .cfa -16 + ^
STACK CFI 4ad0 .cfa: r7 8 +
STACK CFI INIT 4d70 33c .cfa: sp 0 + .ra: lr
STACK CFI 4d72 .cfa: sp 16 + .ra: .cfa -4 + ^ r7: .cfa -8 + ^ r6: .cfa -12 + ^ r4: .cfa -16 + ^
STACK CFI 4d74 .cfa: r7 8 +
STACK CFI INIT 50ac 308 .cfa: sp 0 + .ra: lr
STACK CFI 50ae .cfa: sp 16 + .ra: .cfa -4 + ^ r7: .cfa -8 + ^ r6: .cfa -12 + ^ r4: .cfa -16 + ^
STACK CFI 50b0 .cfa: r7 8 +
STACK CFI INIT 53b4 41c .cfa: sp 0 + .ra: lr
STACK CFI 53b6 .cfa: sp 16 + .ra: .cfa -4 + ^ r7: .cfa -8 + ^ r6: .cfa -12 + ^ r4: .cfa -16 + ^
STACK CFI 53b8 .cfa: r7 8 +
STACK CFI INIT 57d0 9e0 .cfa: sp 0 + .ra: lr
STACK CFI 57d2 .cfa: sp 16 + .ra: .cfa -4 + ^ r7: .cfa -8 + ^ r6: .cfa -12 + ^ r4: .cfa -16 + ^
STACK CFI 57d4 .cfa: r7 8 +
STACK CFI INIT 61b0 8fc .cfa: sp 0 + .ra: lr
STACK CFI 61b2 .cfa: sp 16 + .ra: .cfa -4 + ^ r7: .cfa -8 + ^ r6: .cfa -12 + ^ r4: .cfa -16 + ^
STACK CFI 61b4 .cfa: r7 8 +
STACK CFI INIT 6aac 10a0 .cfa: sp 0 + .ra: lr
STACK CFI 6aae .cfa: sp 16 + .ra: .cfa -4 + ^ r7: .cfa -8 + ^ r6: .cfa -12 + ^ r4: .cfa -16 + ^
STACK CFI 6ab0 .cfa: r7 8 +
STACK CFI INIT 7b4c 388 .cfa: sp 0 + .ra: lr
STACK CFI 7b4e .cfa: sp 16 + .ra: .cfa -4 + ^ r7: .cfa -8 + ^ r5: .cfa -12 + ^ r4: .cfa -16 + ^
STACK CFI 7b50 .cfa: r7 8 +
STACK CFI INIT 7ed4 44c .cfa: sp 0 + .ra: lr
STACK CFI 7ed6 .cfa: sp 16 + .ra: .cfa -4 + ^ r7: .cfa -8 + ^ r5: .cfa -12 + ^ r4: .cfa -16 + ^
STACK CFI 7ed8 .cfa: r7 8 +
STACK CFI INIT 8320 1474 .cfa: sp 0 + .ra: lr
STACK CFI 8322 .cfa: sp 20 + .ra: .cfa -4 + ^ r7: .cfa -8 + ^ r6: .cfa -12 + ^ r5: .cfa -16 + ^ r4: .cfa -20 + ^
STACK CFI 8324 .cfa: r7 8 +
STACK CFI 8328 r11: .cfa -24 + ^ r10: .cfa -28 + ^ r9: .cfa -32 + ^ r8: .cfa -36 + ^
STACK CFI INIT 9794 1b4 .cfa: sp 0 + .ra: lr
STACK CFI 9796 .cfa: sp 16 + .ra: .cfa -4 + ^ r7: .cfa -8 + ^ r6: .cfa -12 + ^ r4: .cfa -16 + ^
STACK CFI 9798 .cfa: r7 8 +
STACK CFI INIT 9948 198 .cfa: sp 0 + .ra: lr
STACK CFI 994a .cfa: sp 16 + .ra: .cfa -4 + ^ r7: .cfa -8 + ^ r6: .cfa -12 + ^ r4: .cfa -16 + ^
STACK CFI 994c .cfa: r7 8 +
STACK CFI INIT 9ae0 41c .cfa: sp 0 + .ra: lr
STACK CFI 9ae2 .cfa: sp 20 + .ra: .cfa -4 + ^ r7: .cfa -8 + ^ r6: .cfa -12 + ^ r5: .cfa -16 + ^ r4: .cfa -20 + ^
STACK CFI 9ae4 .cfa: r7 8 +
STACK CFI 9ae8 r8: .cfa -24 + ^
STACK CFI INIT 9efc 434 .cfa: sp 0 + .ra: lr
STACK CFI 9efe .cfa: sp 16 + .ra: .cfa -4 + ^ r7: .cfa -8 + ^ r6: .cfa -12 + ^ r4: .cfa -16 + ^
STACK CFI 9f00 .cfa: r7 8 +
STACK CFI INIT a330 400 .cfa: sp 0 + .ra: lr
STACK CFI a332 .cfa: sp 16 + .ra: .cfa -4 + ^ r7: .cfa -8 + ^ r6: .cfa -12 + ^ r4: .cfa -16 + ^
STACK CFI a334 .cfa: r7 8 +
STACK CFI INIT a730 610 .cfa: sp 0 + .ra: lr
STACK CFI a732 .cfa: sp 16 + .ra: .cfa -4 + ^ r7: .cfa -8 + ^ r5: .cfa -12 + ^ r4: .cfa -16 + ^
STACK CFI a734 .cfa: r7 8 +
STACK CFI INIT ad40 d8c .cfa: sp 0 + .ra: lr
STACK CFI ad42 .cfa: sp 20 + .ra: .cfa -4 + ^ r7: .cfa -8 + ^ r6: .cfa -12 + ^ r5: .cfa -16 + ^ r4: .cfa -20 + ^
STACK CFI ad44 .cfa: r7 8 +
STACK CFI ad48 r11: .cfa -24 + ^
STACK CFI INIT bacc ce0 .cfa: sp 0 + .ra: lr
STACK CFI bace .cfa: sp 16 + .ra: .cfa -4 + ^ r7: .cfa -8 + ^ r5: .cfa -12 + ^ r4: .cfa -16 + ^
STACK CFI bad0 .cfa: r7 8 +
STACK CFI INIT c7ac 1730 .cfa: sp 0 + .ra: lr
STACK CFI c7ae .cfa: sp 20 + .ra: .cfa -4 + ^ r7: .cfa -8 + ^ r6: .cfa -12 + ^ r5: .cfa -16 + ^ r4: .cfa -20 + ^
STACK CFI c7b0 .cfa: r7 8 +
STACK CFI c7b4 r11: .cfa -24 + ^ r10: .cfa -28 + ^ r9: .cfa -32 + ^ r8: .cfa -36 + ^
