MODULE Linux arm 6CC9BFE674EEB866280D5CACDB75FD590 TestFastBernoulliTrial
INFO CODE_ID E6BFC96CEE7466B8280D5CACDB75FD5976F3D32C
INFO GENERATOR mozilla/dump_syms 2.3.6
PUBLIC 898 0 _start
PUBLIC 8a8 0 _start_main
PUBLIC 914 0 __atexit_handler_wrapper
PUBLIC 92c 0 atexit
PUBLIC 958 0 pthread_atfork
PUBLIC 974 0 call_fini_array
FUNC 9b8 ed8 0 main
FUNC 1890 3c 0 MOZ_ReportAssertionFailure(char const*, char const*, int)
PUBLIC m 18cc 0 __aeabi_uidiv
PUBLIC m 1aa0 0 __aeabi_ul2d
PUBLIC 1ad8 0 __aeabi_idiv0
PUBLIC 1adc 0 __aeabi_ldiv0
PUBLIC m 1ae0 0 __aeabi_memset8
PUBLIC m 1af0 0 __aeabi_memclr
PUBLIC 1b00 0 <.plt ELF section in TestFastBernoulliTrial>
STACK CFI INIT 9b8 ed8 .cfa: sp 0 + .ra: lr
STACK CFI 9ba .cfa: sp 20 + .ra: .cfa -4 + ^ r7: .cfa -8 + ^ r6: .cfa -12 + ^ r5: .cfa -16 + ^ r4: .cfa -20 + ^
STACK CFI 9bc .cfa: r7 8 +
STACK CFI 9c0 r11: .cfa -24 + ^ r10: .cfa -28 + ^ r9: .cfa -32 + ^ r8: .cfa -36 + ^
STACK CFI INIT 1890 3c .cfa: sp 0 + .ra: lr
STACK CFI 1892 .cfa: sp 20 + .ra: .cfa -4 + ^ r7: .cfa -8 + ^ r6: .cfa -12 + ^ r5: .cfa -16 + ^ r4: .cfa -20 + ^
STACK CFI 1894 .cfa: r7 8 +
STACK CFI 1898 r11: .cfa -24 + ^
