MODULE Linux arm D1BB72DD97C8293BDACD9B3C877E5B680 TestSplayTree
INFO CODE_ID DD72BBD1C8973B29DACD9B3C877E5B68254F9C79
INFO GENERATOR mozilla/dump_syms 2.3.6
PUBLIC 18ac 0 _start
PUBLIC 18bc 0 _start_main
PUBLIC 1928 0 __atexit_handler_wrapper
PUBLIC 1940 0 atexit
PUBLIC 196c 0 pthread_atfork
PUBLIC 1988 0 call_fini_array
FUNC 19cc 76c 0 main
FUNC 2138 3c 0 MOZ_ReportAssertionFailure(char const*, char const*, int)
FUNC 2174 e4 0 mozilla::SplayTree<SplayInt, SplayInt>::insert(SplayInt*)
FUNC 2258 a0 0 mozilla::SplayTree<SplayInt, SplayInt>::findOrInsert(SplayInt const&)
FUNC 22f8 108 0 mozilla::SplayTree<SplayInt, SplayInt>::remove(SplayInt const&)
FUNC 2400 294 0 mozilla::SplayTree<SplayInt, SplayInt>::splay(SplayInt*)
FUNC 2694 150 0 mozilla::SplayTree<SplayInt, SplayInt>::checkCoherency(SplayInt*, SplayInt*)
PUBLIC 27f0 0 <.plt ELF section in TestSplayTree>
STACK CFI INIT 19cc 76c .cfa: sp 0 + .ra: lr
STACK CFI 19ce .cfa: sp 20 + .ra: .cfa -4 + ^ r7: .cfa -8 + ^ r6: .cfa -12 + ^ r5: .cfa -16 + ^ r4: .cfa -20 + ^
STACK CFI 19d0 .cfa: r7 8 +
STACK CFI 19d4 r11: .cfa -24 + ^ r10: .cfa -28 + ^ r9: .cfa -32 + ^ r8: .cfa -36 + ^
STACK CFI INIT 2138 3c .cfa: sp 0 + .ra: lr
STACK CFI 213a .cfa: sp 20 + .ra: .cfa -4 + ^ r7: .cfa -8 + ^ r6: .cfa -12 + ^ r5: .cfa -16 + ^ r4: .cfa -20 + ^
STACK CFI 213c .cfa: r7 8 +
STACK CFI 2140 r11: .cfa -24 + ^
STACK CFI INIT 2174 e4 .cfa: sp 0 + .ra: lr
STACK CFI 2176 .cfa: sp 20 + .ra: .cfa -4 + ^ r7: .cfa -8 + ^ r6: .cfa -12 + ^ r5: .cfa -16 + ^ r4: .cfa -20 + ^
STACK CFI 2178 .cfa: r7 8 +
STACK CFI 217c r11: .cfa -24 + ^
STACK CFI INIT 2258 a0 .cfa: sp 0 + .ra: lr
STACK CFI 225a .cfa: sp 20 + .ra: .cfa -4 + ^ r7: .cfa -8 + ^ r6: .cfa -12 + ^ r5: .cfa -16 + ^ r4: .cfa -20 + ^
STACK CFI 225c .cfa: r7 8 +
STACK CFI 2260 r11: .cfa -24 + ^ r9: .cfa -28 + ^ r8: .cfa -32 + ^
STACK CFI INIT 22f8 108 .cfa: sp 0 + .ra: lr
STACK CFI 22fa .cfa: sp 20 + .ra: .cfa -4 + ^ r7: .cfa -8 + ^ r6: .cfa -12 + ^ r5: .cfa -16 + ^ r4: .cfa -20 + ^
STACK CFI 22fc .cfa: r7 8 +
STACK CFI 2300 r11: .cfa -24 + ^
STACK CFI INIT 2400 294 .cfa: sp 0 + .ra: lr
STACK CFI 2402 .cfa: sp 16 + .ra: .cfa -4 + ^ r7: .cfa -8 + ^ r5: .cfa -12 + ^ r4: .cfa -16 + ^
STACK CFI 2404 .cfa: r7 8 +
STACK CFI INIT 2694 150 .cfa: sp 0 + .ra: lr
STACK CFI 2696 .cfa: sp 16 + .ra: .cfa -4 + ^ r7: .cfa -8 + ^ r5: .cfa -12 + ^ r4: .cfa -16 + ^
STACK CFI 2698 .cfa: r7 8 +
