MODULE Linux arm B09C89732A34B073DFCAD3DC119FE9160 TestVariant
INFO CODE_ID 73899CB0342A73B0DFCAD3DC119FE9166B26CB14
INFO GENERATOR mozilla/dump_syms 2.3.6
PUBLIC 4e4 0 _start
PUBLIC 4f4 0 _start_main
PUBLIC 560 0 __atexit_handler_wrapper
PUBLIC 578 0 atexit
PUBLIC 5a4 0 pthread_atfork
PUBLIC 5c0 0 call_fini_array
FUNC 604 d8 0 main
PUBLIC 6e0 0 <.plt ELF section in TestVariant>
STACK CFI INIT 604 d8 .cfa: sp 0 + .ra: lr
STACK CFI 606 .cfa: sp 16 + .ra: .cfa -4 + ^ r7: .cfa -8 + ^ r6: .cfa -12 + ^ r4: .cfa -16 + ^
STACK CFI 608 .cfa: r7 8 +
