MODULE Linux arm 130D47E2E4D112FD42551C5821E7DCCB0 TestFloatingPoint
INFO CODE_ID E2470D13D1E4FD1242551C5821E7DCCB68CF583A
INFO GENERATOR mozilla/dump_syms 2.3.6
PUBLIC a50 0 _start
PUBLIC a60 0 _start_main
PUBLIC acc 0 __atexit_handler_wrapper
PUBLIC ae4 0 atexit
PUBLIC b10 0 pthread_atfork
PUBLIC b2c 0 call_fini_array
FUNC b70 76c 0 main
FUNC 12dc 3c 0 MOZ_ReportAssertionFailure(char const*, char const*, int)
FUNC 1318 1e0 0 TestEqualsIsForNonInteger<double>(double)
PUBLIC m 14f8 0 __aeabi_d2lz
PUBLIC m 1528 0 __aeabi_l2d
PUBLIC 1570 0 <.plt ELF section in TestFloatingPoint>
STACK CFI INIT b70 76c .cfa: sp 0 + .ra: lr
STACK CFI b72 .cfa: sp 20 + .ra: .cfa -4 + ^ r7: .cfa -8 + ^ r6: .cfa -12 + ^ r5: .cfa -16 + ^ r4: .cfa -20 + ^
STACK CFI b74 .cfa: r7 8 +
STACK CFI b78 r11: .cfa -24 + ^ r9: .cfa -28 + ^ r8: .cfa -32 + ^
STACK CFI INIT 12dc 3c .cfa: sp 0 + .ra: lr
STACK CFI 12de .cfa: sp 20 + .ra: .cfa -4 + ^ r7: .cfa -8 + ^ r6: .cfa -12 + ^ r5: .cfa -16 + ^ r4: .cfa -20 + ^
STACK CFI 12e0 .cfa: r7 8 +
STACK CFI 12e4 r11: .cfa -24 + ^
STACK CFI INIT 1318 1e0 .cfa: sp 0 + .ra: lr
STACK CFI 131a .cfa: sp 20 + .ra: .cfa -4 + ^ r7: .cfa -8 + ^ r6: .cfa -12 + ^ r5: .cfa -16 + ^ r4: .cfa -20 + ^
STACK CFI 131c .cfa: r7 8 +
STACK CFI 1320 r8: .cfa -24 + ^
