MODULE Linux arm 94621E9B0457E4C4C7D43AE27339A6380 TestWeakPtr
INFO CODE_ID 9B1E62945704C4E4C7D43AE27339A63842ADC413
INFO GENERATOR mozilla/dump_syms 2.3.6
PUBLIC 880 0 _start
PUBLIC 890 0 _start_main
PUBLIC 8fc 0 __atexit_handler_wrapper
PUBLIC 914 0 atexit
PUBLIC 940 0 pthread_atfork
PUBLIC 95c 0 call_fini_array
FUNC 9a0 8 0 isConst(C*)
FUNC 9a8 8 0 isConst(C const*)
FUNC 9b0 b14 0 main
FUNC 14c4 3c 0 MOZ_ReportAssertionFailure(char const*, char const*, int)
FUNC 1500 7c 0 RefPtr<mozilla::detail::WeakReference>::assign_with_AddRef(mozilla::detail::WeakReference*)
PUBLIC 157d 0 __ThumbV7PILongThunk__ZdlPv
PUBLIC 1590 0 <.plt ELF section in TestWeakPtr>
STACK CFI INIT 9a0 8 .cfa: sp 0 + .ra: lr
STACK CFI 9a2 .cfa: sp 8 + .ra: .cfa -4 + ^ r7: .cfa -8 + ^
STACK CFI 9a4 .cfa: r7 8 +
STACK CFI INIT 9a8 8 .cfa: sp 0 + .ra: lr
STACK CFI 9aa .cfa: sp 8 + .ra: .cfa -4 + ^ r7: .cfa -8 + ^
STACK CFI 9ac .cfa: r7 8 +
STACK CFI INIT 9b0 b14 .cfa: sp 0 + .ra: lr
STACK CFI 9b2 .cfa: sp 20 + .ra: .cfa -4 + ^ r7: .cfa -8 + ^ r6: .cfa -12 + ^ r5: .cfa -16 + ^ r4: .cfa -20 + ^
STACK CFI 9b4 .cfa: r7 8 +
STACK CFI 9b8 r8: .cfa -24 + ^
STACK CFI INIT 14c4 3c .cfa: sp 0 + .ra: lr
STACK CFI 14c6 .cfa: sp 20 + .ra: .cfa -4 + ^ r7: .cfa -8 + ^ r6: .cfa -12 + ^ r5: .cfa -16 + ^ r4: .cfa -20 + ^
STACK CFI 14c8 .cfa: r7 8 +
STACK CFI 14cc r11: .cfa -24 + ^
STACK CFI INIT 1500 7c .cfa: sp 0 + .ra: lr
STACK CFI 1502 .cfa: sp 16 + .ra: .cfa -4 + ^ r7: .cfa -8 + ^ r6: .cfa -12 + ^ r4: .cfa -16 + ^
STACK CFI 1504 .cfa: r7 8 +
