MODULE Linux arm 298B58966D2388415722633C32E1521C0 TestEnumeratedArray
INFO CODE_ID 96588B29236D41885722633C32E1521C5B10DD20
INFO GENERATOR mozilla/dump_syms 2.3.6
FILE 0 hg:hg.mozilla.org/try:mfbt/tests/TestEnumeratedArray.cpp:bbdd9862e2f3fd0e897d79100b238eb7caf2c2d3
PUBLIC 3a8 0 _start
PUBLIC 3b8 0 _start_main
PUBLIC 424 0 __atexit_handler_wrapper
PUBLIC 43c 0 atexit
PUBLIC 468 0 pthread_atfork
PUBLIC 484 0 call_fini_array
FUNC 4c8 6 0 TestInitialValueByConstructor()
4c8 4 21 0
4cc 2 38 0
FUNC 4ce 8 0 main
4ce 4 49 0
4d2 4 52 0
PUBLIC 4e0 0 <.plt ELF section in TestEnumeratedArray>
STACK CFI INIT 4c8 6 .cfa: sp 0 + .ra: lr
STACK CFI 4ca .cfa: sp 8 + .ra: .cfa -4 + ^ r7: .cfa -8 + ^
STACK CFI 4cc .cfa: r7 8 +
STACK CFI INIT 0 6 .cfa: sp 0 + .ra: lr
STACK CFI 2 .cfa: sp 8 + .ra: .cfa -4 + ^ r7: .cfa -8 + ^
STACK CFI 4 .cfa: r7 8 +
STACK CFI INIT 4ce 8 .cfa: sp 0 + .ra: lr
STACK CFI 4d0 .cfa: sp 8 + .ra: .cfa -4 + ^ r7: .cfa -8 + ^
STACK CFI 4d2 .cfa: r7 8 +
