MODULE Linux arm 1E8B6E8BD176F1F39774C6147C6B930C0 TestAtomicBitfields
INFO CODE_ID 8B6E8B1E76D1F3F19774C6147C6B930CFA10F13A
INFO GENERATOR mozilla/dump_syms 2.3.6
PUBLIC cb0 0 _start
PUBLIC cc0 0 _start_main
PUBLIC d2c 0 __atexit_handler_wrapper
PUBLIC d44 0 atexit
PUBLIC d70 0 pthread_atfork
PUBLIC d8c 0 call_fini_array
FUNC dd0 188 0 TestDocumentationExample()
FUNC f58 a54 0 TestJammedWithFlags8()
FUNC 19ac 38 0 MOZ_ReportAssertionFailure(char const*, char const*, int)
FUNC 19e4 146c 0 TestJammedWithFlags16()
FUNC 2e50 26c0 0 TestJammedWithFlags32()
FUNC 5510 4dc 0 TestLopsidedA8()
FUNC 59ec 4f4 0 TestLopsidedB8()
FUNC 5ee0 4e8 0 TestLopsidedA16()
FUNC 63c8 510 0 TestLopsidedB16()
FUNC 68d8 4a4 0 TestLopsidedA32()
FUNC 6d7c 4b0 0 TestLopsidedB32()
FUNC 722c 5cc 0 TestLopsidedA64()
FUNC 77f8 5c8 0 TestLopsidedB64()
FUNC 7dc0 1b4 0 main
PUBLIC 7f80 0 <.plt ELF section in TestAtomicBitfields>
STACK CFI INIT dd0 188 .cfa: sp 0 + .ra: lr
STACK CFI dd2 .cfa: sp 8 + .ra: .cfa -4 + ^ r7: .cfa -8 + ^
STACK CFI dd4 .cfa: r7 8 +
STACK CFI INIT f58 a54 .cfa: sp 0 + .ra: lr
STACK CFI f5a .cfa: sp 16 + .ra: .cfa -4 + ^ r7: .cfa -8 + ^ r6: .cfa -12 + ^ r4: .cfa -16 + ^
STACK CFI f5c .cfa: r7 8 +
STACK CFI INIT 19ac 38 .cfa: sp 0 + .ra: lr
STACK CFI 19ae .cfa: sp 16 + .ra: .cfa -4 + ^ r7: .cfa -8 + ^ r5: .cfa -12 + ^ r4: .cfa -16 + ^
STACK CFI 19b0 .cfa: r7 8 +
STACK CFI INIT 19e4 146c .cfa: sp 0 + .ra: lr
STACK CFI 19e6 .cfa: sp 16 + .ra: .cfa -4 + ^ r7: .cfa -8 + ^ r6: .cfa -12 + ^ r4: .cfa -16 + ^
STACK CFI 19e8 .cfa: r7 8 +
STACK CFI INIT 2e50 26c0 .cfa: sp 0 + .ra: lr
STACK CFI 2e52 .cfa: sp 16 + .ra: .cfa -4 + ^ r7: .cfa -8 + ^ r6: .cfa -12 + ^ r4: .cfa -16 + ^
STACK CFI 2e54 .cfa: r7 8 +
STACK CFI INIT 5510 4dc .cfa: sp 0 + .ra: lr
STACK CFI 5512 .cfa: sp 16 + .ra: .cfa -4 + ^ r7: .cfa -8 + ^ r6: .cfa -12 + ^ r4: .cfa -16 + ^
STACK CFI 5514 .cfa: r7 8 +
STACK CFI INIT 59ec 4f4 .cfa: sp 0 + .ra: lr
STACK CFI 59ee .cfa: sp 16 + .ra: .cfa -4 + ^ r7: .cfa -8 + ^ r6: .cfa -12 + ^ r4: .cfa -16 + ^
STACK CFI 59f0 .cfa: r7 8 +
STACK CFI INIT 5ee0 4e8 .cfa: sp 0 + .ra: lr
STACK CFI 5ee2 .cfa: sp 16 + .ra: .cfa -4 + ^ r7: .cfa -8 + ^ r6: .cfa -12 + ^ r4: .cfa -16 + ^
STACK CFI 5ee4 .cfa: r7 8 +
STACK CFI INIT 63c8 510 .cfa: sp 0 + .ra: lr
STACK CFI 63ca .cfa: sp 16 + .ra: .cfa -4 + ^ r7: .cfa -8 + ^ r6: .cfa -12 + ^ r4: .cfa -16 + ^
STACK CFI 63cc .cfa: r7 8 +
STACK CFI INIT 68d8 4a4 .cfa: sp 0 + .ra: lr
STACK CFI 68da .cfa: sp 16 + .ra: .cfa -4 + ^ r7: .cfa -8 + ^ r6: .cfa -12 + ^ r4: .cfa -16 + ^
STACK CFI 68dc .cfa: r7 8 +
STACK CFI INIT 6d7c 4b0 .cfa: sp 0 + .ra: lr
STACK CFI 6d7e .cfa: sp 16 + .ra: .cfa -4 + ^ r7: .cfa -8 + ^ r6: .cfa -12 + ^ r4: .cfa -16 + ^
STACK CFI 6d80 .cfa: r7 8 +
STACK CFI INIT 722c 5cc .cfa: sp 0 + .ra: lr
STACK CFI 722e .cfa: sp 20 + .ra: .cfa -4 + ^ r7: .cfa -8 + ^ r6: .cfa -12 + ^ r5: .cfa -16 + ^ r4: .cfa -20 + ^
STACK CFI 7230 .cfa: r7 8 +
STACK CFI 7234 r11: .cfa -24 + ^
STACK CFI INIT 77f8 5c8 .cfa: sp 0 + .ra: lr
STACK CFI 77fa .cfa: sp 16 + .ra: .cfa -4 + ^ r7: .cfa -8 + ^ r5: .cfa -12 + ^ r4: .cfa -16 + ^
STACK CFI 77fc .cfa: r7 8 +
STACK CFI INIT 7dc0 1b4 .cfa: sp 0 + .ra: lr
STACK CFI 7dc2 .cfa: sp 8 + .ra: .cfa -4 + ^ r7: .cfa -8 + ^
STACK CFI 7dc4 .cfa: r7 8 +
