MODULE Linux arm 7A7207FC8913552E1D136FD6B9B14D2D0 TestBufferList
INFO CODE_ID FC07727A13892E551D136FD6B9B14D2D54DBE86B
INFO GENERATOR mozilla/dump_syms 2.3.6
PUBLIC 19d4 0 _start
PUBLIC 19e4 0 _start_main
PUBLIC 1a50 0 __atexit_handler_wrapper
PUBLIC 1a68 0 atexit
PUBLIC 1a94 0 pthread_atfork
PUBLIC 1ab0 0 call_fini_array
FUNC 1af4 29bc 0 main
FUNC 44b0 3c 0 MOZ_ReportAssertionFailure(char const*, char const*, int)
FUNC 44ec 30 0 mozilla::BufferList<InfallibleAllocPolicy>::IterImpl::RemainingInSegment() const
FUNC 451c 18c 0 mozilla::BufferList<InfallibleAllocPolicy>::IterImpl::Advance(mozilla::BufferList<InfallibleAllocPolicy> const&, unsigned int)
FUNC 46a8 38 0 MOZ_ReportCrash(char const*, char const*, int)
FUNC 46e0 178 0 mozilla::BufferList<InfallibleAllocPolicy>::IterImpl::AdvanceAcrossSegments(mozilla::BufferList<InfallibleAllocPolicy> const&, unsigned int)
FUNC 4858 114 0 mozilla::BufferList<InfallibleAllocPolicy>::operator=(mozilla::BufferList<InfallibleAllocPolicy>&&)
FUNC 496c 124 0 mozilla::BufferList<InfallibleAllocPolicy>::MoveFallible<InfallibleAllocPolicy>(bool*, InfallibleAllocPolicy)
FUNC 4a90 70 0 mozilla::BufferList<InfallibleAllocPolicy>::~BufferList()
FUNC 4b00 dc 0 mozilla::BufferList<InfallibleAllocPolicy>::Borrow<InfallibleAllocPolicy>(mozilla::BufferList<InfallibleAllocPolicy>::IterImpl&, unsigned int, bool*, InfallibleAllocPolicy) const
FUNC 4bdc a8 0 mozilla::BufferList<InfallibleAllocPolicy>::RangeLength(mozilla::BufferList<InfallibleAllocPolicy>::IterImpl const&, mozilla::BufferList<InfallibleAllocPolicy>::IterImpl const&) const
FUNC 4c84 368 0 mozilla::BufferList<InfallibleAllocPolicy>::Truncate(mozilla::BufferList<InfallibleAllocPolicy>::IterImpl&)
FUNC 4fec f8 0 mozilla::BufferList<InfallibleAllocPolicy>::AllocateSegment(unsigned int, unsigned int)
FUNC 50e4 12c 0 mozilla::Vector<mozilla::BufferList<InfallibleAllocPolicy>::Segment, (unsigned int)1, InfallibleAllocPolicy>::append<mozilla::BufferList<InfallibleAllocPolicy>::Segment>(mozilla::BufferList<InfallibleAllocPolicy>::Segment&&)
FUNC 5210 e8 0 mozilla::Vector<mozilla::BufferList<InfallibleAllocPolicy>::Segment, (unsigned int)1, InfallibleAllocPolicy>::growStorageBy(unsigned int)
FUNC 52f8 118 0 mozilla::Vector<mozilla::BufferList<InfallibleAllocPolicy>::Segment, (unsigned int)1, InfallibleAllocPolicy>::convertToHeapStorage(unsigned int)
FUNC 5410 11c 0 mozilla::detail::VectorImpl<mozilla::BufferList<InfallibleAllocPolicy>::Segment, (unsigned int)1, InfallibleAllocPolicy, false>::growTo(mozilla::Vector<mozilla::BufferList<InfallibleAllocPolicy>::Segment, (unsigned int)1, InfallibleAllocPolicy>&, unsigned int)
FUNC 552c d0 0 mozilla::Vector<mozilla::BufferList<InfallibleAllocPolicy>::Segment, (unsigned int)1, InfallibleAllocPolicy>::~Vector()
FUNC 55fc 88 0 mozilla::BufferList<InfallibleAllocPolicy>::IterImpl::IterImpl(mozilla::BufferList<InfallibleAllocPolicy> const&)
FUNC 5684 48 0 mozilla::Vector<mozilla::BufferList<InfallibleAllocPolicy>::Segment, (unsigned int)1, InfallibleAllocPolicy>::operator[](unsigned int) const
FUNC 56cc d8 0 mozilla::BufferList<InfallibleAllocPolicy>::AllocateBytes(unsigned int, unsigned int*)
FUNC 57a4 c0 0 mozilla::Vector<mozilla::BufferList<InfallibleAllocPolicy>::Segment, (unsigned int)1, InfallibleAllocPolicy>::clear()
FUNC 5864 d0 0 mozilla::Vector<mozilla::BufferList<InfallibleAllocPolicy>::Segment, (unsigned int)1, InfallibleAllocPolicy>::popBack()
PUBLIC m 5934 0 __aeabi_memcpy
PUBLIC m 5938 0 __aeabi_memset8
PUBLIC m 5948 0 __aeabi_memclr
PUBLIC 5960 0 <.plt ELF section in TestBufferList>
STACK CFI INIT 1af4 29bc .cfa: sp 0 + .ra: lr
STACK CFI 1af6 .cfa: sp 20 + .ra: .cfa -4 + ^ r7: .cfa -8 + ^ r6: .cfa -12 + ^ r5: .cfa -16 + ^ r4: .cfa -20 + ^
STACK CFI 1af8 .cfa: r7 8 +
STACK CFI 1afc r11: .cfa -24 + ^ r10: .cfa -28 + ^ r9: .cfa -32 + ^ r8: .cfa -36 + ^
STACK CFI INIT 44b0 3c .cfa: sp 0 + .ra: lr
STACK CFI 44b2 .cfa: sp 20 + .ra: .cfa -4 + ^ r7: .cfa -8 + ^ r6: .cfa -12 + ^ r5: .cfa -16 + ^ r4: .cfa -20 + ^
STACK CFI 44b4 .cfa: r7 8 +
STACK CFI 44b8 r11: .cfa -24 + ^
STACK CFI INIT 44ec 30 .cfa: sp 0 + .ra: lr
STACK CFI 44fa .cfa: sp 16 + .ra: .cfa -4 + ^ r7: .cfa -8 + ^ r6: .cfa -12 + ^ r4: .cfa -16 + ^
STACK CFI 44fc .cfa: r7 8 +
STACK CFI INIT 451c 18c .cfa: sp 0 + .ra: lr
STACK CFI 451e .cfa: sp 20 + .ra: .cfa -4 + ^ r7: .cfa -8 + ^ r6: .cfa -12 + ^ r5: .cfa -16 + ^ r4: .cfa -20 + ^
STACK CFI 4520 .cfa: r7 8 +
STACK CFI 4524 r11: .cfa -24 + ^
STACK CFI INIT 46a8 38 .cfa: sp 0 + .ra: lr
STACK CFI 46aa .cfa: sp 16 + .ra: .cfa -4 + ^ r7: .cfa -8 + ^ r5: .cfa -12 + ^ r4: .cfa -16 + ^
STACK CFI 46ac .cfa: r7 8 +
STACK CFI INIT 46e0 178 .cfa: sp 0 + .ra: lr
STACK CFI 46e2 .cfa: sp 20 + .ra: .cfa -4 + ^ r7: .cfa -8 + ^ r6: .cfa -12 + ^ r5: .cfa -16 + ^ r4: .cfa -20 + ^
STACK CFI 46e4 .cfa: r7 8 +
STACK CFI 46e8 r11: .cfa -24 + ^ r10: .cfa -28 + ^ r9: .cfa -32 + ^ r8: .cfa -36 + ^
STACK CFI INIT 4858 114 .cfa: sp 0 + .ra: lr
STACK CFI 485a .cfa: sp 20 + .ra: .cfa -4 + ^ r7: .cfa -8 + ^ r6: .cfa -12 + ^ r5: .cfa -16 + ^ r4: .cfa -20 + ^
STACK CFI 485c .cfa: r7 8 +
STACK CFI 4860 r11: .cfa -24 + ^ r9: .cfa -28 + ^ r8: .cfa -32 + ^
STACK CFI INIT 496c 124 .cfa: sp 0 + .ra: lr
STACK CFI 496e .cfa: sp 20 + .ra: .cfa -4 + ^ r7: .cfa -8 + ^ r6: .cfa -12 + ^ r5: .cfa -16 + ^ r4: .cfa -20 + ^
STACK CFI 4970 .cfa: r7 8 +
STACK CFI 4974 r11: .cfa -24 + ^ r10: .cfa -28 + ^ r9: .cfa -32 + ^ r8: .cfa -36 + ^
STACK CFI INIT 4a90 70 .cfa: sp 0 + .ra: lr
STACK CFI 4a92 .cfa: sp 20 + .ra: .cfa -4 + ^ r7: .cfa -8 + ^ r6: .cfa -12 + ^ r5: .cfa -16 + ^ r4: .cfa -20 + ^
STACK CFI 4a94 .cfa: r7 8 +
STACK CFI 4a98 r11: .cfa -24 + ^
STACK CFI INIT 4b00 dc .cfa: sp 0 + .ra: lr
STACK CFI 4b02 .cfa: sp 20 + .ra: .cfa -4 + ^ r7: .cfa -8 + ^ r6: .cfa -12 + ^ r5: .cfa -16 + ^ r4: .cfa -20 + ^
STACK CFI 4b04 .cfa: r7 8 +
STACK CFI 4b08 r11: .cfa -24 + ^ r10: .cfa -28 + ^ r9: .cfa -32 + ^ r8: .cfa -36 + ^
STACK CFI INIT 4bdc a8 .cfa: sp 0 + .ra: lr
STACK CFI 4bde .cfa: sp 16 + .ra: .cfa -4 + ^ r7: .cfa -8 + ^ r6: .cfa -12 + ^ r4: .cfa -16 + ^
STACK CFI 4be0 .cfa: r7 8 +
STACK CFI INIT 4c84 368 .cfa: sp 0 + .ra: lr
STACK CFI 4c86 .cfa: sp 20 + .ra: .cfa -4 + ^ r7: .cfa -8 + ^ r6: .cfa -12 + ^ r5: .cfa -16 + ^ r4: .cfa -20 + ^
STACK CFI 4c88 .cfa: r7 8 +
STACK CFI 4c8c r10: .cfa -24 + ^ r9: .cfa -28 + ^ r8: .cfa -32 + ^
STACK CFI INIT 4fec f8 .cfa: sp 0 + .ra: lr
STACK CFI 4fee .cfa: sp 20 + .ra: .cfa -4 + ^ r7: .cfa -8 + ^ r6: .cfa -12 + ^ r5: .cfa -16 + ^ r4: .cfa -20 + ^
STACK CFI 4ff0 .cfa: r7 8 +
STACK CFI 4ff4 r8: .cfa -24 + ^
STACK CFI INIT 50e4 12c .cfa: sp 0 + .ra: lr
STACK CFI 50e6 .cfa: sp 16 + .ra: .cfa -4 + ^ r7: .cfa -8 + ^ r5: .cfa -12 + ^ r4: .cfa -16 + ^
STACK CFI 50e8 .cfa: r7 8 +
STACK CFI INIT 5210 e8 .cfa: sp 0 + .ra: lr
STACK CFI 5212 .cfa: sp 16 + .ra: .cfa -4 + ^ r7: .cfa -8 + ^ r6: .cfa -12 + ^ r4: .cfa -16 + ^
STACK CFI 5214 .cfa: r7 8 +
STACK CFI INIT 52f8 118 .cfa: sp 0 + .ra: lr
STACK CFI 52fa .cfa: sp 20 + .ra: .cfa -4 + ^ r7: .cfa -8 + ^ r6: .cfa -12 + ^ r5: .cfa -16 + ^ r4: .cfa -20 + ^
STACK CFI 52fc .cfa: r7 8 +
STACK CFI 5300 r11: .cfa -24 + ^
STACK CFI INIT 5410 11c .cfa: sp 0 + .ra: lr
STACK CFI 5412 .cfa: sp 20 + .ra: .cfa -4 + ^ r7: .cfa -8 + ^ r6: .cfa -12 + ^ r5: .cfa -16 + ^ r4: .cfa -20 + ^
STACK CFI 5414 .cfa: r7 8 +
STACK CFI 5418 r8: .cfa -24 + ^
STACK CFI INIT 552c d0 .cfa: sp 0 + .ra: lr
STACK CFI 552e .cfa: sp 16 + .ra: .cfa -4 + ^ r7: .cfa -8 + ^ r6: .cfa -12 + ^ r4: .cfa -16 + ^
STACK CFI 5530 .cfa: r7 8 +
STACK CFI INIT 55fc 88 .cfa: sp 0 + .ra: lr
STACK CFI 55fe .cfa: sp 16 + .ra: .cfa -4 + ^ r7: .cfa -8 + ^ r6: .cfa -12 + ^ r4: .cfa -16 + ^
STACK CFI 5600 .cfa: r7 8 +
STACK CFI INIT 5684 48 .cfa: sp 0 + .ra: lr
STACK CFI 5686 .cfa: sp 16 + .ra: .cfa -4 + ^ r7: .cfa -8 + ^ r6: .cfa -12 + ^ r4: .cfa -16 + ^
STACK CFI 5688 .cfa: r7 8 +
STACK CFI INIT 56cc d8 .cfa: sp 0 + .ra: lr
STACK CFI 56ce .cfa: sp 20 + .ra: .cfa -4 + ^ r7: .cfa -8 + ^ r6: .cfa -12 + ^ r5: .cfa -16 + ^ r4: .cfa -20 + ^
STACK CFI 56d0 .cfa: r7 8 +
STACK CFI 56d4 r11: .cfa -24 + ^
STACK CFI INIT 57a4 c0 .cfa: sp 0 + .ra: lr
STACK CFI 57a6 .cfa: sp 16 + .ra: .cfa -4 + ^ r7: .cfa -8 + ^ r6: .cfa -12 + ^ r4: .cfa -16 + ^
STACK CFI 57a8 .cfa: r7 8 +
STACK CFI INIT 5864 d0 .cfa: sp 0 + .ra: lr
STACK CFI 5866 .cfa: sp 16 + .ra: .cfa -4 + ^ r7: .cfa -8 + ^ r6: .cfa -12 + ^ r4: .cfa -16 + ^
STACK CFI 5868 .cfa: r7 8 +
