MODULE Linux arm A09D02B26E41B4F5A6D1B9607C669FFB0 TestIntegerRange
INFO CODE_ID B2029DA0416EF5B4A6D1B9607C669FFB67987BDD
INFO GENERATOR mozilla/dump_syms 2.3.6
PUBLIC a40 0 _start
PUBLIC a50 0 _start_main
PUBLIC abc 0 __atexit_handler_wrapper
PUBLIC ad4 0 atexit
PUBLIC b00 0 pthread_atfork
PUBLIC b1c 0 call_fini_array
FUNC b60 ec4 0 main
FUNC 1a24 3c 0 MOZ_ReportAssertionFailure(char const*, char const*, int)
FUNC 1a60 148 0 TestSingleParamRange<long long>(long long)
FUNC 1bb0 168 0 TestSingleParamReverseRange<long long>(long long)
FUNC 1d20 130 0 TestDoubleParamRange<signed char, signed char>(signed char, signed char)
FUNC 1e50 140 0 TestDoubleParamReverseRange<signed char, signed char>(signed char, signed char)
FUNC 1f90 140 0 TestDoubleParamRange<short, short>(short, short)
FUNC 20d0 140 0 TestDoubleParamReverseRange<short, short>(short, short)
FUNC 2210 130 0 TestDoubleParamRange<int, int>(int, int)
FUNC 2340 140 0 TestDoubleParamReverseRange<int, int>(int, int)
FUNC 2480 1c0 0 TestDoubleParamRange<long long, long long>(long long, long long)
FUNC 2640 1d0 0 TestDoubleParamReverseRange<long long, long long>(long long, long long)
FUNC 2810 130 0 TestDoubleParamRange<unsigned char, unsigned char>(unsigned char, unsigned char)
FUNC 2940 140 0 TestDoubleParamReverseRange<unsigned char, unsigned char>(unsigned char, unsigned char)
FUNC 2a80 140 0 TestDoubleParamRange<unsigned short, unsigned short>(unsigned short, unsigned short)
FUNC 2bc0 140 0 TestDoubleParamReverseRange<unsigned short, unsigned short>(unsigned short, unsigned short)
FUNC 2d00 150 0 TestDoubleParamRange<signed char, short>(signed char, short)
FUNC 2e50 150 0 TestDoubleParamReverseRange<signed char, short>(signed char, short)
FUNC 2fa0 130 0 TestDoubleParamRange<short, int>(short, int)
FUNC 30d0 1b4 0 TestDoubleParamRange<int, long long>(int, long long)
FUNC 3290 1c0 0 TestDoubleParamReverseRange<int, long long>(int, long long)
FUNC 3450 150 0 TestDoubleParamRange<long long, signed char>(long long, signed char)
FUNC 35a0 150 0 TestDoubleParamReverseRange<long long, signed char>(long long, signed char)
FUNC 36f0 1b4 0 TestDoubleParamRange<unsigned char, unsigned long long>(unsigned char, unsigned long long)
FUNC 38b0 1c0 0 TestDoubleParamReverseRange<unsigned char, unsigned long long>(unsigned char, unsigned long long)
FUNC 3a70 140 0 TestDoubleParamRange<unsigned short, unsigned char>(unsigned short, unsigned char)
FUNC 3bb0 150 0 TestDoubleParamReverseRange<unsigned short, unsigned char>(unsigned short, unsigned char)
FUNC 3d00 140 0 TestDoubleParamRange<unsigned int, unsigned short>(unsigned int, unsigned short)
FUNC 3e40 150 0 TestDoubleParamReverseRange<unsigned int, unsigned short>(unsigned int, unsigned short)
FUNC 3f90 130 0 TestDoubleParamRange<unsigned long long, unsigned int>(unsigned long long, unsigned int)
FUNC 40c0 140 0 TestDoubleParamReverseRange<unsigned long long, unsigned int>(unsigned long long, unsigned int)
PUBLIC m 4200 0 __aeabi_memset8
PUBLIC m 4210 0 __aeabi_memclr
PUBLIC 4220 0 <.plt ELF section in TestIntegerRange>
STACK CFI INIT b60 ec4 .cfa: sp 0 + .ra: lr
STACK CFI b62 .cfa: sp 20 + .ra: .cfa -4 + ^ r7: .cfa -8 + ^ r6: .cfa -12 + ^ r5: .cfa -16 + ^ r4: .cfa -20 + ^
STACK CFI b64 .cfa: r7 8 +
STACK CFI b68 r10: .cfa -24 + ^ r9: .cfa -28 + ^ r8: .cfa -32 + ^
STACK CFI INIT 1a24 3c .cfa: sp 0 + .ra: lr
STACK CFI 1a26 .cfa: sp 20 + .ra: .cfa -4 + ^ r7: .cfa -8 + ^ r6: .cfa -12 + ^ r5: .cfa -16 + ^ r4: .cfa -20 + ^
STACK CFI 1a28 .cfa: r7 8 +
STACK CFI 1a2c r11: .cfa -24 + ^
STACK CFI INIT 1a60 148 .cfa: sp 0 + .ra: lr
STACK CFI 1a62 .cfa: sp 20 + .ra: .cfa -4 + ^ r7: .cfa -8 + ^ r6: .cfa -12 + ^ r5: .cfa -16 + ^ r4: .cfa -20 + ^
STACK CFI 1a64 .cfa: r7 8 +
STACK CFI 1a68 r11: .cfa -24 + ^ r9: .cfa -28 + ^ r8: .cfa -32 + ^
STACK CFI INIT 1bb0 168 .cfa: sp 0 + .ra: lr
STACK CFI 1bb2 .cfa: sp 20 + .ra: .cfa -4 + ^ r7: .cfa -8 + ^ r6: .cfa -12 + ^ r5: .cfa -16 + ^ r4: .cfa -20 + ^
STACK CFI 1bb4 .cfa: r7 8 +
STACK CFI 1bb8 r10: .cfa -24 + ^ r9: .cfa -28 + ^ r8: .cfa -32 + ^
STACK CFI INIT 0 148 .cfa: sp 0 + .ra: lr
STACK CFI 2 .cfa: sp 20 + .ra: .cfa -4 + ^ r7: .cfa -8 + ^ r6: .cfa -12 + ^ r5: .cfa -16 + ^ r4: .cfa -20 + ^
STACK CFI 4 .cfa: r7 8 +
STACK CFI 8 r11: .cfa -24 + ^ r9: .cfa -28 + ^ r8: .cfa -32 + ^
STACK CFI INIT 0 168 .cfa: sp 0 + .ra: lr
STACK CFI 2 .cfa: sp 20 + .ra: .cfa -4 + ^ r7: .cfa -8 + ^ r6: .cfa -12 + ^ r5: .cfa -16 + ^ r4: .cfa -20 + ^
STACK CFI 4 .cfa: r7 8 +
STACK CFI 8 r10: .cfa -24 + ^ r9: .cfa -28 + ^ r8: .cfa -32 + ^
STACK CFI INIT 1d20 130 .cfa: sp 0 + .ra: lr
STACK CFI 1d22 .cfa: sp 20 + .ra: .cfa -4 + ^ r7: .cfa -8 + ^ r6: .cfa -12 + ^ r5: .cfa -16 + ^ r4: .cfa -20 + ^
STACK CFI 1d24 .cfa: r7 8 +
STACK CFI 1d28 r11: .cfa -24 + ^
STACK CFI INIT 1e50 140 .cfa: sp 0 + .ra: lr
STACK CFI 1e52 .cfa: sp 20 + .ra: .cfa -4 + ^ r7: .cfa -8 + ^ r6: .cfa -12 + ^ r5: .cfa -16 + ^ r4: .cfa -20 + ^
STACK CFI 1e54 .cfa: r7 8 +
STACK CFI 1e58 r11: .cfa -24 + ^
STACK CFI INIT 1f90 140 .cfa: sp 0 + .ra: lr
STACK CFI 1f92 .cfa: sp 20 + .ra: .cfa -4 + ^ r7: .cfa -8 + ^ r6: .cfa -12 + ^ r5: .cfa -16 + ^ r4: .cfa -20 + ^
STACK CFI 1f94 .cfa: r7 8 +
STACK CFI 1f98 r11: .cfa -24 + ^
STACK CFI INIT 20d0 140 .cfa: sp 0 + .ra: lr
STACK CFI 20d2 .cfa: sp 20 + .ra: .cfa -4 + ^ r7: .cfa -8 + ^ r6: .cfa -12 + ^ r5: .cfa -16 + ^ r4: .cfa -20 + ^
STACK CFI 20d4 .cfa: r7 8 +
STACK CFI 20d8 r11: .cfa -24 + ^
STACK CFI INIT 2210 130 .cfa: sp 0 + .ra: lr
STACK CFI 2212 .cfa: sp 20 + .ra: .cfa -4 + ^ r7: .cfa -8 + ^ r6: .cfa -12 + ^ r5: .cfa -16 + ^ r4: .cfa -20 + ^
STACK CFI 2214 .cfa: r7 8 +
STACK CFI 2218 r8: .cfa -24 + ^
STACK CFI INIT 2340 140 .cfa: sp 0 + .ra: lr
STACK CFI 2342 .cfa: sp 20 + .ra: .cfa -4 + ^ r7: .cfa -8 + ^ r6: .cfa -12 + ^ r5: .cfa -16 + ^ r4: .cfa -20 + ^
STACK CFI 2344 .cfa: r7 8 +
STACK CFI 2348 r8: .cfa -24 + ^
STACK CFI INIT 2480 1c0 .cfa: sp 0 + .ra: lr
STACK CFI 2482 .cfa: sp 20 + .ra: .cfa -4 + ^ r7: .cfa -8 + ^ r6: .cfa -12 + ^ r5: .cfa -16 + ^ r4: .cfa -20 + ^
STACK CFI 2484 .cfa: r7 8 +
STACK CFI 2488 r11: .cfa -24 + ^ r10: .cfa -28 + ^ r9: .cfa -32 + ^ r8: .cfa -36 + ^
STACK CFI INIT 2640 1d0 .cfa: sp 0 + .ra: lr
STACK CFI 2642 .cfa: sp 20 + .ra: .cfa -4 + ^ r7: .cfa -8 + ^ r6: .cfa -12 + ^ r5: .cfa -16 + ^ r4: .cfa -20 + ^
STACK CFI 2644 .cfa: r7 8 +
STACK CFI 2648 r11: .cfa -24 + ^ r10: .cfa -28 + ^ r9: .cfa -32 + ^ r8: .cfa -36 + ^
STACK CFI INIT 2810 130 .cfa: sp 0 + .ra: lr
STACK CFI 2812 .cfa: sp 20 + .ra: .cfa -4 + ^ r7: .cfa -8 + ^ r6: .cfa -12 + ^ r5: .cfa -16 + ^ r4: .cfa -20 + ^
STACK CFI 2814 .cfa: r7 8 +
STACK CFI 2818 r11: .cfa -24 + ^
STACK CFI INIT 2940 140 .cfa: sp 0 + .ra: lr
STACK CFI 2942 .cfa: sp 20 + .ra: .cfa -4 + ^ r7: .cfa -8 + ^ r6: .cfa -12 + ^ r5: .cfa -16 + ^ r4: .cfa -20 + ^
STACK CFI 2944 .cfa: r7 8 +
STACK CFI 2948 r11: .cfa -24 + ^
STACK CFI INIT 2a80 140 .cfa: sp 0 + .ra: lr
STACK CFI 2a82 .cfa: sp 20 + .ra: .cfa -4 + ^ r7: .cfa -8 + ^ r6: .cfa -12 + ^ r5: .cfa -16 + ^ r4: .cfa -20 + ^
STACK CFI 2a84 .cfa: r7 8 +
STACK CFI 2a88 r11: .cfa -24 + ^
STACK CFI INIT 2bc0 140 .cfa: sp 0 + .ra: lr
STACK CFI 2bc2 .cfa: sp 20 + .ra: .cfa -4 + ^ r7: .cfa -8 + ^ r6: .cfa -12 + ^ r5: .cfa -16 + ^ r4: .cfa -20 + ^
STACK CFI 2bc4 .cfa: r7 8 +
STACK CFI 2bc8 r11: .cfa -24 + ^
STACK CFI INIT 0 130 .cfa: sp 0 + .ra: lr
STACK CFI 2 .cfa: sp 20 + .ra: .cfa -4 + ^ r7: .cfa -8 + ^ r6: .cfa -12 + ^ r5: .cfa -16 + ^ r4: .cfa -20 + ^
STACK CFI 4 .cfa: r7 8 +
STACK CFI 8 r8: .cfa -24 + ^
STACK CFI INIT 0 140 .cfa: sp 0 + .ra: lr
STACK CFI 2 .cfa: sp 20 + .ra: .cfa -4 + ^ r7: .cfa -8 + ^ r6: .cfa -12 + ^ r5: .cfa -16 + ^ r4: .cfa -20 + ^
STACK CFI 4 .cfa: r7 8 +
STACK CFI 8 r8: .cfa -24 + ^
STACK CFI INIT 0 1c0 .cfa: sp 0 + .ra: lr
STACK CFI 2 .cfa: sp 20 + .ra: .cfa -4 + ^ r7: .cfa -8 + ^ r6: .cfa -12 + ^ r5: .cfa -16 + ^ r4: .cfa -20 + ^
STACK CFI 4 .cfa: r7 8 +
STACK CFI 8 r11: .cfa -24 + ^ r10: .cfa -28 + ^ r9: .cfa -32 + ^ r8: .cfa -36 + ^
STACK CFI INIT 0 1d0 .cfa: sp 0 + .ra: lr
STACK CFI 2 .cfa: sp 20 + .ra: .cfa -4 + ^ r7: .cfa -8 + ^ r6: .cfa -12 + ^ r5: .cfa -16 + ^ r4: .cfa -20 + ^
STACK CFI 4 .cfa: r7 8 +
STACK CFI 8 r11: .cfa -24 + ^ r10: .cfa -28 + ^ r9: .cfa -32 + ^ r8: .cfa -36 + ^
STACK CFI INIT 2d00 150 .cfa: sp 0 + .ra: lr
STACK CFI 2d02 .cfa: sp 20 + .ra: .cfa -4 + ^ r7: .cfa -8 + ^ r6: .cfa -12 + ^ r5: .cfa -16 + ^ r4: .cfa -20 + ^
STACK CFI 2d04 .cfa: r7 8 +
STACK CFI 2d08 r8: .cfa -24 + ^
STACK CFI INIT 2e50 150 .cfa: sp 0 + .ra: lr
STACK CFI 2e52 .cfa: sp 20 + .ra: .cfa -4 + ^ r7: .cfa -8 + ^ r6: .cfa -12 + ^ r5: .cfa -16 + ^ r4: .cfa -20 + ^
STACK CFI 2e54 .cfa: r7 8 +
STACK CFI 2e58 r8: .cfa -24 + ^
STACK CFI INIT 2fa0 130 .cfa: sp 0 + .ra: lr
STACK CFI 2fa2 .cfa: sp 20 + .ra: .cfa -4 + ^ r7: .cfa -8 + ^ r6: .cfa -12 + ^ r5: .cfa -16 + ^ r4: .cfa -20 + ^
STACK CFI 2fa4 .cfa: r7 8 +
STACK CFI 2fa8 r8: .cfa -24 + ^
STACK CFI INIT 0 140 .cfa: sp 0 + .ra: lr
STACK CFI 2 .cfa: sp 20 + .ra: .cfa -4 + ^ r7: .cfa -8 + ^ r6: .cfa -12 + ^ r5: .cfa -16 + ^ r4: .cfa -20 + ^
STACK CFI 4 .cfa: r7 8 +
STACK CFI 8 r8: .cfa -24 + ^
STACK CFI INIT 30d0 1b4 .cfa: sp 0 + .ra: lr
STACK CFI 30d2 .cfa: sp 20 + .ra: .cfa -4 + ^ r7: .cfa -8 + ^ r6: .cfa -12 + ^ r5: .cfa -16 + ^ r4: .cfa -20 + ^
STACK CFI 30d4 .cfa: r7 8 +
STACK CFI 30d8 r11: .cfa -24 + ^ r10: .cfa -28 + ^ r9: .cfa -32 + ^ r8: .cfa -36 + ^
STACK CFI INIT 3290 1c0 .cfa: sp 0 + .ra: lr
STACK CFI 3292 .cfa: sp 20 + .ra: .cfa -4 + ^ r7: .cfa -8 + ^ r6: .cfa -12 + ^ r5: .cfa -16 + ^ r4: .cfa -20 + ^
STACK CFI 3294 .cfa: r7 8 +
STACK CFI 3298 r11: .cfa -24 + ^ r10: .cfa -28 + ^ r9: .cfa -32 + ^ r8: .cfa -36 + ^
STACK CFI INIT 3450 150 .cfa: sp 0 + .ra: lr
STACK CFI 3452 .cfa: sp 20 + .ra: .cfa -4 + ^ r7: .cfa -8 + ^ r6: .cfa -12 + ^ r5: .cfa -16 + ^ r4: .cfa -20 + ^
STACK CFI 3454 .cfa: r7 8 +
STACK CFI 3458 r8: .cfa -24 + ^
STACK CFI INIT 35a0 150 .cfa: sp 0 + .ra: lr
STACK CFI 35a2 .cfa: sp 20 + .ra: .cfa -4 + ^ r7: .cfa -8 + ^ r6: .cfa -12 + ^ r5: .cfa -16 + ^ r4: .cfa -20 + ^
STACK CFI 35a4 .cfa: r7 8 +
STACK CFI 35a8 r8: .cfa -24 + ^
STACK CFI INIT 36f0 1b4 .cfa: sp 0 + .ra: lr
STACK CFI 36f2 .cfa: sp 20 + .ra: .cfa -4 + ^ r7: .cfa -8 + ^ r6: .cfa -12 + ^ r5: .cfa -16 + ^ r4: .cfa -20 + ^
STACK CFI 36f4 .cfa: r7 8 +
STACK CFI 36f8 r11: .cfa -24 + ^ r10: .cfa -28 + ^ r9: .cfa -32 + ^ r8: .cfa -36 + ^
STACK CFI INIT 38b0 1c0 .cfa: sp 0 + .ra: lr
STACK CFI 38b2 .cfa: sp 20 + .ra: .cfa -4 + ^ r7: .cfa -8 + ^ r6: .cfa -12 + ^ r5: .cfa -16 + ^ r4: .cfa -20 + ^
STACK CFI 38b4 .cfa: r7 8 +
STACK CFI 38b8 r11: .cfa -24 + ^ r10: .cfa -28 + ^ r9: .cfa -32 + ^ r8: .cfa -36 + ^
STACK CFI INIT 3a70 140 .cfa: sp 0 + .ra: lr
STACK CFI 3a72 .cfa: sp 20 + .ra: .cfa -4 + ^ r7: .cfa -8 + ^ r6: .cfa -12 + ^ r5: .cfa -16 + ^ r4: .cfa -20 + ^
STACK CFI 3a74 .cfa: r7 8 +
STACK CFI 3a78 r8: .cfa -24 + ^
STACK CFI INIT 3bb0 150 .cfa: sp 0 + .ra: lr
STACK CFI 3bb2 .cfa: sp 20 + .ra: .cfa -4 + ^ r7: .cfa -8 + ^ r6: .cfa -12 + ^ r5: .cfa -16 + ^ r4: .cfa -20 + ^
STACK CFI 3bb4 .cfa: r7 8 +
STACK CFI 3bb8 r8: .cfa -24 + ^
STACK CFI INIT 3d00 140 .cfa: sp 0 + .ra: lr
STACK CFI 3d02 .cfa: sp 20 + .ra: .cfa -4 + ^ r7: .cfa -8 + ^ r6: .cfa -12 + ^ r5: .cfa -16 + ^ r4: .cfa -20 + ^
STACK CFI 3d04 .cfa: r7 8 +
STACK CFI 3d08 r8: .cfa -24 + ^
STACK CFI INIT 3e40 150 .cfa: sp 0 + .ra: lr
STACK CFI 3e42 .cfa: sp 20 + .ra: .cfa -4 + ^ r7: .cfa -8 + ^ r6: .cfa -12 + ^ r5: .cfa -16 + ^ r4: .cfa -20 + ^
STACK CFI 3e44 .cfa: r7 8 +
STACK CFI 3e48 r8: .cfa -24 + ^
STACK CFI INIT 3f90 130 .cfa: sp 0 + .ra: lr
STACK CFI 3f92 .cfa: sp 20 + .ra: .cfa -4 + ^ r7: .cfa -8 + ^ r6: .cfa -12 + ^ r5: .cfa -16 + ^ r4: .cfa -20 + ^
STACK CFI 3f94 .cfa: r7 8 +
STACK CFI 3f98 r8: .cfa -24 + ^
STACK CFI INIT 40c0 140 .cfa: sp 0 + .ra: lr
STACK CFI 40c2 .cfa: sp 20 + .ra: .cfa -4 + ^ r7: .cfa -8 + ^ r6: .cfa -12 + ^ r5: .cfa -16 + ^ r4: .cfa -20 + ^
STACK CFI 40c4 .cfa: r7 8 +
STACK CFI 40c8 r8: .cfa -24 + ^
