MODULE Linux arm F72535926FBA82A79CBE47720822ACA80 TestJSONWriter
INFO CODE_ID 923525F7BA6FA7829CBE47720822ACA86CFDD41B
INFO GENERATOR mozilla/dump_syms 2.3.6
PUBLIC 2290 0 _start
PUBLIC 22a0 0 _start_main
PUBLIC 230c 0 __atexit_handler_wrapper
PUBLIC 2324 0 atexit
PUBLIC 2350 0 pthread_atfork
PUBLIC 236c 0 call_fini_array
FUNC 23b0 8c 0 Check(mozilla::JSONWriter&, char const*)
FUNC 243c 2c 0 std::__ndk1::basic_string<char, std::__ndk1::char_traits<char>, std::__ndk1::allocator<char> >::c_str[abi:dn210000]() const
FUNC 2468 3c 0 MOZ_ReportAssertionFailure(char const*, char const*, int)
FUNC 24a8 fbc 0 TestBasicProperties()
FUNC 3468 e94 0 TestBasicElements()
FUNC 4300 2bc 0 TestOneLineObject()
FUNC 45c0 2e4 0 TestOneLineJson()
FUNC 48a4 34 0 StringWriteFunc::~StringWriteFunc()
FUNC 48e0 400 0 TestStringEscaping()
FUNC 4ce0 31c 0 TestDeepNesting()
FUNC 5000 2bc 0 TestEscapedPropertyNames()
FUNC 52bc 24 0 main
FUNC 52e0 10c 0 mozilla::JSONWriter::NewVectorEntries(bool)
FUNC 53ec 168 0 mozilla::Vector<bool, (unsigned int)8, mozilla::MallocAllocPolicy>::growByUninitialized(unsigned int)
FUNC 5554 f0 0 mozilla::Vector<bool, (unsigned int)8, mozilla::MallocAllocPolicy>::shrinkBy(unsigned int)
FUNC 5644 b8 0 mozilla::Vector<bool, (unsigned int)8, mozilla::MallocAllocPolicy>::growStorageBy(unsigned int)
FUNC 56fc 104 0 mozilla::Vector<bool, (unsigned int)8, mozilla::MallocAllocPolicy>::convertToHeapStorage(unsigned int)
FUNC 5800 b0 0 mozilla::detail::VectorImpl<bool, (unsigned int)8, mozilla::MallocAllocPolicy, true>::growTo(mozilla::Vector<bool, (unsigned int)8, mozilla::MallocAllocPolicy>&, unsigned int)
FUNC 58b0 c0 0 mozilla::JSONWriter::StartCollection(mozilla::Span<char const, (unsigned int)4294967295> const&, mozilla::Span<char const, (unsigned int)4294967295> const&, mozilla::JSONWriter::CollectionStyle)
FUNC 5970 164 0 mozilla::JSONWriter::Separator()
FUNC 5ad4 d0 0 mozilla::JSONWriter::PropertyNameAndColon(mozilla::Span<char const, (unsigned int)4294967295> const&)
FUNC 5ba4 248 0 mozilla::JSONWriter::EscapedString::EscapedString(mozilla::Span<char const, (unsigned int)4294967295> const&)
FUNC 5dec c0 0 mozilla::JSONWriter::EndCollection(mozilla::Span<char const, (unsigned int)4294967295> const&)
FUNC 5eac b0 0 SprintfLiteral<(unsigned int)64>(char (&) [(unsigned int)64], char const*, ...)
FUNC 5f5c 70 0 mozilla::JSONWriter::Scalar(mozilla::Span<char const, (unsigned int)4294967295> const&, mozilla::Span<char const, (unsigned int)4294967295> const&)
FUNC 5fcc 6 0 mozilla::PrintfTarget::~PrintfTarget()
FUNC 5fd2 c 0 mozilla::detail::SprintfAppend::~SprintfAppend()
FUNC 5fde 30 0 mozilla::detail::SprintfAppend::append(char const*, unsigned int)
FUNC 6010 d0 0 mozilla::Vector<bool, (unsigned int)8, mozilla::MallocAllocPolicy>::~Vector()
FUNC 60e0 184 0 mozilla::JSONWriter::DoubleProperty(mozilla::Span<char const, (unsigned int)4294967295> const&, double)
FUNC 6264 8c 0 mozilla::JSONWriter::QuotedScalar(mozilla::Span<char const, (unsigned int)4294967295> const&, mozilla::Span<char const, (unsigned int)4294967295> const&)
FUNC 62f0 12 0 StringWriteFunc::Write(mozilla::Span<char const, (unsigned int)4294967295> const&)
FUNC 6304 38 0 StringWriteFunc::~StringWriteFunc()
PUBLIC m 633c 0 __aeabi_memcpy
PUBLIC m 6340 0 __aeabi_memset8
PUBLIC m 6350 0 __aeabi_memclr
PUBLIC 635d 0 __ThumbV7PILongThunk__ZdlPv
PUBLIC 6369 0 __ThumbV7PILongThunk__ZNSt6__ndk112basic_stringIcNS_11char_traitsIcEENS_9allocatorIcEEE6appendEPKcj
PUBLIC 6380 0 <.plt ELF section in TestJSONWriter>
STACK CFI INIT 23b0 8c .cfa: sp 0 + .ra: lr
STACK CFI 23b2 .cfa: sp 20 + .ra: .cfa -4 + ^ r7: .cfa -8 + ^ r6: .cfa -12 + ^ r5: .cfa -16 + ^ r4: .cfa -20 + ^
STACK CFI 23b4 .cfa: r7 8 +
STACK CFI 23b8 r11: .cfa -24 + ^
STACK CFI INIT 243c 2c .cfa: sp 0 + .ra: lr
STACK CFI 2452 .cfa: sp 8 + .ra: .cfa -4 + ^ r7: .cfa -8 + ^
STACK CFI 2454 .cfa: r7 8 +
STACK CFI INIT 2468 3c .cfa: sp 0 + .ra: lr
STACK CFI 246a .cfa: sp 20 + .ra: .cfa -4 + ^ r7: .cfa -8 + ^ r6: .cfa -12 + ^ r5: .cfa -16 + ^ r4: .cfa -20 + ^
STACK CFI 246c .cfa: r7 8 +
STACK CFI 2470 r11: .cfa -24 + ^
STACK CFI INIT 24a8 fbc .cfa: sp 0 + .ra: lr
STACK CFI 24aa .cfa: sp 20 + .ra: .cfa -4 + ^ r7: .cfa -8 + ^ r6: .cfa -12 + ^ r5: .cfa -16 + ^ r4: .cfa -20 + ^
STACK CFI 24ac .cfa: r7 8 +
STACK CFI 24b0 r11: .cfa -24 + ^ r10: .cfa -28 + ^ r9: .cfa -32 + ^ r8: .cfa -36 + ^
STACK CFI INIT 3468 e94 .cfa: sp 0 + .ra: lr
STACK CFI 346a .cfa: sp 20 + .ra: .cfa -4 + ^ r7: .cfa -8 + ^ r6: .cfa -12 + ^ r5: .cfa -16 + ^ r4: .cfa -20 + ^
STACK CFI 346c .cfa: r7 8 +
STACK CFI 3470 r11: .cfa -24 + ^ r10: .cfa -28 + ^ r9: .cfa -32 + ^ r8: .cfa -36 + ^
STACK CFI INIT 4300 2bc .cfa: sp 0 + .ra: lr
STACK CFI 4302 .cfa: sp 20 + .ra: .cfa -4 + ^ r7: .cfa -8 + ^ r6: .cfa -12 + ^ r5: .cfa -16 + ^ r4: .cfa -20 + ^
STACK CFI 4304 .cfa: r7 8 +
STACK CFI 4308 r11: .cfa -24 + ^ r10: .cfa -28 + ^ r9: .cfa -32 + ^ r8: .cfa -36 + ^
STACK CFI INIT 45c0 2e4 .cfa: sp 0 + .ra: lr
STACK CFI 45c2 .cfa: sp 20 + .ra: .cfa -4 + ^ r7: .cfa -8 + ^ r6: .cfa -12 + ^ r5: .cfa -16 + ^ r4: .cfa -20 + ^
STACK CFI 45c4 .cfa: r7 8 +
STACK CFI 45c8 r11: .cfa -24 + ^ r10: .cfa -28 + ^ r9: .cfa -32 + ^ r8: .cfa -36 + ^
STACK CFI INIT 48a4 34 .cfa: sp 0 + .ra: lr
STACK CFI 48a6 .cfa: sp 16 + .ra: .cfa -4 + ^ r7: .cfa -8 + ^ r6: .cfa -12 + ^ r4: .cfa -16 + ^
STACK CFI 48a8 .cfa: r7 8 +
STACK CFI INIT 48e0 400 .cfa: sp 0 + .ra: lr
STACK CFI 48e2 .cfa: sp 20 + .ra: .cfa -4 + ^ r7: .cfa -8 + ^ r6: .cfa -12 + ^ r5: .cfa -16 + ^ r4: .cfa -20 + ^
STACK CFI 48e4 .cfa: r7 8 +
STACK CFI 48e8 r8: .cfa -24 + ^
STACK CFI INIT 4ce0 31c .cfa: sp 0 + .ra: lr
STACK CFI 4ce2 .cfa: sp 20 + .ra: .cfa -4 + ^ r7: .cfa -8 + ^ r6: .cfa -12 + ^ r5: .cfa -16 + ^ r4: .cfa -20 + ^
STACK CFI 4ce4 .cfa: r7 8 +
STACK CFI 4ce8 r11: .cfa -24 + ^ r10: .cfa -28 + ^ r9: .cfa -32 + ^ r8: .cfa -36 + ^
STACK CFI INIT 5000 2bc .cfa: sp 0 + .ra: lr
STACK CFI 5002 .cfa: sp 20 + .ra: .cfa -4 + ^ r7: .cfa -8 + ^ r6: .cfa -12 + ^ r5: .cfa -16 + ^ r4: .cfa -20 + ^
STACK CFI 5004 .cfa: r7 8 +
STACK CFI 5008 r10: .cfa -24 + ^ r9: .cfa -28 + ^ r8: .cfa -32 + ^
STACK CFI INIT 52bc 24 .cfa: sp 0 + .ra: lr
STACK CFI 52be .cfa: sp 8 + .ra: .cfa -4 + ^ r7: .cfa -8 + ^
STACK CFI 52c0 .cfa: r7 8 +
STACK CFI INIT 52e0 10c .cfa: sp 0 + .ra: lr
STACK CFI 52e2 .cfa: sp 20 + .ra: .cfa -4 + ^ r7: .cfa -8 + ^ r6: .cfa -12 + ^ r5: .cfa -16 + ^ r4: .cfa -20 + ^
STACK CFI 52e4 .cfa: r7 8 +
STACK CFI 52e8 r11: .cfa -24 + ^
STACK CFI INIT 53ec 168 .cfa: sp 0 + .ra: lr
STACK CFI 53ee .cfa: sp 16 + .ra: .cfa -4 + ^ r7: .cfa -8 + ^ r5: .cfa -12 + ^ r4: .cfa -16 + ^
STACK CFI 53f0 .cfa: r7 8 +
STACK CFI INIT 5554 f0 .cfa: sp 0 + .ra: lr
STACK CFI 5556 .cfa: sp 16 + .ra: .cfa -4 + ^ r7: .cfa -8 + ^ r6: .cfa -12 + ^ r4: .cfa -16 + ^
STACK CFI 5558 .cfa: r7 8 +
STACK CFI INIT 5644 b8 .cfa: sp 0 + .ra: lr
STACK CFI 5646 .cfa: sp 16 + .ra: .cfa -4 + ^ r7: .cfa -8 + ^ r6: .cfa -12 + ^ r4: .cfa -16 + ^
STACK CFI 5648 .cfa: r7 8 +
STACK CFI INIT 56fc 104 .cfa: sp 0 + .ra: lr
STACK CFI 56fe .cfa: sp 20 + .ra: .cfa -4 + ^ r7: .cfa -8 + ^ r6: .cfa -12 + ^ r5: .cfa -16 + ^ r4: .cfa -20 + ^
STACK CFI 5700 .cfa: r7 8 +
STACK CFI 5704 r10: .cfa -24 + ^ r9: .cfa -28 + ^ r8: .cfa -32 + ^
STACK CFI INIT 5800 b0 .cfa: sp 0 + .ra: lr
STACK CFI 5802 .cfa: sp 16 + .ra: .cfa -4 + ^ r7: .cfa -8 + ^ r5: .cfa -12 + ^ r4: .cfa -16 + ^
STACK CFI 5804 .cfa: r7 8 +
STACK CFI INIT 58b0 c0 .cfa: sp 0 + .ra: lr
STACK CFI 58b2 .cfa: sp 20 + .ra: .cfa -4 + ^ r7: .cfa -8 + ^ r6: .cfa -12 + ^ r5: .cfa -16 + ^ r4: .cfa -20 + ^
STACK CFI 58b4 .cfa: r7 8 +
STACK CFI 58b8 r8: .cfa -24 + ^
STACK CFI INIT 5970 164 .cfa: sp 0 + .ra: lr
STACK CFI 5972 .cfa: sp 20 + .ra: .cfa -4 + ^ r7: .cfa -8 + ^ r6: .cfa -12 + ^ r5: .cfa -16 + ^ r4: .cfa -20 + ^
STACK CFI 5974 .cfa: r7 8 +
STACK CFI 5978 r11: .cfa -24 + ^
STACK CFI INIT 5ad4 d0 .cfa: sp 0 + .ra: lr
STACK CFI 5ad6 .cfa: sp 20 + .ra: .cfa -4 + ^ r7: .cfa -8 + ^ r6: .cfa -12 + ^ r5: .cfa -16 + ^ r4: .cfa -20 + ^
STACK CFI 5ad8 .cfa: r7 8 +
STACK CFI 5adc r8: .cfa -24 + ^
STACK CFI INIT 5ba4 248 .cfa: sp 0 + .ra: lr
STACK CFI 5ba6 .cfa: sp 20 + .ra: .cfa -4 + ^ r7: .cfa -8 + ^ r6: .cfa -12 + ^ r5: .cfa -16 + ^ r4: .cfa -20 + ^
STACK CFI 5ba8 .cfa: r7 8 +
STACK CFI 5bac r11: .cfa -24 + ^ r10: .cfa -28 + ^ r9: .cfa -32 + ^ r8: .cfa -36 + ^
STACK CFI INIT 5dec c0 .cfa: sp 0 + .ra: lr
STACK CFI 5dee .cfa: sp 20 + .ra: .cfa -4 + ^ r7: .cfa -8 + ^ r6: .cfa -12 + ^ r5: .cfa -16 + ^ r4: .cfa -20 + ^
STACK CFI 5df0 .cfa: r7 8 +
STACK CFI 5df4 r8: .cfa -24 + ^
STACK CFI INIT 5eac b0 .cfa: sp 0 + .ra: lr
STACK CFI 5eae .cfa: sp 8 +
STACK CFI 5eb0 .cfa: sp 28 + .ra: .cfa -12 + ^ r7: .cfa -16 + ^ r6: .cfa -20 + ^ r5: .cfa -24 + ^ r4: .cfa -28 + ^
STACK CFI 5eb2 .cfa: r7 16 +
STACK CFI 5eb6 r11: .cfa -32 + ^
STACK CFI INIT 5f5c 70 .cfa: sp 0 + .ra: lr
STACK CFI 5f5e .cfa: sp 20 + .ra: .cfa -4 + ^ r7: .cfa -8 + ^ r6: .cfa -12 + ^ r5: .cfa -16 + ^ r4: .cfa -20 + ^
STACK CFI 5f60 .cfa: r7 8 +
STACK CFI 5f64 r11: .cfa -24 + ^
STACK CFI INIT 5fcc 6 .cfa: sp 0 + .ra: lr
STACK CFI 5fce .cfa: sp 8 + .ra: .cfa -4 + ^ r7: .cfa -8 + ^
STACK CFI 5fd0 .cfa: r7 8 +
STACK CFI INIT 5fd2 c .cfa: sp 0 + .ra: lr
STACK CFI 5fd4 .cfa: sp 8 + .ra: .cfa -4 + ^ r7: .cfa -8 + ^
STACK CFI 5fd6 .cfa: r7 8 +
STACK CFI INIT 5fde 30 .cfa: sp 0 + .ra: lr
STACK CFI 5fe2 .cfa: sp 16 + .ra: .cfa -4 + ^ r7: .cfa -8 + ^ r5: .cfa -12 + ^ r4: .cfa -16 + ^
STACK CFI 5fe4 .cfa: r7 8 +
STACK CFI INIT 6010 d0 .cfa: sp 0 + .ra: lr
STACK CFI 6012 .cfa: sp 16 + .ra: .cfa -4 + ^ r7: .cfa -8 + ^ r6: .cfa -12 + ^ r4: .cfa -16 + ^
STACK CFI 6014 .cfa: r7 8 +
STACK CFI INIT 60e0 184 .cfa: sp 0 + .ra: lr
STACK CFI 60e2 .cfa: sp 20 + .ra: .cfa -4 + ^ r7: .cfa -8 + ^ r6: .cfa -12 + ^ r5: .cfa -16 + ^ r4: .cfa -20 + ^
STACK CFI 60e4 .cfa: r7 8 +
STACK CFI 60e8 r10: .cfa -24 + ^ r9: .cfa -28 + ^ r8: .cfa -32 + ^
STACK CFI INIT 6264 8c .cfa: sp 0 + .ra: lr
STACK CFI 6266 .cfa: sp 20 + .ra: .cfa -4 + ^ r7: .cfa -8 + ^ r6: .cfa -12 + ^ r5: .cfa -16 + ^ r4: .cfa -20 + ^
STACK CFI 6268 .cfa: r7 8 +
STACK CFI 626c r11: .cfa -24 + ^
STACK CFI INIT 62f0 12 .cfa: sp 0 + .ra: lr
STACK CFI 62f2 .cfa: sp 8 + .ra: .cfa -4 + ^ r7: .cfa -8 + ^
STACK CFI 62f4 .cfa: r7 8 +
STACK CFI INIT 6304 38 .cfa: sp 0 + .ra: lr
STACK CFI 6306 .cfa: sp 16 + .ra: .cfa -4 + ^ r7: .cfa -8 + ^ r6: .cfa -12 + ^ r4: .cfa -16 + ^
STACK CFI 6308 .cfa: r7 8 +
