MODULE Linux arm 6ECA80EEDD26278FAD506D419D1EB8D40 TestPrintf
INFO CODE_ID EE80CA6E26DD8F27AD506D419D1EB8D423470DAA
INFO GENERATOR mozilla/dump_syms 2.3.6
PUBLIC 3e7b0 0 _start
PUBLIC 3e7c0 0 _start_main
PUBLIC 3e82c 0 __atexit_handler_wrapper
PUBLIC 3e844 0 atexit
PUBLIC 3e870 0 pthread_atfork
PUBLIC 3e88c 0 call_fini_array
FUNC 3e8d0 dc 0 tiformat::main(int, char**)
FUNC 3e9ac 48 0 snprintf(char*, unsigned int pass_object_size1, char const*, ...)
FUNC 3e9f4 dc 0 tllformat::main()
FUNC 3ead0 200 0 tfformat::main(int, char**)
FUNC 3ecd0 10 0 str_match(char const*, char const*)
FUNC 3ece0 50 0 approx_match(char const*, char const*)
FUNC 3ed30 2280 0 main
FUNC 40fb0 a4 0 mozilla::Smprintf<mozilla::MallocAllocPolicy>(char const*, ...)
FUNC 41054 50 0 MOZ_ReportAssertionFailure(char const*, char const*, int)
FUNC 410a4 f0 0 check_print(char const*, int, bool (*)(char const*, char const*), char const*, char const*, ...)
FUNC 41194 10 0 mozilla::SprintfState<mozilla::MallocAllocPolicy>::~SprintfState()
FUNC 411a4 16 0 mozilla::SprintfState<mozilla::MallocAllocPolicy>::~SprintfState()
FUNC 411bc a8 0 mozilla::SprintfState<mozilla::MallocAllocPolicy>::append(char const*, unsigned int)
FUNC 41264 b4 0 TestPrintfTarget::~TestPrintfTarget()
FUNC 41318 10 0 TestPrintfTarget::~TestPrintfTarget()
FUNC 41328 22 0 TestPrintfTarget::append(char const*, unsigned int)
FUNC 4134c 20 0 MOZ_ReportAssertionFailurePrintFrame(char const*)
PUBLIC m 4136c 0 __aeabi_memcpy
PUBLIC m 41370 0 __aeabi_memset8
PUBLIC m 41380 0 __aeabi_memclr
PUBLIC 4138d 0 __ThumbV7PILongThunk_MozWalkTheStackWithWriter
PUBLIC 41399 0 __ThumbV7PILongThunk__ZdlPv
PUBLIC 413a5 0 __ThumbV7PILongThunk___android_log_print
PUBLIC 413b0 0 <.plt ELF section in TestPrintf>
STACK CFI INIT 3e8d0 dc .cfa: sp 0 + .ra: lr
STACK CFI 3e8d2 .cfa: sp 20 + .ra: .cfa -4 + ^ r7: .cfa -8 + ^ r6: .cfa -12 + ^ r5: .cfa -16 + ^ r4: .cfa -20 + ^
STACK CFI 3e8d4 .cfa: r7 8 +
STACK CFI 3e8d8 r10: .cfa -24 + ^ r9: .cfa -28 + ^ r8: .cfa -32 + ^
STACK CFI INIT 3e9ac 48 .cfa: sp 0 + .ra: lr
STACK CFI 3e9ae .cfa: sp 8 + .ra: .cfa -4 + ^ r7: .cfa -8 + ^
STACK CFI 3e9b0 .cfa: r7 8 +
STACK CFI INIT 3e9f4 dc .cfa: sp 0 + .ra: lr
STACK CFI 3e9f6 .cfa: sp 20 + .ra: .cfa -4 + ^ r7: .cfa -8 + ^ r6: .cfa -12 + ^ r5: .cfa -16 + ^ r4: .cfa -20 + ^
STACK CFI 3e9f8 .cfa: r7 8 +
STACK CFI 3e9fc r10: .cfa -24 + ^ r9: .cfa -28 + ^ r8: .cfa -32 + ^
STACK CFI INIT 3ead0 200 .cfa: sp 0 + .ra: lr
STACK CFI 3ead2 .cfa: sp 20 + .ra: .cfa -4 + ^ r7: .cfa -8 + ^ r6: .cfa -12 + ^ r5: .cfa -16 + ^ r4: .cfa -20 + ^
STACK CFI 3ead4 .cfa: r7 8 +
STACK CFI 3ead8 r11: .cfa -24 + ^ r10: .cfa -28 + ^ r9: .cfa -32 + ^ r8: .cfa -36 + ^
STACK CFI INIT 3ecd0 10 .cfa: sp 0 + .ra: lr
STACK CFI 3ecd2 .cfa: sp 8 + .ra: .cfa -4 + ^ r7: .cfa -8 + ^
STACK CFI 3ecd4 .cfa: r7 8 +
STACK CFI INIT 3ece0 50 .cfa: sp 0 + .ra: lr
STACK CFI 3ece2 .cfa: sp 16 + .ra: .cfa -4 + ^ r7: .cfa -8 + ^ r6: .cfa -12 + ^ r4: .cfa -16 + ^
STACK CFI 3ece4 .cfa: r7 8 +
STACK CFI INIT 3ed30 2280 .cfa: sp 0 + .ra: lr
STACK CFI 3ed32 .cfa: sp 20 + .ra: .cfa -4 + ^ r7: .cfa -8 + ^ r6: .cfa -12 + ^ r5: .cfa -16 + ^ r4: .cfa -20 + ^
STACK CFI 3ed34 .cfa: r7 8 +
STACK CFI 3ed38 r11: .cfa -24 + ^ r10: .cfa -28 + ^ r9: .cfa -32 + ^ r8: .cfa -36 + ^
STACK CFI INIT 40fb0 a4 .cfa: sp 0 + .ra: lr
STACK CFI 40fb2 .cfa: sp 8 +
STACK CFI 40fb4 .cfa: sp 28 + .ra: .cfa -12 + ^ r7: .cfa -16 + ^ r6: .cfa -20 + ^ r5: .cfa -24 + ^ r4: .cfa -28 + ^
STACK CFI 40fb6 .cfa: r7 16 +
STACK CFI 40fba r11: .cfa -32 + ^
STACK CFI INIT 41054 50 .cfa: sp 0 + .ra: lr
STACK CFI 41056 .cfa: sp 20 + .ra: .cfa -4 + ^ r7: .cfa -8 + ^ r6: .cfa -12 + ^ r5: .cfa -16 + ^ r4: .cfa -20 + ^
STACK CFI 41058 .cfa: r7 8 +
STACK CFI 4105c r8: .cfa -24 + ^
STACK CFI INIT 410a4 f0 .cfa: sp 0 + .ra: lr
STACK CFI 410a6 .cfa: sp 20 + .ra: .cfa -4 + ^ r7: .cfa -8 + ^ r6: .cfa -12 + ^ r5: .cfa -16 + ^ r4: .cfa -20 + ^
STACK CFI 410a8 .cfa: r7 8 +
STACK CFI 410ac r11: .cfa -24 + ^ r9: .cfa -28 + ^ r8: .cfa -32 + ^
STACK CFI INIT 41194 10 .cfa: sp 0 + .ra: lr
STACK CFI 41196 .cfa: sp 16 + .ra: .cfa -4 + ^ r7: .cfa -8 + ^ r6: .cfa -12 + ^ r4: .cfa -16 + ^
STACK CFI 41198 .cfa: r7 8 +
STACK CFI INIT 411a4 16 .cfa: sp 0 + .ra: lr
STACK CFI 411a6 .cfa: sp 16 + .ra: .cfa -4 + ^ r7: .cfa -8 + ^ r6: .cfa -12 + ^ r4: .cfa -16 + ^
STACK CFI 411a8 .cfa: r7 8 +
STACK CFI INIT 411bc a8 .cfa: sp 0 + .ra: lr
STACK CFI 411be .cfa: sp 20 + .ra: .cfa -4 + ^ r7: .cfa -8 + ^ r6: .cfa -12 + ^ r5: .cfa -16 + ^ r4: .cfa -20 + ^
STACK CFI 411c0 .cfa: r7 8 +
STACK CFI 411c4 r11: .cfa -24 + ^ r10: .cfa -28 + ^ r9: .cfa -32 + ^ r8: .cfa -36 + ^
STACK CFI INIT 41264 b4 .cfa: sp 0 + .ra: lr
STACK CFI 41266 .cfa: sp 20 + .ra: .cfa -4 + ^ r7: .cfa -8 + ^ r6: .cfa -12 + ^ r5: .cfa -16 + ^ r4: .cfa -20 + ^
STACK CFI 41268 .cfa: r7 8 +
STACK CFI 4126c r11: .cfa -24 + ^
STACK CFI INIT 41318 10 .cfa: sp 0 + .ra: lr
STACK CFI 4131a .cfa: sp 8 + .ra: .cfa -4 + ^ r7: .cfa -8 + ^
STACK CFI 4131c .cfa: r7 8 +
STACK CFI INIT 41328 22 .cfa: sp 0 + .ra: lr
STACK CFI 4132a .cfa: sp 16 + .ra: .cfa -4 + ^ r7: .cfa -8 + ^ r5: .cfa -12 + ^ r4: .cfa -16 + ^
STACK CFI 4132c .cfa: r7 8 +
STACK CFI INIT 4134c 20 .cfa: sp 0 + .ra: lr
STACK CFI 4134e .cfa: sp 8 + .ra: .cfa -4 + ^ r7: .cfa -8 + ^
STACK CFI 41350 .cfa: r7 8 +
