MODULE Linux arm C4A239FCE34F4E2C706BE51C6BB2A4BE0 TestUnicodeArguments
INFO CODE_ID FC39A2C44FE32C4E706BE51C6BB2A4BE0FF9E3CC
INFO GENERATOR mozilla/dump_syms 2.3.6
PUBLIC 45c 0 _start
PUBLIC 46c 0 _start_main
PUBLIC 4d8 0 __atexit_handler_wrapper
PUBLIC 4f0 0 atexit
PUBLIC 51c 0 pthread_atfork
PUBLIC 538 0 call_fini_array
FUNC 57c b8 0 main
PUBLIC 640 0 <.plt ELF section in TestUnicodeArguments>
STACK CFI INIT 57c b8 .cfa: sp 0 + .ra: lr
STACK CFI 57e .cfa: sp 20 + .ra: .cfa -4 + ^ r7: .cfa -8 + ^ r6: .cfa -12 + ^ r5: .cfa -16 + ^ r4: .cfa -20 + ^
STACK CFI 580 .cfa: r7 8 +
STACK CFI 584 r11: .cfa -24 + ^
