MODULE Linux arm 994A7947D72BD60F25FB7E22C57A6F810 TestRefPtr
INFO CODE_ID 47794A992BD70FD625FB7E22C57A6F81976129DE
INFO GENERATOR mozilla/dump_syms 2.3.6
PUBLIC 704 0 _start
PUBLIC 714 0 _start_main
PUBLIC 780 0 __atexit_handler_wrapper
PUBLIC 798 0 atexit
PUBLIC 7c4 0 pthread_atfork
PUBLIC 7e0 0 call_fini_array
FUNC 824 18 0 NewFoo()
FUNC 83c 18 0 NewBar()
FUNC 854 18 0 GetNewFoo(Foo**)
FUNC 86c 26 0 GetNewFoo(RefPtr<Foo>*)
FUNC 892 a 0 GetNullFoo()
FUNC 89c 318 0 main
FUNC bb4 3c 0 MOZ_ReportAssertionFailure(char const*, char const*, int)
FUNC bf0 a8 0 mozilla::detail::RefCounted<Foo, (mozilla::detail::RefCountAtomicity)1>::Release() const
PUBLIC c99 0 __ThumbV7PILongThunk__ZdlPv
PUBLIC cb0 0 <.plt ELF section in TestRefPtr>
STACK CFI INIT 824 18 .cfa: sp 0 + .ra: lr
STACK CFI 826 .cfa: sp 16 + .ra: .cfa -4 + ^ r7: .cfa -8 + ^ r6: .cfa -12 + ^ r4: .cfa -16 + ^
STACK CFI 828 .cfa: r7 8 +
STACK CFI INIT 83c 18 .cfa: sp 0 + .ra: lr
STACK CFI 83e .cfa: sp 16 + .ra: .cfa -4 + ^ r7: .cfa -8 + ^ r6: .cfa -12 + ^ r4: .cfa -16 + ^
STACK CFI 840 .cfa: r7 8 +
STACK CFI INIT 854 18 .cfa: sp 0 + .ra: lr
STACK CFI 856 .cfa: sp 16 + .ra: .cfa -4 + ^ r7: .cfa -8 + ^ r6: .cfa -12 + ^ r4: .cfa -16 + ^
STACK CFI 858 .cfa: r7 8 +
STACK CFI INIT 86c 26 .cfa: sp 0 + .ra: lr
STACK CFI 86e .cfa: sp 16 + .ra: .cfa -4 + ^ r7: .cfa -8 + ^ r6: .cfa -12 + ^ r4: .cfa -16 + ^
STACK CFI 870 .cfa: r7 8 +
STACK CFI INIT 892 a .cfa: sp 0 + .ra: lr
STACK CFI 894 .cfa: sp 8 + .ra: .cfa -4 + ^ r7: .cfa -8 + ^
STACK CFI 896 .cfa: r7 8 +
STACK CFI INIT 89c 318 .cfa: sp 0 + .ra: lr
STACK CFI 89e .cfa: sp 20 + .ra: .cfa -4 + ^ r7: .cfa -8 + ^ r6: .cfa -12 + ^ r5: .cfa -16 + ^ r4: .cfa -20 + ^
STACK CFI 8a0 .cfa: r7 8 +
STACK CFI 8a4 r11: .cfa -24 + ^ r9: .cfa -28 + ^ r8: .cfa -32 + ^
STACK CFI INIT bb4 3c .cfa: sp 0 + .ra: lr
STACK CFI bb6 .cfa: sp 20 + .ra: .cfa -4 + ^ r7: .cfa -8 + ^ r6: .cfa -12 + ^ r5: .cfa -16 + ^ r4: .cfa -20 + ^
STACK CFI bb8 .cfa: r7 8 +
STACK CFI bbc r11: .cfa -24 + ^
STACK CFI INIT bf0 a8 .cfa: sp 0 + .ra: lr
STACK CFI bf2 .cfa: sp 16 + .ra: .cfa -4 + ^ r7: .cfa -8 + ^ r6: .cfa -12 + ^ r4: .cfa -16 + ^
STACK CFI bf4 .cfa: r7 8 +
