MODULE Linux arm 5BC0DFBC3B987296FA4A40973040980D0 TestUtf8
INFO CODE_ID BCDFC05B983B9672FA4A40973040980DE63BE307
INFO GENERATOR mozilla/dump_syms 2.3.6
PUBLIC 1140 0 _start
PUBLIC 1150 0 _start_main
PUBLIC 11bc 0 __atexit_handler_wrapper
PUBLIC 11d4 0 atexit
PUBLIC 1200 0 pthread_atfork
PUBLIC 121c 0 call_fini_array
FUNC 1260 c40 0 main
FUNC 1ea0 3c 0 MOZ_ReportAssertionFailure(char const*, char const*, int)
FUNC 1edc 1e8 0 ExpectValidCodePoint<char, (unsigned int)3>(char const (&) [(unsigned int)3], char32_t)
FUNC 20c4 1e8 0 ExpectValidCodePoint<char, (unsigned int)4>(char const (&) [(unsigned int)4], char32_t)
FUNC 22ac 1e8 0 ExpectValidCodePoint<char, (unsigned int)5>(char const (&) [(unsigned int)5], char32_t)
FUNC 2494 17c 0 mozilla::DecodeOneUtf8CodePointInline<char const*, char const*, mozilla::DecodeOneUtf8CodePointInline<char const*, char const*>(mozilla::Utf8Unit, char const**, char const* const&)::{lambda()#1}, mozilla::DecodeOneUtf8CodePointInline<char const*, char const*>(mozilla::Utf8Unit, char const**, char const* const&)::{lambda(unsigned char, unsigned char)#1}, mozilla::DecodeOneUtf8CodePointInline<char const*, char const*>(mozilla::Utf8Unit, char const**, char const* const&)::{lambda(unsigned char)#1}, mozilla::DecodeOneUtf8CodePointInline<char const*, char const*>(mozilla::Utf8Unit, char const**, char const* const&)::{lambda(char32_t, unsigned char)#1}, mozilla::DecodeOneUtf8CodePointInline<char const*, char const*>(mozilla::Utf8Unit, char const**, char const* const&)::{lambda(char32_t, unsigned char)#2}>(mozilla::Utf8Unit, char const**, char const* const&, mozilla::DecodeOneUtf8CodePointInline<char const*, char const*>(mozilla::Utf8Unit, char const**, char const* const&)::{lambda()#1}, mozilla::DecodeOneUtf8CodePointInline<char const*, char const*>(mozilla::Utf8Unit, char const**, char const* const&)::{lambda(unsigned char, unsigned char)#1}, mozilla::DecodeOneUtf8CodePointInline<char const*, char const*>(mozilla::Utf8Unit, char const**, char const* const&)::{lambda(unsigned char)#1}, mozilla::DecodeOneUtf8CodePointInline<char const*, char const*>(mozilla::Utf8Unit, char const**, char const* const&)::{lambda(char32_t, unsigned char)#1}, mozilla::DecodeOneUtf8CodePointInline<char const*, char const*>(mozilla::Utf8Unit, char const**, char const* const&)::{lambda(char32_t, unsigned char)#2})
FUNC 2610 7c 0 mozilla::AssertedCast<unsigned char, int>(int)
FUNC 268c b8 0 mozilla::detail::DiagnosticMessage<int, unsigned char>(int, char*)
FUNC 2744 40 0 MOZ_ReportCrash(char const*, char const*, int)
FUNC 2784 4c 0 fmt::v11::detail::iterator_buffer<char*, char, fmt::v11::detail::fixed_buffer_traits>::grow(fmt::v11::detail::buffer<char>&, unsigned int)
FUNC 27d0 214 0 mozilla::DecodeOneUtf8CodePointInline<char const*, char const*, AssertIfCalled, AssertIfCalled, AssertIfCalled, AssertIfCalled, AssertIfCalled>(mozilla::Utf8Unit, char const**, char const* const&, AssertIfCalled, AssertIfCalled, AssertIfCalled, AssertIfCalled, AssertIfCalled)
FUNC 29e4 24 0 AssertIfCalled::operator()<unsigned char, int>(unsigned char, int&&)
FUNC 2a10 4d8 0 ExpectInvalidCodePointHelper<unsigned char, (unsigned int)5>(unsigned char const (&) [(unsigned int)5], InvalidUtf8Reason, unsigned char, unsigned char, char32_t, unsigned char)
FUNC 2ee8 b8 0 mozilla::EnumSet<InvalidUtf8Reason, unsigned int>::ConstIterator::operator*() const
FUNC 2fa0 9c 0 mozilla::EnumSet<InvalidUtf8Reason, unsigned int>::ConstIterator::operator++()
FUNC 3040 558 0 ExpectInvalidCodePointHelper<unsigned char, (unsigned int)4>(unsigned char const (&) [(unsigned int)4], InvalidUtf8Reason, unsigned char, unsigned char, char32_t, unsigned char)
FUNC 3598 278 0 ExpectBadLeadUnit<unsigned char, (unsigned int)2>(unsigned char const (&) [(unsigned int)2])
FUNC 3810 2b8 0 ExpectNotEnoughUnits<char, (unsigned int)2>(char const (&) [(unsigned int)2], unsigned char, unsigned char)
FUNC 3ad0 490 0 ExpectInvalidCodePointHelper<char, (unsigned int)3>(char const (&) [(unsigned int)3], InvalidUtf8Reason, unsigned char, unsigned char, char32_t, unsigned char)
FUNC 3f60 548 0 ExpectInvalidCodePointHelper<char, (unsigned int)4>(char const (&) [(unsigned int)4], InvalidUtf8Reason, unsigned char, unsigned char, char32_t, unsigned char)
FUNC 44b0 4b0 0 ExpectInvalidCodePointHelper<char, (unsigned int)5>(char const (&) [(unsigned int)5], InvalidUtf8Reason, unsigned char, unsigned char, char32_t, unsigned char)
PUBLIC m 4960 0 __aeabi_memset8
PUBLIC m 4970 0 __aeabi_memclr
PUBLIC 4980 0 <.plt ELF section in TestUtf8>
STACK CFI INIT 1260 c40 .cfa: sp 0 + .ra: lr
STACK CFI 1262 .cfa: sp 20 + .ra: .cfa -4 + ^ r7: .cfa -8 + ^ r6: .cfa -12 + ^ r5: .cfa -16 + ^ r4: .cfa -20 + ^
STACK CFI 1264 .cfa: r7 8 +
STACK CFI 1268 r11: .cfa -24 + ^ r10: .cfa -28 + ^ r9: .cfa -32 + ^ r8: .cfa -36 + ^
STACK CFI INIT 1ea0 3c .cfa: sp 0 + .ra: lr
STACK CFI 1ea2 .cfa: sp 20 + .ra: .cfa -4 + ^ r7: .cfa -8 + ^ r6: .cfa -12 + ^ r5: .cfa -16 + ^ r4: .cfa -20 + ^
STACK CFI 1ea4 .cfa: r7 8 +
STACK CFI 1ea8 r11: .cfa -24 + ^
STACK CFI INIT 1edc 1e8 .cfa: sp 0 + .ra: lr
STACK CFI 1ede .cfa: sp 20 + .ra: .cfa -4 + ^ r7: .cfa -8 + ^ r6: .cfa -12 + ^ r5: .cfa -16 + ^ r4: .cfa -20 + ^
STACK CFI 1ee0 .cfa: r7 8 +
STACK CFI 1ee4 r11: .cfa -24 + ^ r9: .cfa -28 + ^ r8: .cfa -32 + ^
STACK CFI INIT 20c4 1e8 .cfa: sp 0 + .ra: lr
STACK CFI 20c6 .cfa: sp 20 + .ra: .cfa -4 + ^ r7: .cfa -8 + ^ r6: .cfa -12 + ^ r5: .cfa -16 + ^ r4: .cfa -20 + ^
STACK CFI 20c8 .cfa: r7 8 +
STACK CFI 20cc r11: .cfa -24 + ^ r9: .cfa -28 + ^ r8: .cfa -32 + ^
STACK CFI INIT 22ac 1e8 .cfa: sp 0 + .ra: lr
STACK CFI 22ae .cfa: sp 20 + .ra: .cfa -4 + ^ r7: .cfa -8 + ^ r6: .cfa -12 + ^ r5: .cfa -16 + ^ r4: .cfa -20 + ^
STACK CFI 22b0 .cfa: r7 8 +
STACK CFI 22b4 r11: .cfa -24 + ^ r9: .cfa -28 + ^ r8: .cfa -32 + ^
STACK CFI INIT 0 1e8 .cfa: sp 0 + .ra: lr
STACK CFI 2 .cfa: sp 20 + .ra: .cfa -4 + ^ r7: .cfa -8 + ^ r6: .cfa -12 + ^ r5: .cfa -16 + ^ r4: .cfa -20 + ^
STACK CFI 4 .cfa: r7 8 +
STACK CFI 8 r11: .cfa -24 + ^ r9: .cfa -28 + ^ r8: .cfa -32 + ^
STACK CFI INIT 2494 17c .cfa: sp 0 + .ra: lr
STACK CFI 2496 .cfa: sp 20 + .ra: .cfa -4 + ^ r7: .cfa -8 + ^ r6: .cfa -12 + ^ r5: .cfa -16 + ^ r4: .cfa -20 + ^
STACK CFI 2498 .cfa: r7 8 +
STACK CFI 249c r11: .cfa -24 + ^ r9: .cfa -28 + ^ r8: .cfa -32 + ^
STACK CFI INIT 2610 7c .cfa: sp 0 + .ra: lr
STACK CFI 2612 .cfa: sp 16 + .ra: .cfa -4 + ^ r7: .cfa -8 + ^ r5: .cfa -12 + ^ r4: .cfa -16 + ^
STACK CFI 2614 .cfa: r7 8 +
STACK CFI INIT 268c b8 .cfa: sp 0 + .ra: lr
STACK CFI 268e .cfa: sp 20 + .ra: .cfa -4 + ^ r7: .cfa -8 + ^ r6: .cfa -12 + ^ r5: .cfa -16 + ^ r4: .cfa -20 + ^
STACK CFI 2690 .cfa: r7 8 +
STACK CFI 2694 r11: .cfa -24 + ^
STACK CFI INIT 2744 40 .cfa: sp 0 + .ra: lr
STACK CFI 2746 .cfa: sp 16 + .ra: .cfa -4 + ^ r7: .cfa -8 + ^ r6: .cfa -12 + ^ r4: .cfa -16 + ^
STACK CFI 2748 .cfa: r7 8 +
STACK CFI INIT 2784 4c .cfa: sp 0 + .ra: lr
STACK CFI 2790 .cfa: sp 16 + .ra: .cfa -4 + ^ r7: .cfa -8 + ^ r6: .cfa -12 + ^ r4: .cfa -16 + ^
STACK CFI 2792 .cfa: r7 8 +
STACK CFI INIT 27d0 214 .cfa: sp 0 + .ra: lr
STACK CFI 27d2 .cfa: sp 20 + .ra: .cfa -4 + ^ r7: .cfa -8 + ^ r6: .cfa -12 + ^ r5: .cfa -16 + ^ r4: .cfa -20 + ^
STACK CFI 27d4 .cfa: r7 8 +
STACK CFI 27d8 r11: .cfa -24 + ^ r9: .cfa -28 + ^ r8: .cfa -32 + ^
STACK CFI INIT 29e4 24 .cfa: sp 0 + .ra: lr
STACK CFI 29e6 .cfa: sp 16 + .ra: .cfa -4 + ^ r7: .cfa -8 + ^ r6: .cfa -12 + ^ r4: .cfa -16 + ^
STACK CFI 29e8 .cfa: r7 8 +
STACK CFI INIT 0 24 .cfa: sp 0 + .ra: lr
STACK CFI 2 .cfa: sp 16 + .ra: .cfa -4 + ^ r7: .cfa -8 + ^ r6: .cfa -12 + ^ r4: .cfa -16 + ^
STACK CFI 4 .cfa: r7 8 +
STACK CFI INIT 0 24 .cfa: sp 0 + .ra: lr
STACK CFI 2 .cfa: sp 16 + .ra: .cfa -4 + ^ r7: .cfa -8 + ^ r6: .cfa -12 + ^ r4: .cfa -16 + ^
STACK CFI 4 .cfa: r7 8 +
STACK CFI INIT 2a10 4d8 .cfa: sp 0 + .ra: lr
STACK CFI 2a12 .cfa: sp 20 + .ra: .cfa -4 + ^ r7: .cfa -8 + ^ r6: .cfa -12 + ^ r5: .cfa -16 + ^ r4: .cfa -20 + ^
STACK CFI 2a14 .cfa: r7 8 +
STACK CFI 2a18 r11: .cfa -24 + ^ r10: .cfa -28 + ^ r9: .cfa -32 + ^ r8: .cfa -36 + ^
STACK CFI INIT 2ee8 b8 .cfa: sp 0 + .ra: lr
STACK CFI 2eea .cfa: sp 16 + .ra: .cfa -4 + ^ r7: .cfa -8 + ^ r6: .cfa -12 + ^ r4: .cfa -16 + ^
STACK CFI 2eec .cfa: r7 8 +
STACK CFI INIT 2fa0 9c .cfa: sp 0 + .ra: lr
STACK CFI 2fa2 .cfa: sp 16 + .ra: .cfa -4 + ^ r7: .cfa -8 + ^ r6: .cfa -12 + ^ r4: .cfa -16 + ^
STACK CFI 2fa4 .cfa: r7 8 +
STACK CFI INIT 0 17c .cfa: sp 0 + .ra: lr
STACK CFI 2 .cfa: sp 20 + .ra: .cfa -4 + ^ r7: .cfa -8 + ^ r6: .cfa -12 + ^ r5: .cfa -16 + ^ r4: .cfa -20 + ^
STACK CFI 4 .cfa: r7 8 +
STACK CFI 8 r11: .cfa -24 + ^ r9: .cfa -28 + ^ r8: .cfa -32 + ^
STACK CFI INIT 0 214 .cfa: sp 0 + .ra: lr
STACK CFI 2 .cfa: sp 20 + .ra: .cfa -4 + ^ r7: .cfa -8 + ^ r6: .cfa -12 + ^ r5: .cfa -16 + ^ r4: .cfa -20 + ^
STACK CFI 4 .cfa: r7 8 +
STACK CFI 8 r11: .cfa -24 + ^ r9: .cfa -28 + ^ r8: .cfa -32 + ^
STACK CFI INIT 3040 558 .cfa: sp 0 + .ra: lr
STACK CFI 3042 .cfa: sp 20 + .ra: .cfa -4 + ^ r7: .cfa -8 + ^ r6: .cfa -12 + ^ r5: .cfa -16 + ^ r4: .cfa -20 + ^
STACK CFI 3044 .cfa: r7 8 +
STACK CFI 3048 r11: .cfa -24 + ^ r10: .cfa -28 + ^ r9: .cfa -32 + ^ r8: .cfa -36 + ^
STACK CFI INIT 3598 278 .cfa: sp 0 + .ra: lr
STACK CFI 359a .cfa: sp 16 + .ra: .cfa -4 + ^ r7: .cfa -8 + ^ r5: .cfa -12 + ^ r4: .cfa -16 + ^
STACK CFI 359c .cfa: r7 8 +
STACK CFI INIT 3810 2b8 .cfa: sp 0 + .ra: lr
STACK CFI 3812 .cfa: sp 20 + .ra: .cfa -4 + ^ r7: .cfa -8 + ^ r6: .cfa -12 + ^ r5: .cfa -16 + ^ r4: .cfa -20 + ^
STACK CFI 3814 .cfa: r7 8 +
STACK CFI 3818 r8: .cfa -24 + ^
STACK CFI INIT 3ad0 490 .cfa: sp 0 + .ra: lr
STACK CFI 3ad2 .cfa: sp 20 + .ra: .cfa -4 + ^ r7: .cfa -8 + ^ r6: .cfa -12 + ^ r5: .cfa -16 + ^ r4: .cfa -20 + ^
STACK CFI 3ad4 .cfa: r7 8 +
STACK CFI 3ad8 r11: .cfa -24 + ^ r10: .cfa -28 + ^ r9: .cfa -32 + ^ r8: .cfa -36 + ^
STACK CFI INIT 3f60 548 .cfa: sp 0 + .ra: lr
STACK CFI 3f62 .cfa: sp 20 + .ra: .cfa -4 + ^ r7: .cfa -8 + ^ r6: .cfa -12 + ^ r5: .cfa -16 + ^ r4: .cfa -20 + ^
STACK CFI 3f64 .cfa: r7 8 +
STACK CFI 3f68 r11: .cfa -24 + ^ r10: .cfa -28 + ^ r9: .cfa -32 + ^ r8: .cfa -36 + ^
STACK CFI INIT 44b0 4b0 .cfa: sp 0 + .ra: lr
STACK CFI 44b2 .cfa: sp 20 + .ra: .cfa -4 + ^ r7: .cfa -8 + ^ r6: .cfa -12 + ^ r5: .cfa -16 + ^ r4: .cfa -20 + ^
STACK CFI 44b4 .cfa: r7 8 +
STACK CFI 44b8 r11: .cfa -24 + ^ r10: .cfa -28 + ^ r9: .cfa -32 + ^ r8: .cfa -36 + ^
