MODULE Linux arm A62759D5EA05B1EC1EBE061807CF40DC0 TestEnumSet
INFO CODE_ID D55927A605EAECB11EBE061807CF40DCB697E2EB
INFO GENERATOR mozilla/dump_syms 2.3.6
PUBLIC fc0 0 _start
PUBLIC fd0 0 _start_main
PUBLIC 103c 0 __atexit_handler_wrapper
PUBLIC 1054 0 atexit
PUBLIC 1080 0 pthread_atfork
PUBLIC 109c 0 call_fini_array
FUNC 10e0 b4 0 main
FUNC 1194 18c 0 EnumSetSuite<unsigned int>::runTests()
FUNC 1320 18c 0 EnumSetSuite<mozilla::BitSet<(unsigned int)20, unsigned int> >::runTests()
FUNC 14ac 3c 0 MOZ_ReportAssertionFailure(char const*, char const*, int)
FUNC 14e8 13c 0 EnumSetSuite<unsigned int>::testSize()
FUNC 1624 2f8 0 EnumSetSuite<unsigned int>::testContains()
FUNC 191c 138 0 EnumSetSuite<unsigned int>::testAddTo()
FUNC 1a54 138 0 EnumSetSuite<unsigned int>::testAdd()
FUNC 1b8c a8 0 EnumSetSuite<unsigned int>::testRemoveFrom()
FUNC 1c34 a8 0 EnumSetSuite<unsigned int>::testRemove()
FUNC 1cdc a4 0 EnumSetSuite<unsigned int>::testRemoveAllFrom()
FUNC 1d80 a4 0 EnumSetSuite<unsigned int>::testRemoveAll()
FUNC 1e24 a4 0 EnumSetSuite<unsigned int>::testIntersect()
FUNC 1ec8 a4 0 EnumSetSuite<unsigned int>::testInsersection()
FUNC 1f70 450 0 EnumSetSuite<unsigned int>::testIteration()
FUNC 23c0 b8 0 mozilla::EnumSet<SeaBird, unsigned int>::ConstIterator::operator*() const
FUNC 2478 118 0 mozilla::Vector<SeaBird, (unsigned int)0, mozilla::MallocAllocPolicy>::append<SeaBird&>(SeaBird&)
FUNC 2590 9c 0 mozilla::EnumSet<SeaBird, unsigned int>::ConstIterator::operator++()
FUNC 262c c8 0 mozilla::Vector<SeaBird, (unsigned int)0, mozilla::MallocAllocPolicy>::~Vector()
FUNC 26f4 c0 0 mozilla::Vector<SeaBird, (unsigned int)0, mozilla::MallocAllocPolicy>::growStorageBy(unsigned int)
FUNC 27b4 12c 0 mozilla::Vector<SeaBird, (unsigned int)0, mozilla::MallocAllocPolicy>::convertToHeapStorage(unsigned int)
FUNC 28e0 b8 0 mozilla::detail::VectorImpl<SeaBird, (unsigned int)0, mozilla::MallocAllocPolicy, true>::growTo(mozilla::Vector<SeaBird, (unsigned int)0, mozilla::MallocAllocPolicy>&, unsigned int)
FUNC 2998 ac 0 EnumSetSuite<mozilla::BitSet<(unsigned int)20, unsigned int> >::testRemoveFrom()
FUNC 2a44 ac 0 EnumSetSuite<mozilla::BitSet<(unsigned int)20, unsigned int> >::testRemove()
FUNC 2af0 ac 0 EnumSetSuite<mozilla::BitSet<(unsigned int)20, unsigned int> >::testRemoveAllFrom()
FUNC 2b9c ac 0 EnumSetSuite<mozilla::BitSet<(unsigned int)20, unsigned int> >::testRemoveAll()
FUNC 2c50 450 0 EnumSetSuite<mozilla::BitSet<(unsigned int)20, unsigned int> >::testIteration()
FUNC 30a0 b8 0 mozilla::EnumSet<SeaBird, mozilla::BitSet<(unsigned int)20, unsigned int> >::ConstIterator::operator*() const
FUNC 3158 9c 0 mozilla::EnumSet<SeaBird, mozilla::BitSet<(unsigned int)20, unsigned int> >::ConstIterator::operator++()
PUBLIC m 31f4 0 __aeabi_memset8
PUBLIC m 3204 0 __aeabi_memclr
PUBLIC 3210 0 <.plt ELF section in TestEnumSet>
STACK CFI INIT 10e0 b4 .cfa: sp 0 + .ra: lr
STACK CFI 10e2 .cfa: sp 20 + .ra: .cfa -4 + ^ r7: .cfa -8 + ^ r6: .cfa -12 + ^ r5: .cfa -16 + ^ r4: .cfa -20 + ^
STACK CFI 10e4 .cfa: r7 8 +
STACK CFI 10e8 r10: .cfa -24 + ^ r9: .cfa -28 + ^ r8: .cfa -32 + ^
STACK CFI INIT 1194 18c .cfa: sp 0 + .ra: lr
STACK CFI 1196 .cfa: sp 16 + .ra: .cfa -4 + ^ r7: .cfa -8 + ^ r6: .cfa -12 + ^ r4: .cfa -16 + ^
STACK CFI 1198 .cfa: r7 8 +
STACK CFI INIT 1320 18c .cfa: sp 0 + .ra: lr
STACK CFI 1322 .cfa: sp 16 + .ra: .cfa -4 + ^ r7: .cfa -8 + ^ r6: .cfa -12 + ^ r4: .cfa -16 + ^
STACK CFI 1324 .cfa: r7 8 +
STACK CFI INIT 14ac 3c .cfa: sp 0 + .ra: lr
STACK CFI 14ae .cfa: sp 20 + .ra: .cfa -4 + ^ r7: .cfa -8 + ^ r6: .cfa -12 + ^ r5: .cfa -16 + ^ r4: .cfa -20 + ^
STACK CFI 14b0 .cfa: r7 8 +
STACK CFI 14b4 r11: .cfa -24 + ^
STACK CFI INIT 14e8 13c .cfa: sp 0 + .ra: lr
STACK CFI 14ea .cfa: sp 16 + .ra: .cfa -4 + ^ r7: .cfa -8 + ^ r6: .cfa -12 + ^ r4: .cfa -16 + ^
STACK CFI 14ec .cfa: r7 8 +
STACK CFI INIT 1624 2f8 .cfa: sp 0 + .ra: lr
STACK CFI 1626 .cfa: sp 16 + .ra: .cfa -4 + ^ r7: .cfa -8 + ^ r6: .cfa -12 + ^ r4: .cfa -16 + ^
STACK CFI 1628 .cfa: r7 8 +
STACK CFI INIT 191c 138 .cfa: sp 0 + .ra: lr
STACK CFI 191e .cfa: sp 16 + .ra: .cfa -4 + ^ r7: .cfa -8 + ^ r6: .cfa -12 + ^ r4: .cfa -16 + ^
STACK CFI 1920 .cfa: r7 8 +
STACK CFI INIT 1a54 138 .cfa: sp 0 + .ra: lr
STACK CFI 1a56 .cfa: sp 16 + .ra: .cfa -4 + ^ r7: .cfa -8 + ^ r6: .cfa -12 + ^ r4: .cfa -16 + ^
STACK CFI 1a58 .cfa: r7 8 +
STACK CFI INIT 1b8c a8 .cfa: sp 0 + .ra: lr
STACK CFI 1b8e .cfa: sp 16 + .ra: .cfa -4 + ^ r7: .cfa -8 + ^ r6: .cfa -12 + ^ r4: .cfa -16 + ^
STACK CFI 1b90 .cfa: r7 8 +
STACK CFI INIT 1c34 a8 .cfa: sp 0 + .ra: lr
STACK CFI 1c36 .cfa: sp 16 + .ra: .cfa -4 + ^ r7: .cfa -8 + ^ r6: .cfa -12 + ^ r4: .cfa -16 + ^
STACK CFI 1c38 .cfa: r7 8 +
STACK CFI INIT 1cdc a4 .cfa: sp 0 + .ra: lr
STACK CFI 1cde .cfa: sp 16 + .ra: .cfa -4 + ^ r7: .cfa -8 + ^ r6: .cfa -12 + ^ r4: .cfa -16 + ^
STACK CFI 1ce0 .cfa: r7 8 +
STACK CFI INIT 1d80 a4 .cfa: sp 0 + .ra: lr
STACK CFI 1d82 .cfa: sp 16 + .ra: .cfa -4 + ^ r7: .cfa -8 + ^ r6: .cfa -12 + ^ r4: .cfa -16 + ^
STACK CFI 1d84 .cfa: r7 8 +
STACK CFI INIT 1e24 a4 .cfa: sp 0 + .ra: lr
STACK CFI 1e26 .cfa: sp 16 + .ra: .cfa -4 + ^ r7: .cfa -8 + ^ r6: .cfa -12 + ^ r4: .cfa -16 + ^
STACK CFI 1e28 .cfa: r7 8 +
STACK CFI INIT 1ec8 a4 .cfa: sp 0 + .ra: lr
STACK CFI 1eca .cfa: sp 16 + .ra: .cfa -4 + ^ r7: .cfa -8 + ^ r6: .cfa -12 + ^ r4: .cfa -16 + ^
STACK CFI 1ecc .cfa: r7 8 +
STACK CFI INIT 1f70 450 .cfa: sp 0 + .ra: lr
STACK CFI 1f72 .cfa: sp 20 + .ra: .cfa -4 + ^ r7: .cfa -8 + ^ r6: .cfa -12 + ^ r5: .cfa -16 + ^ r4: .cfa -20 + ^
STACK CFI 1f74 .cfa: r7 8 +
STACK CFI 1f78 r11: .cfa -24 + ^ r10: .cfa -28 + ^ r9: .cfa -32 + ^ r8: .cfa -36 + ^
STACK CFI INIT 23c0 b8 .cfa: sp 0 + .ra: lr
STACK CFI 23c2 .cfa: sp 16 + .ra: .cfa -4 + ^ r7: .cfa -8 + ^ r6: .cfa -12 + ^ r4: .cfa -16 + ^
STACK CFI 23c4 .cfa: r7 8 +
STACK CFI INIT 2478 118 .cfa: sp 0 + .ra: lr
STACK CFI 247a .cfa: sp 16 + .ra: .cfa -4 + ^ r7: .cfa -8 + ^ r5: .cfa -12 + ^ r4: .cfa -16 + ^
STACK CFI 247c .cfa: r7 8 +
STACK CFI INIT 2590 9c .cfa: sp 0 + .ra: lr
STACK CFI 2592 .cfa: sp 16 + .ra: .cfa -4 + ^ r7: .cfa -8 + ^ r6: .cfa -12 + ^ r4: .cfa -16 + ^
STACK CFI 2594 .cfa: r7 8 +
STACK CFI INIT 262c c8 .cfa: sp 0 + .ra: lr
STACK CFI 262e .cfa: sp 16 + .ra: .cfa -4 + ^ r7: .cfa -8 + ^ r6: .cfa -12 + ^ r4: .cfa -16 + ^
STACK CFI 2630 .cfa: r7 8 +
STACK CFI INIT 26f4 c0 .cfa: sp 0 + .ra: lr
STACK CFI 278c .cfa: sp 16 + .ra: .cfa -4 + ^ r7: .cfa -8 + ^ r6: .cfa -12 + ^ r4: .cfa -16 + ^
STACK CFI 278e .cfa: r7 8 +
STACK CFI INIT 27b4 12c .cfa: sp 0 + .ra: lr
STACK CFI 27b6 .cfa: sp 20 + .ra: .cfa -4 + ^ r7: .cfa -8 + ^ r6: .cfa -12 + ^ r5: .cfa -16 + ^ r4: .cfa -20 + ^
STACK CFI 27b8 .cfa: r7 8 +
STACK CFI 27bc r10: .cfa -24 + ^ r9: .cfa -28 + ^ r8: .cfa -32 + ^
STACK CFI INIT 28e0 b8 .cfa: sp 0 + .ra: lr
STACK CFI 28e2 .cfa: sp 16 + .ra: .cfa -4 + ^ r7: .cfa -8 + ^ r5: .cfa -12 + ^ r4: .cfa -16 + ^
STACK CFI 28e4 .cfa: r7 8 +
STACK CFI INIT 0 13c .cfa: sp 0 + .ra: lr
STACK CFI 2 .cfa: sp 16 + .ra: .cfa -4 + ^ r7: .cfa -8 + ^ r6: .cfa -12 + ^ r4: .cfa -16 + ^
STACK CFI 4 .cfa: r7 8 +
STACK CFI INIT 0 2f8 .cfa: sp 0 + .ra: lr
STACK CFI 2 .cfa: sp 16 + .ra: .cfa -4 + ^ r7: .cfa -8 + ^ r6: .cfa -12 + ^ r4: .cfa -16 + ^
STACK CFI 4 .cfa: r7 8 +
STACK CFI INIT 0 138 .cfa: sp 0 + .ra: lr
STACK CFI 2 .cfa: sp 16 + .ra: .cfa -4 + ^ r7: .cfa -8 + ^ r6: .cfa -12 + ^ r4: .cfa -16 + ^
STACK CFI 4 .cfa: r7 8 +
STACK CFI INIT 0 138 .cfa: sp 0 + .ra: lr
STACK CFI 2 .cfa: sp 16 + .ra: .cfa -4 + ^ r7: .cfa -8 + ^ r6: .cfa -12 + ^ r4: .cfa -16 + ^
STACK CFI 4 .cfa: r7 8 +
STACK CFI INIT 2998 ac .cfa: sp 0 + .ra: lr
STACK CFI 299a .cfa: sp 16 + .ra: .cfa -4 + ^ r7: .cfa -8 + ^ r6: .cfa -12 + ^ r4: .cfa -16 + ^
STACK CFI 299c .cfa: r7 8 +
STACK CFI INIT 2a44 ac .cfa: sp 0 + .ra: lr
STACK CFI 2a46 .cfa: sp 16 + .ra: .cfa -4 + ^ r7: .cfa -8 + ^ r6: .cfa -12 + ^ r4: .cfa -16 + ^
STACK CFI 2a48 .cfa: r7 8 +
STACK CFI INIT 2af0 ac .cfa: sp 0 + .ra: lr
STACK CFI 2af2 .cfa: sp 16 + .ra: .cfa -4 + ^ r7: .cfa -8 + ^ r6: .cfa -12 + ^ r4: .cfa -16 + ^
STACK CFI 2af4 .cfa: r7 8 +
STACK CFI INIT 2b9c ac .cfa: sp 0 + .ra: lr
STACK CFI 2b9e .cfa: sp 16 + .ra: .cfa -4 + ^ r7: .cfa -8 + ^ r6: .cfa -12 + ^ r4: .cfa -16 + ^
STACK CFI 2ba0 .cfa: r7 8 +
STACK CFI INIT 0 a4 .cfa: sp 0 + .ra: lr
STACK CFI 2 .cfa: sp 16 + .ra: .cfa -4 + ^ r7: .cfa -8 + ^ r6: .cfa -12 + ^ r4: .cfa -16 + ^
STACK CFI 4 .cfa: r7 8 +
STACK CFI INIT 0 a4 .cfa: sp 0 + .ra: lr
STACK CFI 2 .cfa: sp 16 + .ra: .cfa -4 + ^ r7: .cfa -8 + ^ r6: .cfa -12 + ^ r4: .cfa -16 + ^
STACK CFI 4 .cfa: r7 8 +
STACK CFI INIT 2c50 450 .cfa: sp 0 + .ra: lr
STACK CFI 2c52 .cfa: sp 20 + .ra: .cfa -4 + ^ r7: .cfa -8 + ^ r6: .cfa -12 + ^ r5: .cfa -16 + ^ r4: .cfa -20 + ^
STACK CFI 2c54 .cfa: r7 8 +
STACK CFI 2c58 r11: .cfa -24 + ^ r10: .cfa -28 + ^ r9: .cfa -32 + ^ r8: .cfa -36 + ^
STACK CFI INIT 30a0 b8 .cfa: sp 0 + .ra: lr
STACK CFI 30a2 .cfa: sp 16 + .ra: .cfa -4 + ^ r7: .cfa -8 + ^ r6: .cfa -12 + ^ r4: .cfa -16 + ^
STACK CFI 30a4 .cfa: r7 8 +
STACK CFI INIT 3158 9c .cfa: sp 0 + .ra: lr
STACK CFI 315a .cfa: sp 16 + .ra: .cfa -4 + ^ r7: .cfa -8 + ^ r6: .cfa -12 + ^ r4: .cfa -16 + ^
STACK CFI 315c .cfa: r7 8 +
