MODULE Linux arm 123DE456238944D1B6559A0BEAC935CD0 TestQuickReturn
INFO CODE_ID 56E43D128923D144B6559A0BEAC935CD388F37BF
INFO GENERATOR mozilla/dump_syms 2.3.6
PUBLIC 3a8 0 _start
PUBLIC 3b8 0 _start_main
PUBLIC 424 0 __atexit_handler_wrapper
PUBLIC 43c 0 atexit
PUBLIC 468 0 pthread_atfork
PUBLIC 484 0 call_fini_array
FUNC 4c8 12 0 main
PUBLIC 4e0 0 <.plt ELF section in TestQuickReturn>
STACK CFI INIT 4c8 12 .cfa: sp 0 + .ra: lr
STACK CFI 4ca .cfa: sp 8 + .ra: .cfa -4 + ^ r7: .cfa -8 + ^
STACK CFI 4cc .cfa: r7 8 +
