MODULE Linux arm 2B14DFDAC29BB981AA689DF8B54AB6CB0 TestIntegerPrintfMacros
INFO CODE_ID DADF142B9BC281B9AA689DF8B54AB6CB8879FF87
INFO GENERATOR mozilla/dump_syms 2.3.6
PUBLIC 12c8 0 _start
PUBLIC 12d8 0 _start_main
PUBLIC 1344 0 __atexit_handler_wrapper
PUBLIC 135c 0 atexit
PUBLIC 1388 0 pthread_atfork
PUBLIC 13a4 0 call_fini_array
FUNC 13e8 c 0 main
FUNC 13f4 2584 0 TestPrint()
FUNC 3978 c4 0 SprintfLiteral<(unsigned int)32>(char (&) [(unsigned int)32], char const*, ...)
FUNC 3a3c 50 0 MOZ_ReportAssertionFailure(char const*, char const*, int)
FUNC 3a8c 6 0 mozilla::PrintfTarget::~PrintfTarget()
FUNC 3a92 c 0 mozilla::detail::SprintfAppend::~SprintfAppend()
FUNC 3a9e 30 0 mozilla::detail::SprintfAppend::append(char const*, unsigned int)
FUNC 3ad0 20 0 MOZ_ReportAssertionFailurePrintFrame(char const*)
PUBLIC m 3af0 0 __aeabi_memcpy
PUBLIC 3af5 0 __ThumbV7PILongThunk_MozWalkTheStackWithWriter
PUBLIC 3b01 0 __ThumbV7PILongThunk__ZdlPv
PUBLIC 3b0d 0 __ThumbV7PILongThunk___android_log_print
PUBLIC 3b20 0 <.plt ELF section in TestIntegerPrintfMacros>
STACK CFI INIT 13e8 c .cfa: sp 0 + .ra: lr
STACK CFI 13ea .cfa: sp 8 + .ra: .cfa -4 + ^ r7: .cfa -8 + ^
STACK CFI 13ec .cfa: r7 8 +
STACK CFI INIT 13f4 2584 .cfa: sp 0 + .ra: lr
STACK CFI 13f6 .cfa: sp 20 + .ra: .cfa -4 + ^ r7: .cfa -8 + ^ r6: .cfa -12 + ^ r5: .cfa -16 + ^ r4: .cfa -20 + ^
STACK CFI 13f8 .cfa: r7 8 +
STACK CFI 13fc r11: .cfa -24 + ^ r10: .cfa -28 + ^ r9: .cfa -32 + ^ r8: .cfa -36 + ^
STACK CFI INIT 3978 c4 .cfa: sp 0 + .ra: lr
STACK CFI 397a .cfa: sp 8 +
STACK CFI 397c .cfa: sp 28 + .ra: .cfa -12 + ^ r7: .cfa -16 + ^ r6: .cfa -20 + ^ r5: .cfa -24 + ^ r4: .cfa -28 + ^
STACK CFI 397e .cfa: r7 16 +
STACK CFI 3982 r11: .cfa -32 + ^
STACK CFI INIT 3a3c 50 .cfa: sp 0 + .ra: lr
STACK CFI 3a3e .cfa: sp 20 + .ra: .cfa -4 + ^ r7: .cfa -8 + ^ r6: .cfa -12 + ^ r5: .cfa -16 + ^ r4: .cfa -20 + ^
STACK CFI 3a40 .cfa: r7 8 +
STACK CFI 3a44 r8: .cfa -24 + ^
STACK CFI INIT 3a8c 6 .cfa: sp 0 + .ra: lr
STACK CFI 3a8e .cfa: sp 8 + .ra: .cfa -4 + ^ r7: .cfa -8 + ^
STACK CFI 3a90 .cfa: r7 8 +
STACK CFI INIT 3a92 c .cfa: sp 0 + .ra: lr
STACK CFI 3a94 .cfa: sp 8 + .ra: .cfa -4 + ^ r7: .cfa -8 + ^
STACK CFI 3a96 .cfa: r7 8 +
STACK CFI INIT 3a9e 30 .cfa: sp 0 + .ra: lr
STACK CFI 3aa2 .cfa: sp 16 + .ra: .cfa -4 + ^ r7: .cfa -8 + ^ r5: .cfa -12 + ^ r4: .cfa -16 + ^
STACK CFI 3aa4 .cfa: r7 8 +
STACK CFI INIT 3ad0 20 .cfa: sp 0 + .ra: lr
STACK CFI 3ad2 .cfa: sp 8 + .ra: .cfa -4 + ^ r7: .cfa -8 + ^
STACK CFI 3ad4 .cfa: r7 8 +
