MODULE Linux arm 108D183CFB8C76DB5679DCB08045BDB00 libplugin-container.so
INFO CODE_ID 3C188D108CFBDB765679DCB08045BDB0349D6610
INFO GENERATOR mozilla/dump_syms 2.3.7
PUBLIC 4e8 0 _start
PUBLIC 4f8 0 _start_main
PUBLIC 564 0 __atexit_handler_wrapper
PUBLIC 57c 0 atexit
PUBLIC 5a8 0 pthread_atfork
PUBLIC 5c4 0 call_fini_array
FUNC 608 70 0 main
PUBLIC 680 0 <.plt ELF section in libplugin-container.so>
STACK CFI INIT 608 70 .cfa: sp 0 + .ra: lr
STACK CFI 60a .cfa: sp 16 + .ra: .cfa -4 + ^ r7: .cfa -8 + ^ r5: .cfa -12 + ^ r4: .cfa -16 + ^
STACK CFI 60c .cfa: r7 8 +
