MODULE Linux arm B4EAE209CBFCADBD0BB01747546D08140 TestNotNull
INFO CODE_ID 09E2EAB4FCCBBDAD0BB01747546D0814A7F4AC1F
INFO GENERATOR mozilla/dump_syms 2.3.6
PUBLIC 588 0 _start
PUBLIC 598 0 _start_main
PUBLIC 604 0 __atexit_handler_wrapper
PUBLIC 61c 0 atexit
PUBLIC 648 0 pthread_atfork
PUBLIC 664 0 call_fini_array
FUNC 6a8 6 0 f_i(int*)
FUNC 6b0 3c 0 MOZ_ReportAssertionFailure(char const*, char const*, int)
FUNC 6ec 20 0 f_ref(mozilla::NotNull<MyRefType*>)
FUNC 70c 4a 0 TestNotNullWithRefPtr()
FUNC 756 1a 0 TestMakeNotNull()
FUNC 770 18 0 CreateNotNullUniquePtr()
FUNC 788 1e 0 main
FUNC 7a8 64 0 MyRefType::Release()
PUBLIC 810 0 <.plt ELF section in TestNotNull>
STACK CFI INIT 6a8 6 .cfa: sp 0 + .ra: lr
STACK CFI 6aa .cfa: sp 8 + .ra: .cfa -4 + ^ r7: .cfa -8 + ^
STACK CFI 6ac .cfa: r7 8 +
STACK CFI INIT 0 6 .cfa: sp 0 + .ra: lr
STACK CFI 2 .cfa: sp 8 + .ra: .cfa -4 + ^ r7: .cfa -8 + ^
STACK CFI 4 .cfa: r7 8 +
STACK CFI INIT 0 6 .cfa: sp 0 + .ra: lr
STACK CFI 2 .cfa: sp 8 + .ra: .cfa -4 + ^ r7: .cfa -8 + ^
STACK CFI 4 .cfa: r7 8 +
STACK CFI INIT 0 6 .cfa: sp 0 + .ra: lr
STACK CFI 2 .cfa: sp 8 + .ra: .cfa -4 + ^ r7: .cfa -8 + ^
STACK CFI 4 .cfa: r7 8 +
STACK CFI INIT 0 6 .cfa: sp 0 + .ra: lr
STACK CFI 2 .cfa: sp 8 + .ra: .cfa -4 + ^ r7: .cfa -8 + ^
STACK CFI 4 .cfa: r7 8 +
STACK CFI INIT 6b0 3c .cfa: sp 0 + .ra: lr
STACK CFI 6b2 .cfa: sp 20 + .ra: .cfa -4 + ^ r7: .cfa -8 + ^ r6: .cfa -12 + ^ r5: .cfa -16 + ^ r4: .cfa -20 + ^
STACK CFI 6b4 .cfa: r7 8 +
STACK CFI 6b8 r11: .cfa -24 + ^
STACK CFI INIT 6ec 20 .cfa: sp 0 + .ra: lr
STACK CFI 6ee .cfa: sp 8 + .ra: .cfa -4 + ^ r7: .cfa -8 + ^
STACK CFI 6f0 .cfa: r7 8 +
STACK CFI INIT 70c 4a .cfa: sp 0 + .ra: lr
STACK CFI 70e .cfa: sp 16 + .ra: .cfa -4 + ^ r7: .cfa -8 + ^ r6: .cfa -12 + ^ r4: .cfa -16 + ^
STACK CFI 710 .cfa: r7 8 +
STACK CFI INIT 756 1a .cfa: sp 0 + .ra: lr
STACK CFI 758 .cfa: sp 8 + .ra: .cfa -4 + ^ r7: .cfa -8 + ^
STACK CFI 75a .cfa: r7 8 +
STACK CFI INIT 770 18 .cfa: sp 0 + .ra: lr
STACK CFI 772 .cfa: sp 16 + .ra: .cfa -4 + ^ r7: .cfa -8 + ^ r6: .cfa -12 + ^ r4: .cfa -16 + ^
STACK CFI 774 .cfa: r7 8 +
STACK CFI INIT 0 6 .cfa: sp 0 + .ra: lr
STACK CFI 2 .cfa: sp 8 + .ra: .cfa -4 + ^ r7: .cfa -8 + ^
STACK CFI 4 .cfa: r7 8 +
STACK CFI INIT 788 1e .cfa: sp 0 + .ra: lr
STACK CFI 78a .cfa: sp 8 + .ra: .cfa -4 + ^ r7: .cfa -8 + ^
STACK CFI 78c .cfa: r7 8 +
STACK CFI INIT 7a8 64 .cfa: sp 0 + .ra: lr
STACK CFI 7aa .cfa: sp 16 + .ra: .cfa -4 + ^ r7: .cfa -8 + ^ r6: .cfa -12 + ^ r4: .cfa -16 + ^
STACK CFI 7ac .cfa: r7 8 +
