MODULE Linux arm B1DF38B39CF90348C96F22E8B2BAF1150 TestAtomics
INFO CODE_ID B338DFB1F99C4803C96F22E8B2BAF115916097B2
INFO GENERATOR mozilla/dump_syms 2.3.6
PUBLIC 12e0 0 _start
PUBLIC 12f0 0 _start_main
PUBLIC 135c 0 __atexit_handler_wrapper
PUBLIC 1374 0 atexit
PUBLIC 13a0 0 pthread_atfork
PUBLIC 13bc 0 call_fini_array
FUNC 1400 5634 0 main
FUNC 6a34 ec0 0 TestType<unsigned int>()
FUNC 78f4 38 0 MOZ_ReportAssertionFailure(char const*, char const*, int)
PUBLIC m 792c 0 __aeabi_memset8
PUBLIC m 793c 0 __aeabi_memclr
PUBLIC 7950 0 <.plt ELF section in TestAtomics>
STACK CFI INIT 1400 5634 .cfa: sp 0 + .ra: lr
STACK CFI 1402 .cfa: sp 20 + .ra: .cfa -4 + ^ r7: .cfa -8 + ^ r6: .cfa -12 + ^ r5: .cfa -16 + ^ r4: .cfa -20 + ^
STACK CFI 1404 .cfa: r7 8 +
STACK CFI 1408 r11: .cfa -24 + ^ r9: .cfa -28 + ^ r8: .cfa -32 + ^
STACK CFI INIT 6a34 ec0 .cfa: sp 0 + .ra: lr
STACK CFI 6a36 .cfa: sp 16 + .ra: .cfa -4 + ^ r7: .cfa -8 + ^ r6: .cfa -12 + ^ r4: .cfa -16 + ^
STACK CFI 6a38 .cfa: r7 8 +
STACK CFI INIT 0 ec0 .cfa: sp 0 + .ra: lr
STACK CFI 2 .cfa: sp 16 + .ra: .cfa -4 + ^ r7: .cfa -8 + ^ r6: .cfa -12 + ^ r4: .cfa -16 + ^
STACK CFI 4 .cfa: r7 8 +
STACK CFI INIT 78f4 38 .cfa: sp 0 + .ra: lr
STACK CFI 78f6 .cfa: sp 16 + .ra: .cfa -4 + ^ r7: .cfa -8 + ^ r5: .cfa -12 + ^ r4: .cfa -16 + ^
STACK CFI 78f8 .cfa: r7 8 +
