MODULE Linux arm 295C2995C61DE5EFEDFFD1E1EF33A4980 TestMozCrash
INFO CODE_ID 95295C291DC6EFE5EDFFD1E1EF33A4989A894841
INFO GENERATOR mozilla/dump_syms 2.3.6
PUBLIC 6b0 0 _start
PUBLIC 6c0 0 _start_main
PUBLIC 72c 0 __atexit_handler_wrapper
PUBLIC 744 0 atexit
PUBLIC 770 0 pthread_atfork
PUBLIC 78c 0 call_fini_array
FUNC 7d0 1c 0 handler(int)
FUNC 7ec 16c 0 main
PUBLIC 960 0 <.plt ELF section in TestMozCrash>
STACK CFI INIT 7d0 1c .cfa: sp 0 + .ra: lr
STACK CFI 7d2 .cfa: sp 8 + .ra: .cfa -4 + ^ r7: .cfa -8 + ^
STACK CFI 7d4 .cfa: r7 8 +
STACK CFI INIT 7ec 16c .cfa: sp 0 + .ra: lr
STACK CFI 7ee .cfa: sp 16 + .ra: .cfa -4 + ^ r7: .cfa -8 + ^ r5: .cfa -12 + ^ r4: .cfa -16 + ^
STACK CFI 7f0 .cfa: r7 8 +
