MODULE Linux arm 5C841135CC16CA9BAC4EDE43C9E380410 certutil
INFO CODE_ID 3511845C16CC9BCAAC4EDE43C9E38041DA2C1478
INFO GENERATOR mozilla/dump_syms 2.3.7
PUBLIC 18168 0 _start
PUBLIC 18178 0 _start_main
PUBLIC 181e4 0 __atexit_handler_wrapper
PUBLIC 181fc 0 atexit
PUBLIC 18228 0 pthread_atfork
PUBLIC 18244 0 call_fini_array
FUNC 18288 4a 0 GetOidFromString
FUNC 182d4 183c 0 AddExtensions
FUNC 19b10 1b4 0 AddNscpCertType
FUNC 19cc4 2cc 0 AddInfoAccess
FUNC 19f90 6b0 0 AddCertPolicies
FUNC 1a640 260 0 AddPolicyMappings
FUNC 1a8a0 1f8 0 AddPolicyConstraints
FUNC 1aa98 15c 0 AddInhibitAnyPolicy
FUNC 1abf4 94 0 PrintChoicesAndGetAnswer
FUNC 1ac88 90 0 parseNextCmdInput
FUNC 1ad18 290 0 GetGeneralName
FUNC 1afa8 e0 0 GetString
FUNC 1b088 388 0 AddSubjectAltNames
FUNC 1b410 58 0 getObjectClass
FUNC 1b468 44 0 _ZL8snprintfPcU17pass_object_size1jPKcz
FUNC 1b4ac 10c 0 GetFlags
FUNC 1b5b8 24 0 GetOpFlags
FUNC 1b5dc 24 0 GetAttrFlags
FUNC 1b600 2a 0 mkNickname
FUNC 1b62c 15c 0 DumpMergeLog
FUNC 1b788 18 0 main
FUNC 1b7a0 18d0 0 certutil_main
FUNC 1d070 1c90 0 LongUsage
FUNC 1ed00 224 0 ListCerts
FUNC 1ef24 120 0 DumpChain
FUNC 1f044 f8 0 ListKeys
FUNC 1f13c 8c 0 ListModules
FUNC 1f1c8 5c 0 DeleteCert
FUNC 1f224 6c 0 RenameCert
FUNC 1f290 88 0 DeleteCertAndKey
FUNC 1f318 dc 0 findPrivateKeyByID
FUNC 1f3f4 b4 0 DeleteKey
FUNC 1f4a8 bc 0 ChangeTrustAttributes
FUNC 1f564 250 0 ValidateCert
FUNC 1f7b4 398 0 CertReq
FUNC 1fb4c 520 0 CreateCert
FUNC 2006c 14c 0 AddCert
FUNC 201b8 4c 0 Usage
FUNC 20204 23c 0 PrintSyntax
FUNC 20440 15c 0 luCommonDetailsAE
FUNC 2059c 104 0 outputCertOrExtension
FUNC 206a0 21c 0 ListKeysInSlot
FUNC 208bc bc 0 formatPrivateKeyID
FUNC 20978 a8 0 ChangeCertTrust
FUNC 20a20 16 0 CERTUTIL_DestroyParamsPQG
FUNC 20a38 3c0 0 CERTUTIL_GeneratePrivateKey
FUNC 20df8 228 0 UpdateRNG
FUNC 21020 10 0 SECU_EnableWrap
FUNC 21030 10 0 SECU_GetWrapEnabled
FUNC 21040 bc 0 SECU_PrintErrMsg
FUNC 210fc 34 0 SECU_Indent
FUNC 21130 cc 0 SECU_PrintError
FUNC 211fc 90 0 SECU_PrintSystemError
FUNC 2128c c8 0 secu_StdinToItem
FUNC 21354 d0 0 SECU_FileToItem
FUNC 21424 f4 0 SECU_TextFileToItem
FUNC 21518 10 0 SECU_Newline
FUNC 21528 24c 0 SECU_PrintAsHex
FUNC 21774 fc 0 SECU_PrintBuf
FUNC 21870 180 0 SECU_PrintInteger
FUNC 219f0 a2 0 HasNoDuplicates
FUNC 21a94 3e8 0 SECU_ParseCommandLine
FUNC 21e7c 2a 0 SECU_GetOptionArg
FUNC 21ea8 a4 0 SECU_PrintPRandOSError
FUNC 21f4c b4 0 SECU_StringToSignatureAlgTag
FUNC 22000 42 0 SECU_SECItemToHex
FUNC 22044 4c 0 _ZL8snprintfPcU17pass_object_size1jPKcz
FUNC 22090 fc 0 SECU_SECItemHexStringToBinary
FUNC 2218c b4 0 SECU_HexString2SECItem
FUNC 22240 78 0 SECU_ecName2params
FUNC 222b8 2c 0 DER_PrettyPrint
FUNC 222e4 62c 0 prettyPrintItem
FUNC 22910 120 0 prettyPrintTime
FUNC 22a30 a0 0 prettyPrintByte
FUNC 22ad0 e0 0 prettyPrintStringStart
FUNC 22bb0 18 0 SECU_cert_fetchOID
FUNC 22bc8 34 0 SECU_RegisterDynamicOids
FUNC 22bfc 40 0 getName
FUNC 22c3c 34 0 getNameFromAttribute
FUNC 22c70 64 0 totalKnownType
FUNC 22cd4 22c 0 SECU_PrintPolicy
FUNC 22f00 ac 0 SECU_PrintPrivKeyUsagePeriodExtension
FUNC 22fac 160 0 SEC_GetPassword
FUNC 2310c 2a 0 SEC_CheckPassword
FUNC 23136 c 0 SEC_BlindCheckPassword
FUNC 23142 c 0 EXTEN_EXT_VALUE_ENCODER_CERT_EncodeAltNameExtension
FUNC 2314e c 0 EXTEN_EXT_VALUE_ENCODER_CERT_EncodeAuthKeyID
FUNC 2315a c 0 EXTEN_EXT_VALUE_ENCODER_CERT_EncodeBasicConstraintValue
FUNC 23166 c 0 EXTEN_EXT_VALUE_ENCODER_CERT_EncodeCRLDistributionPoints
FUNC 23172 c 0 EXTEN_EXT_VALUE_ENCODER_CERT_EncodeCertPoliciesExtension
FUNC 2317e c 0 EXTEN_EXT_VALUE_ENCODER_CERT_EncodeInfoAccessExtension
FUNC 2318a c 0 EXTEN_EXT_VALUE_ENCODER_CERT_EncodeInhibitAnyExtension
FUNC 23196 c 0 EXTEN_EXT_VALUE_ENCODER_CERT_EncodeNameConstraintsExtension
FUNC 231a2 c 0 EXTEN_EXT_VALUE_ENCODER_CERT_EncodePolicyConstraintsExtension
FUNC 231ae c 0 EXTEN_EXT_VALUE_ENCODER_CERT_EncodePolicyMappingExtension
FUNC 231ba c 0 EXTEN_EXT_VALUE_ENCODER_CERT_EncodeSubjectKeyID
FUNC 231c8 10 0 SECU_EnableUtf8Display
FUNC 231d8 10 0 SECU_GetUtf8DisplayEnabled
FUNC 231e8 ac 0 SECU_GetPasswordString
FUNC 23294 140 0 SECU_FilePasswd
FUNC 233d4 12c 0 SECU_GetModulePassword
FUNC 23500 154 0 secu_InitSlotPassword
FUNC 23654 14 0 SECU_ChangePW
FUNC 23668 164 0 SECU_ChangePW2
FUNC 237cc 64 0 SECU_DefaultSSLDir
FUNC 23830 54 0 SECU_AppendFilenameToDir
FUNC 23884 d0 0 SECU_ConfigDirectory
FUNC 23954 198 0 SECU_ReadDERFromFile
FUNC 23aec 72 0 SECU_StripTagAndLength
FUNC 23b60 13c 0 SECU_ExtractBERAndStep
FUNC 23c9c 64 0 SECU_PrintString
FUNC 23d00 5c 0 SECU_PrintUTCTime
FUNC 23d5c b8 0 secu_PrintTime
FUNC 23e14 5c 0 SECU_PrintGeneralizedTime
FUNC 23e70 b0 0 SECU_PrintTimeChoice
FUNC 23f20 9c 0 SECU_PrintEncodedBoolean
FUNC 23fbc 5c 0 SECU_PrintEncodedInteger
FUNC 24018 60 0 SECU_PrintEncodedObjectID
FUNC 24078 a8 0 SECU_PrintObjectID
FUNC 24120 364 0 SECU_PrintAny
FUNC 24484 54 0 SECU_PrintOidTag
FUNC 244d8 1ec 0 secu_PrintRSAPSSParams
FUNC 246c4 154 0 secu_PrintKDF2Params
FUNC 24818 d4 0 SECU_PrintAlgorithmID
FUNC 248ec 104 0 secu_PrintPKCS5V2Params
FUNC 249f0 104 0 secu_PrintPBEParams
FUNC 24af4 88 0 SECU_PrintRSAPublicKey
FUNC 24b7c 80 0 SECU_PrintDSAPublicKey
FUNC 24bfc 84 0 SECU_PrintMLDSAPublicKey
FUNC 24c80 28c 0 SECU_PrintDumpDerIssuerAndSerial
FUNC 24f0c c4 0 SECU_PrintName
FUNC 24fd0 a50 0 SECU_PrintExtensions
FUNC 25a20 90 0 SECU_PrintRDN
FUNC 25ab0 c4 0 SECU_PrintNameQuotesOptional
FUNC 25b74 10c 0 secu_PrintRawStringQuotesOptional
FUNC 25c80 e2 0 printflags
FUNC 25d64 e8 0 SECU_PrintCertNickname
FUNC 25e4c 94 0 SECU_DecodeAndPrintExtensions
FUNC 25ee0 6c 0 SECU_PrintSetOfExtensions
FUNC 25f4c 64 0 SECU_PrintSetOfAny
FUNC 25fb0 b4 0 SECU_PrintCertAttribute
FUNC 26064 34 0 SECU_PrintCertAttributes
FUNC 26098 154 0 SECU_PrintCertificateRequest
FUNC 261ec 21c 0 secu_PrintSubjectPublicKeyInfo
FUNC 26408 300 0 SECU_PrintCertificate
FUNC 26708 218 0 SECU_PrintCertificateBasicInfo
FUNC 26920 bc 0 SECU_PrintSubjectPublicKeyInfo
FUNC 269dc d0 0 SECU_PrintPrivateKey
FUNC 26aac 17c 0 SECU_PrintFingerprints
FUNC 26c28 1e8 0 SECU_PrintCRLInfo
FUNC 26e10 68 0 SECU_PrintCrl
FUNC 26e78 50 0 SECU_PrintPKCS7ContentInfo
FUNC 26ec8 14c 0 printFlags
FUNC 27014 a4 0 SECU_PrintTrustFlags
FUNC 270b8 e4 0 SECU_PrintDERName
FUNC 2719c 1a 0 SECU_PrintSignedData
FUNC 271b8 dc 0 secu_PrintSignedDataSigOpt
FUNC 27294 1a 0 SECU_PrintSignedContent
FUNC 272b0 1e8 0 SEC_PrintCertificateAndTrust
FUNC 27498 a8 0 SECU_printCertProblemsOnDate
FUNC 27540 1fc 0 SECU_displayVerifyLog
FUNC 2773c 42 0 SECU_printCertProblems
FUNC 27780 b0 0 SECU_StoreCRL
FUNC 27830 1c4 0 SECU_SignAndEncodeCRL
FUNC 279f4 a4 0 SECU_DerSignDataCRL
FUNC 27a98 b4 0 SECU_CopyCRL
FUNC 27b4c b8 0 SECU_FindCrlIssuer
FUNC 27c04 64 0 SECU_EncodeAndAddExtensionValue
FUNC 27c68 a4 0 SECU_FindCertByNicknameOrFilename
FUNC 27d0c ec 0 SECU_ParseSSLVersionRangeString
FUNC 27df8 a4 0 SECU_GetSSLVersionFromName
FUNC 27e9c 110 0 parseGroupList
FUNC 27fac e4 0 SECU_NamedGroupToGroupName
FUNC 28090 20 0 SECU_NamedGroupGetNextName
FUNC 280b0 20 0 SECU_SignatureSchemeGetNextScheme
FUNC 280d0 16c 0 SECU_SignatureSchemeName
FUNC 2823c 48 0 schemeNameToScheme
FUNC 28284 10c 0 parseSigSchemeList
FUNC 28390 1b4 0 parseExporters
FUNC 28544 13c 0 exportKeyingMaterials
FUNC 28680 178 0 readPSK
FUNC 287f8 16c 0 SECU_PrintPKCS12
FUNC 28964 228 0 secu_PrintPKCS12MacData
FUNC 28b8c 124 0 SECU_PrintSet
FUNC 28cb0 5c 0 secu_PrintOctetString
FUNC 28d0c 88 0 secu_PrintBitString
FUNC 28d94 d4 0 secu_PrintBMPString
FUNC 28e68 d0 0 secu_PrintUniversalString
FUNC 28f38 2b8 0 secu_PrintGeneralName
FUNC 291f0 90 0 secu_PrintNameConstraintSubtree
FUNC 29280 8ec 0 secu_PrintPKCS7ContentInfo
FUNC 29b6c 1fc 0 secu_PrintSignerInfo
FUNC 29d68 118 0 secu_PrintAttribute
FUNC 29e80 10c 0 secu_PrintRecipientInfo
FUNC 29f8c 90 0 secu_PrintPKCS7EncContent
FUNC 2a01c 344 0 secu_PrintPKCS12Bag
FUNC 2a360 16c 0 secu_PrintPKCS12Attributes
PUBLIC m 2a4cc 0 __aeabi_memcpy
PUBLIC m 2a4d0 0 __aeabi_memset
PUBLIC m 2a4e0 0 __aeabi_memclr
PUBLIC 2a4ed 0 __ThumbV7PILongThunk_SECITEM_CopyItem_Util
PUBLIC 2a4f9 0 __ThumbV7PILongThunk_fputc
PUBLIC 2a505 0 __ThumbV7PILongThunk_SECITEM_ZfreeItem_Util
PUBLIC 2a511 0 __ThumbV7PILongThunk_CERT_ChangeCertTrust
PUBLIC 2a51d 0 __ThumbV7PILongThunk_PORT_FreeArena_Util
PUBLIC 2a529 0 __ThumbV7PILongThunk_fwrite
PUBLIC 2a535 0 __ThumbV7PILongThunk_fprintf
PUBLIC 2a541 0 __ThumbV7PILongThunk_PL_strdup
PUBLIC 2a54d 0 __ThumbV7PILongThunk_CERT_EncodeAltNameExtension
PUBLIC 2a559 0 __ThumbV7PILongThunk_CERT_EncodeAuthKeyID
PUBLIC 2a565 0 __ThumbV7PILongThunk_CERT_EncodeBasicConstraintValue
PUBLIC 2a571 0 __ThumbV7PILongThunk_CERT_EncodeCRLDistributionPoints
PUBLIC 2a57d 0 __ThumbV7PILongThunk_CERT_EncodeCertPoliciesExtension
PUBLIC 2a589 0 __ThumbV7PILongThunk_CERT_EncodeInfoAccessExtension
PUBLIC 2a595 0 __ThumbV7PILongThunk_CERT_EncodeInhibitAnyExtension
PUBLIC 2a5a1 0 __ThumbV7PILongThunk_CERT_EncodeNameConstraintsExtension
PUBLIC 2a5ad 0 __ThumbV7PILongThunk_CERT_EncodePolicyConstraintsExtension
PUBLIC 2a5b9 0 __ThumbV7PILongThunk_CERT_EncodePolicyMappingExtension
PUBLIC 2a5c5 0 __ThumbV7PILongThunk_CERT_EncodeSubjectKeyID
PUBLIC 2a5d1 0 __ThumbV7PILongThunk_PR_Assert
PUBLIC 2a5dd 0 __ThumbV7PILongThunk_PORT_SetError_Util
PUBLIC 2a5e9 0 __ThumbV7PILongThunk_PORT_Free_Util
PUBLIC 2a600 0 <.plt ELF section in certutil>
STACK CFI INIT 18288 4a .cfa: sp 0 + .ra: lr
STACK CFI 1828a .cfa: sp 20 + .ra: .cfa -4 + ^ r7: .cfa -8 + ^ r6: .cfa -12 + ^ r5: .cfa -16 + ^ r4: .cfa -20 + ^
STACK CFI 1828c .cfa: r7 8 +
STACK CFI 18290 r8: .cfa -24 + ^
STACK CFI INIT 182d4 183c .cfa: sp 0 + .ra: lr
STACK CFI 182d6 .cfa: sp 20 + .ra: .cfa -4 + ^ r7: .cfa -8 + ^ r6: .cfa -12 + ^ r5: .cfa -16 + ^ r4: .cfa -20 + ^
STACK CFI 182d8 .cfa: r7 8 +
STACK CFI 182dc r11: .cfa -24 + ^ r10: .cfa -28 + ^ r9: .cfa -32 + ^ r8: .cfa -36 + ^
STACK CFI INIT 19b10 1b4 .cfa: sp 0 + .ra: lr
STACK CFI 19b12 .cfa: sp 20 + .ra: .cfa -4 + ^ r7: .cfa -8 + ^ r6: .cfa -12 + ^ r5: .cfa -16 + ^ r4: .cfa -20 + ^
STACK CFI 19b14 .cfa: r7 8 +
STACK CFI 19b18 r11: .cfa -24 + ^ r10: .cfa -28 + ^ r9: .cfa -32 + ^ r8: .cfa -36 + ^
STACK CFI INIT 19cc4 2cc .cfa: sp 0 + .ra: lr
STACK CFI 19cc6 .cfa: sp 20 + .ra: .cfa -4 + ^ r7: .cfa -8 + ^ r6: .cfa -12 + ^ r5: .cfa -16 + ^ r4: .cfa -20 + ^
STACK CFI 19cc8 .cfa: r7 8 +
STACK CFI 19ccc r11: .cfa -24 + ^ r10: .cfa -28 + ^ r9: .cfa -32 + ^ r8: .cfa -36 + ^
STACK CFI INIT 19f90 6b0 .cfa: sp 0 + .ra: lr
STACK CFI 19f92 .cfa: sp 20 + .ra: .cfa -4 + ^ r7: .cfa -8 + ^ r6: .cfa -12 + ^ r5: .cfa -16 + ^ r4: .cfa -20 + ^
STACK CFI 19f94 .cfa: r7 8 +
STACK CFI 19f98 r11: .cfa -24 + ^ r10: .cfa -28 + ^ r9: .cfa -32 + ^ r8: .cfa -36 + ^
STACK CFI INIT 1a640 260 .cfa: sp 0 + .ra: lr
STACK CFI 1a642 .cfa: sp 20 + .ra: .cfa -4 + ^ r7: .cfa -8 + ^ r6: .cfa -12 + ^ r5: .cfa -16 + ^ r4: .cfa -20 + ^
STACK CFI 1a644 .cfa: r7 8 +
STACK CFI 1a648 r11: .cfa -24 + ^ r10: .cfa -28 + ^ r9: .cfa -32 + ^ r8: .cfa -36 + ^
STACK CFI INIT 1a8a0 1f8 .cfa: sp 0 + .ra: lr
STACK CFI 1a8a2 .cfa: sp 20 + .ra: .cfa -4 + ^ r7: .cfa -8 + ^ r6: .cfa -12 + ^ r5: .cfa -16 + ^ r4: .cfa -20 + ^
STACK CFI 1a8a4 .cfa: r7 8 +
STACK CFI 1a8a8 r11: .cfa -24 + ^ r9: .cfa -28 + ^ r8: .cfa -32 + ^
STACK CFI INIT 1aa98 15c .cfa: sp 0 + .ra: lr
STACK CFI 1aa9a .cfa: sp 20 + .ra: .cfa -4 + ^ r7: .cfa -8 + ^ r6: .cfa -12 + ^ r5: .cfa -16 + ^ r4: .cfa -20 + ^
STACK CFI 1aa9c .cfa: r7 8 +
STACK CFI 1aaa0 r8: .cfa -24 + ^
STACK CFI INIT 1abf4 94 .cfa: sp 0 + .ra: lr
STACK CFI 1abf6 .cfa: sp 20 + .ra: .cfa -4 + ^ r7: .cfa -8 + ^ r6: .cfa -12 + ^ r5: .cfa -16 + ^ r4: .cfa -20 + ^
STACK CFI 1abf8 .cfa: r7 8 +
STACK CFI 1abfc r11: .cfa -24 + ^
STACK CFI INIT 1ac88 90 .cfa: sp 0 + .ra: lr
STACK CFI 1ac8a .cfa: sp 20 + .ra: .cfa -4 + ^ r7: .cfa -8 + ^ r6: .cfa -12 + ^ r5: .cfa -16 + ^ r4: .cfa -20 + ^
STACK CFI 1ac8c .cfa: r7 8 +
STACK CFI 1ac90 r10: .cfa -24 + ^ r9: .cfa -28 + ^ r8: .cfa -32 + ^
STACK CFI INIT 1ad18 290 .cfa: sp 0 + .ra: lr
STACK CFI 1ad1a .cfa: sp 20 + .ra: .cfa -4 + ^ r7: .cfa -8 + ^ r6: .cfa -12 + ^ r5: .cfa -16 + ^ r4: .cfa -20 + ^
STACK CFI 1ad1c .cfa: r7 8 +
STACK CFI 1ad20 r11: .cfa -24 + ^ r10: .cfa -28 + ^ r9: .cfa -32 + ^ r8: .cfa -36 + ^
STACK CFI INIT 1afa8 e0 .cfa: sp 0 + .ra: lr
STACK CFI 1afaa .cfa: sp 20 + .ra: .cfa -4 + ^ r7: .cfa -8 + ^ r6: .cfa -12 + ^ r5: .cfa -16 + ^ r4: .cfa -20 + ^
STACK CFI 1afac .cfa: r7 8 +
STACK CFI 1afb0 r11: .cfa -24 + ^ r9: .cfa -28 + ^ r8: .cfa -32 + ^
STACK CFI INIT 1b088 388 .cfa: sp 0 + .ra: lr
STACK CFI 1b08a .cfa: sp 20 + .ra: .cfa -4 + ^ r7: .cfa -8 + ^ r6: .cfa -12 + ^ r5: .cfa -16 + ^ r4: .cfa -20 + ^
STACK CFI 1b08c .cfa: r7 8 +
STACK CFI 1b090 r11: .cfa -24 + ^ r10: .cfa -28 + ^ r9: .cfa -32 + ^ r8: .cfa -36 + ^
STACK CFI INIT 1b410 58 .cfa: sp 0 + .ra: lr
STACK CFI 1b438 .cfa: sp 16 + .ra: .cfa -4 + ^ r7: .cfa -8 + ^ r6: .cfa -12 + ^ r4: .cfa -16 + ^
STACK CFI 1b43a .cfa: r7 8 +
STACK CFI INIT 1b468 44 .cfa: sp 0 + .ra: lr
STACK CFI 1b46a .cfa: sp 8 + .ra: .cfa -4 + ^ r7: .cfa -8 + ^
STACK CFI 1b46c .cfa: r7 8 +
STACK CFI INIT 1b4ac 10c .cfa: sp 0 + .ra: lr
STACK CFI 1b4ae .cfa: sp 20 + .ra: .cfa -4 + ^ r7: .cfa -8 + ^ r6: .cfa -12 + ^ r5: .cfa -16 + ^ r4: .cfa -20 + ^
STACK CFI 1b4b0 .cfa: r7 8 +
STACK CFI 1b4b4 r11: .cfa -24 + ^ r10: .cfa -28 + ^ r9: .cfa -32 + ^ r8: .cfa -36 + ^
STACK CFI INIT 1b5b8 24 .cfa: sp 0 + .ra: lr
STACK CFI 1b5ba .cfa: sp 8 + .ra: .cfa -4 + ^ r7: .cfa -8 + ^
STACK CFI 1b5bc .cfa: r7 8 +
STACK CFI INIT 1b5dc 24 .cfa: sp 0 + .ra: lr
STACK CFI 1b5de .cfa: sp 8 + .ra: .cfa -4 + ^ r7: .cfa -8 + ^
STACK CFI 1b5e0 .cfa: r7 8 +
STACK CFI INIT 1b600 2a .cfa: sp 0 + .ra: lr
STACK CFI 1b602 .cfa: sp 20 + .ra: .cfa -4 + ^ r7: .cfa -8 + ^ r6: .cfa -12 + ^ r5: .cfa -16 + ^ r4: .cfa -20 + ^
STACK CFI 1b604 .cfa: r7 8 +
STACK CFI 1b608 r11: .cfa -24 + ^
STACK CFI INIT 1b62c 15c .cfa: sp 0 + .ra: lr
STACK CFI 1b62e .cfa: sp 20 + .ra: .cfa -4 + ^ r7: .cfa -8 + ^ r6: .cfa -12 + ^ r5: .cfa -16 + ^ r4: .cfa -20 + ^
STACK CFI 1b630 .cfa: r7 8 +
STACK CFI 1b634 r11: .cfa -24 + ^ r10: .cfa -28 + ^ r9: .cfa -32 + ^ r8: .cfa -36 + ^
STACK CFI INIT 1b788 18 .cfa: sp 0 + .ra: lr
STACK CFI 1b78a .cfa: sp 16 + .ra: .cfa -4 + ^ r7: .cfa -8 + ^ r6: .cfa -12 + ^ r4: .cfa -16 + ^
STACK CFI 1b78c .cfa: r7 8 +
STACK CFI INIT 1b7a0 18d0 .cfa: sp 0 + .ra: lr
STACK CFI 1b7a2 .cfa: sp 20 + .ra: .cfa -4 + ^ r7: .cfa -8 + ^ r6: .cfa -12 + ^ r5: .cfa -16 + ^ r4: .cfa -20 + ^
STACK CFI 1b7a4 .cfa: r7 8 +
STACK CFI 1b7a8 r11: .cfa -24 + ^ r10: .cfa -28 + ^ r9: .cfa -32 + ^ r8: .cfa -36 + ^
STACK CFI INIT 1d070 1c90 .cfa: sp 0 + .ra: lr
STACK CFI 1d072 .cfa: sp 20 + .ra: .cfa -4 + ^ r7: .cfa -8 + ^ r6: .cfa -12 + ^ r5: .cfa -16 + ^ r4: .cfa -20 + ^
STACK CFI 1d074 .cfa: r7 8 +
STACK CFI 1d078 r10: .cfa -24 + ^ r9: .cfa -28 + ^ r8: .cfa -32 + ^
STACK CFI INIT 1ed00 224 .cfa: sp 0 + .ra: lr
STACK CFI 1ed02 .cfa: sp 20 + .ra: .cfa -4 + ^ r7: .cfa -8 + ^ r6: .cfa -12 + ^ r5: .cfa -16 + ^ r4: .cfa -20 + ^
STACK CFI 1ed04 .cfa: r7 8 +
STACK CFI 1ed08 r11: .cfa -24 + ^ r10: .cfa -28 + ^ r9: .cfa -32 + ^ r8: .cfa -36 + ^
STACK CFI INIT 1ef24 120 .cfa: sp 0 + .ra: lr
STACK CFI 1ef26 .cfa: sp 20 + .ra: .cfa -4 + ^ r7: .cfa -8 + ^ r6: .cfa -12 + ^ r5: .cfa -16 + ^ r4: .cfa -20 + ^
STACK CFI 1ef28 .cfa: r7 8 +
STACK CFI 1ef2c r11: .cfa -24 + ^ r10: .cfa -28 + ^ r9: .cfa -32 + ^ r8: .cfa -36 + ^
STACK CFI INIT 1f044 f8 .cfa: sp 0 + .ra: lr
STACK CFI 1f046 .cfa: sp 20 + .ra: .cfa -4 + ^ r7: .cfa -8 + ^ r6: .cfa -12 + ^ r5: .cfa -16 + ^ r4: .cfa -20 + ^
STACK CFI 1f048 .cfa: r7 8 +
STACK CFI 1f04c r11: .cfa -24 + ^ r10: .cfa -28 + ^ r9: .cfa -32 + ^ r8: .cfa -36 + ^
STACK CFI INIT 1f13c 8c .cfa: sp 0 + .ra: lr
STACK CFI 1f13e .cfa: sp 20 + .ra: .cfa -4 + ^ r7: .cfa -8 + ^ r6: .cfa -12 + ^ r5: .cfa -16 + ^ r4: .cfa -20 + ^
STACK CFI 1f140 .cfa: r7 8 +
STACK CFI 1f144 r10: .cfa -24 + ^ r9: .cfa -28 + ^ r8: .cfa -32 + ^
STACK CFI INIT 1f1c8 5c .cfa: sp 0 + .ra: lr
STACK CFI 1f1ca .cfa: sp 16 + .ra: .cfa -4 + ^ r7: .cfa -8 + ^ r5: .cfa -12 + ^ r4: .cfa -16 + ^
STACK CFI 1f1cc .cfa: r7 8 +
STACK CFI INIT 1f224 6c .cfa: sp 0 + .ra: lr
STACK CFI 1f226 .cfa: sp 20 + .ra: .cfa -4 + ^ r7: .cfa -8 + ^ r6: .cfa -12 + ^ r5: .cfa -16 + ^ r4: .cfa -20 + ^
STACK CFI 1f228 .cfa: r7 8 +
STACK CFI 1f22c r11: .cfa -24 + ^
STACK CFI INIT 1f290 88 .cfa: sp 0 + .ra: lr
STACK CFI 1f292 .cfa: sp 20 + .ra: .cfa -4 + ^ r7: .cfa -8 + ^ r6: .cfa -12 + ^ r5: .cfa -16 + ^ r4: .cfa -20 + ^
STACK CFI 1f294 .cfa: r7 8 +
STACK CFI 1f298 r8: .cfa -24 + ^
STACK CFI INIT 1f318 dc .cfa: sp 0 + .ra: lr
STACK CFI 1f31a .cfa: sp 20 + .ra: .cfa -4 + ^ r7: .cfa -8 + ^ r6: .cfa -12 + ^ r5: .cfa -16 + ^ r4: .cfa -20 + ^
STACK CFI 1f31c .cfa: r7 8 +
STACK CFI 1f320 r11: .cfa -24 + ^ r9: .cfa -28 + ^ r8: .cfa -32 + ^
STACK CFI INIT 1f3f4 b4 .cfa: sp 0 + .ra: lr
STACK CFI 1f3f6 .cfa: sp 20 + .ra: .cfa -4 + ^ r7: .cfa -8 + ^ r6: .cfa -12 + ^ r5: .cfa -16 + ^ r4: .cfa -20 + ^
STACK CFI 1f3f8 .cfa: r7 8 +
STACK CFI 1f3fc r8: .cfa -24 + ^
STACK CFI INIT 1f4a8 bc .cfa: sp 0 + .ra: lr
STACK CFI 1f4aa .cfa: sp 20 + .ra: .cfa -4 + ^ r7: .cfa -8 + ^ r6: .cfa -12 + ^ r5: .cfa -16 + ^ r4: .cfa -20 + ^
STACK CFI 1f4ac .cfa: r7 8 +
STACK CFI 1f4b0 r10: .cfa -24 + ^ r9: .cfa -28 + ^ r8: .cfa -32 + ^
STACK CFI INIT 1f564 250 .cfa: sp 0 + .ra: lr
STACK CFI 1f566 .cfa: sp 20 + .ra: .cfa -4 + ^ r7: .cfa -8 + ^ r6: .cfa -12 + ^ r5: .cfa -16 + ^ r4: .cfa -20 + ^
STACK CFI 1f568 .cfa: r7 8 +
STACK CFI 1f56c r11: .cfa -24 + ^ r10: .cfa -28 + ^ r9: .cfa -32 + ^ r8: .cfa -36 + ^
STACK CFI INIT 1f7b4 398 .cfa: sp 0 + .ra: lr
STACK CFI 1f7b6 .cfa: sp 20 + .ra: .cfa -4 + ^ r7: .cfa -8 + ^ r6: .cfa -12 + ^ r5: .cfa -16 + ^ r4: .cfa -20 + ^
STACK CFI 1f7b8 .cfa: r7 8 +
STACK CFI 1f7bc r11: .cfa -24 + ^ r10: .cfa -28 + ^ r9: .cfa -32 + ^ r8: .cfa -36 + ^
STACK CFI INIT 1fb4c 520 .cfa: sp 0 + .ra: lr
STACK CFI 1fb4e .cfa: sp 20 + .ra: .cfa -4 + ^ r7: .cfa -8 + ^ r6: .cfa -12 + ^ r5: .cfa -16 + ^ r4: .cfa -20 + ^
STACK CFI 1fb50 .cfa: r7 8 +
STACK CFI 1fb54 r11: .cfa -24 + ^ r10: .cfa -28 + ^ r9: .cfa -32 + ^ r8: .cfa -36 + ^
STACK CFI INIT 2006c 14c .cfa: sp 0 + .ra: lr
STACK CFI 2006e .cfa: sp 20 + .ra: .cfa -4 + ^ r7: .cfa -8 + ^ r6: .cfa -12 + ^ r5: .cfa -16 + ^ r4: .cfa -20 + ^
STACK CFI 20070 .cfa: r7 8 +
STACK CFI 20074 r11: .cfa -24 + ^ r10: .cfa -28 + ^ r9: .cfa -32 + ^ r8: .cfa -36 + ^
STACK CFI INIT 201b8 4c .cfa: sp 0 + .ra: lr
STACK CFI 201ba .cfa: sp 16 + .ra: .cfa -4 + ^ r7: .cfa -8 + ^ r6: .cfa -12 + ^ r4: .cfa -16 + ^
STACK CFI 201bc .cfa: r7 8 +
STACK CFI INIT 20204 23c .cfa: sp 0 + .ra: lr
STACK CFI 20206 .cfa: sp 16 + .ra: .cfa -4 + ^ r7: .cfa -8 + ^ r5: .cfa -12 + ^ r4: .cfa -16 + ^
STACK CFI 20208 .cfa: r7 8 +
STACK CFI INIT 20440 15c .cfa: sp 0 + .ra: lr
STACK CFI 20442 .cfa: sp 16 + .ra: .cfa -4 + ^ r7: .cfa -8 + ^ r5: .cfa -12 + ^ r4: .cfa -16 + ^
STACK CFI 20444 .cfa: r7 8 +
STACK CFI INIT 2059c 104 .cfa: sp 0 + .ra: lr
STACK CFI 2059e .cfa: sp 20 + .ra: .cfa -4 + ^ r7: .cfa -8 + ^ r6: .cfa -12 + ^ r5: .cfa -16 + ^ r4: .cfa -20 + ^
STACK CFI 205a0 .cfa: r7 8 +
STACK CFI 205a4 r11: .cfa -24 + ^ r9: .cfa -28 + ^ r8: .cfa -32 + ^
STACK CFI INIT 206a0 21c .cfa: sp 0 + .ra: lr
STACK CFI 206a2 .cfa: sp 20 + .ra: .cfa -4 + ^ r7: .cfa -8 + ^ r6: .cfa -12 + ^ r5: .cfa -16 + ^ r4: .cfa -20 + ^
STACK CFI 206a4 .cfa: r7 8 +
STACK CFI 206a8 r11: .cfa -24 + ^ r10: .cfa -28 + ^ r9: .cfa -32 + ^ r8: .cfa -36 + ^
STACK CFI INIT 208bc bc .cfa: sp 0 + .ra: lr
STACK CFI 208be .cfa: sp 20 + .ra: .cfa -4 + ^ r7: .cfa -8 + ^ r6: .cfa -12 + ^ r5: .cfa -16 + ^ r4: .cfa -20 + ^
STACK CFI 208c0 .cfa: r7 8 +
STACK CFI 208c4 r11: .cfa -24 + ^ r9: .cfa -28 + ^ r8: .cfa -32 + ^
STACK CFI INIT 20978 a8 .cfa: sp 0 + .ra: lr
STACK CFI 2097a .cfa: sp 20 + .ra: .cfa -4 + ^ r7: .cfa -8 + ^ r6: .cfa -12 + ^ r5: .cfa -16 + ^ r4: .cfa -20 + ^
STACK CFI 2097c .cfa: r7 8 +
STACK CFI 20980 r11: .cfa -24 + ^ r10: .cfa -28 + ^ r9: .cfa -32 + ^ r8: .cfa -36 + ^
STACK CFI INIT 20a20 16 .cfa: sp 0 + .ra: lr
STACK CFI 20a22 .cfa: sp 8 + .ra: .cfa -4 + ^ r7: .cfa -8 + ^
STACK CFI 20a24 .cfa: r7 8 +
STACK CFI INIT 20a38 3c0 .cfa: sp 0 + .ra: lr
STACK CFI 20a3a .cfa: sp 20 + .ra: .cfa -4 + ^ r7: .cfa -8 + ^ r6: .cfa -12 + ^ r5: .cfa -16 + ^ r4: .cfa -20 + ^
STACK CFI 20a3c .cfa: r7 8 +
STACK CFI 20a40 r11: .cfa -24 + ^ r10: .cfa -28 + ^ r9: .cfa -32 + ^ r8: .cfa -36 + ^
STACK CFI INIT 20df8 228 .cfa: sp 0 + .ra: lr
STACK CFI 20dfa .cfa: sp 20 + .ra: .cfa -4 + ^ r7: .cfa -8 + ^ r6: .cfa -12 + ^ r5: .cfa -16 + ^ r4: .cfa -20 + ^
STACK CFI 20dfc .cfa: r7 8 +
STACK CFI 20e00 r11: .cfa -24 + ^ r10: .cfa -28 + ^ r9: .cfa -32 + ^ r8: .cfa -36 + ^
STACK CFI INIT 21020 10 .cfa: sp 0 + .ra: lr
STACK CFI 21022 .cfa: sp 8 + .ra: .cfa -4 + ^ r7: .cfa -8 + ^
STACK CFI 21024 .cfa: r7 8 +
STACK CFI INIT 21030 10 .cfa: sp 0 + .ra: lr
STACK CFI 21032 .cfa: sp 8 + .ra: .cfa -4 + ^ r7: .cfa -8 + ^
STACK CFI 21034 .cfa: r7 8 +
STACK CFI INIT 21040 bc .cfa: sp 0 + .ra: lr
STACK CFI 21042 .cfa: sp 20 + .ra: .cfa -4 + ^ r7: .cfa -8 + ^ r6: .cfa -12 + ^ r5: .cfa -16 + ^ r4: .cfa -20 + ^
STACK CFI 21044 .cfa: r7 8 +
STACK CFI 21048 r11: .cfa -24 + ^ r10: .cfa -28 + ^ r9: .cfa -32 + ^ r8: .cfa -36 + ^
STACK CFI INIT 210fc 34 .cfa: sp 0 + .ra: lr
STACK CFI 21104 .cfa: sp 20 + .ra: .cfa -4 + ^ r7: .cfa -8 + ^ r6: .cfa -12 + ^ r5: .cfa -16 + ^ r4: .cfa -20 + ^
STACK CFI 21106 .cfa: r7 8 +
STACK CFI 2110a r11: .cfa -24 + ^
STACK CFI INIT 21130 cc .cfa: sp 0 + .ra: lr
STACK CFI 21132 .cfa: sp 8 +
STACK CFI 21134 .cfa: sp 28 + .ra: .cfa -12 + ^ r7: .cfa -16 + ^ r6: .cfa -20 + ^ r5: .cfa -24 + ^ r4: .cfa -28 + ^
STACK CFI 21136 .cfa: r7 16 +
STACK CFI 2113a r10: .cfa -32 + ^ r9: .cfa -36 + ^ r8: .cfa -40 + ^
STACK CFI INIT 211fc 90 .cfa: sp 0 + .ra: lr
STACK CFI 211fe .cfa: sp 8 +
STACK CFI 21200 .cfa: sp 28 + .ra: .cfa -12 + ^ r7: .cfa -16 + ^ r6: .cfa -20 + ^ r5: .cfa -24 + ^ r4: .cfa -28 + ^
STACK CFI 21202 .cfa: r7 16 +
STACK CFI 21206 r11: .cfa -32 + ^
STACK CFI INIT 2128c c8 .cfa: sp 0 + .ra: lr
STACK CFI 2128e .cfa: sp 20 + .ra: .cfa -4 + ^ r7: .cfa -8 + ^ r6: .cfa -12 + ^ r5: .cfa -16 + ^ r4: .cfa -20 + ^
STACK CFI 21290 .cfa: r7 8 +
STACK CFI 21294 r8: .cfa -24 + ^
STACK CFI INIT 21354 d0 .cfa: sp 0 + .ra: lr
STACK CFI 21356 .cfa: sp 20 + .ra: .cfa -4 + ^ r7: .cfa -8 + ^ r6: .cfa -12 + ^ r5: .cfa -16 + ^ r4: .cfa -20 + ^
STACK CFI 21358 .cfa: r7 8 +
STACK CFI 2135c r11: .cfa -24 + ^
STACK CFI INIT 21424 f4 .cfa: sp 0 + .ra: lr
STACK CFI 21426 .cfa: sp 20 + .ra: .cfa -4 + ^ r7: .cfa -8 + ^ r6: .cfa -12 + ^ r5: .cfa -16 + ^ r4: .cfa -20 + ^
STACK CFI 21428 .cfa: r7 8 +
STACK CFI 2142c r11: .cfa -24 + ^
STACK CFI INIT 21518 10 .cfa: sp 0 + .ra: lr
STACK CFI 2151a .cfa: sp 8 + .ra: .cfa -4 + ^ r7: .cfa -8 + ^
STACK CFI 2151c .cfa: r7 8 +
STACK CFI INIT 21528 24c .cfa: sp 0 + .ra: lr
STACK CFI 2152a .cfa: sp 20 + .ra: .cfa -4 + ^ r7: .cfa -8 + ^ r6: .cfa -12 + ^ r5: .cfa -16 + ^ r4: .cfa -20 + ^
STACK CFI 2152c .cfa: r7 8 +
STACK CFI 21530 r11: .cfa -24 + ^ r10: .cfa -28 + ^ r9: .cfa -32 + ^ r8: .cfa -36 + ^
STACK CFI INIT 21774 fc .cfa: sp 0 + .ra: lr
STACK CFI 21776 .cfa: sp 20 + .ra: .cfa -4 + ^ r7: .cfa -8 + ^ r6: .cfa -12 + ^ r5: .cfa -16 + ^ r4: .cfa -20 + ^
STACK CFI 21778 .cfa: r7 8 +
STACK CFI 2177c r11: .cfa -24 + ^ r10: .cfa -28 + ^ r9: .cfa -32 + ^ r8: .cfa -36 + ^
STACK CFI INIT 21870 180 .cfa: sp 0 + .ra: lr
STACK CFI 21872 .cfa: sp 20 + .ra: .cfa -4 + ^ r7: .cfa -8 + ^ r6: .cfa -12 + ^ r5: .cfa -16 + ^ r4: .cfa -20 + ^
STACK CFI 21874 .cfa: r7 8 +
STACK CFI 21878 r11: .cfa -24 + ^ r9: .cfa -28 + ^ r8: .cfa -32 + ^
STACK CFI INIT 219f0 a2 .cfa: sp 0 + .ra: lr
STACK CFI 219fa .cfa: sp 20 + .ra: .cfa -4 + ^ r7: .cfa -8 + ^ r6: .cfa -12 + ^ r5: .cfa -16 + ^ r4: .cfa -20 + ^
STACK CFI 219fc .cfa: r7 8 +
STACK CFI 21a00 r11: .cfa -24 + ^ r10: .cfa -28 + ^ r9: .cfa -32 + ^ r8: .cfa -36 + ^
STACK CFI INIT 21a94 3e8 .cfa: sp 0 + .ra: lr
STACK CFI 21a96 .cfa: sp 20 + .ra: .cfa -4 + ^ r7: .cfa -8 + ^ r6: .cfa -12 + ^ r5: .cfa -16 + ^ r4: .cfa -20 + ^
STACK CFI 21a98 .cfa: r7 8 +
STACK CFI 21a9c r11: .cfa -24 + ^ r10: .cfa -28 + ^ r9: .cfa -32 + ^ r8: .cfa -36 + ^
STACK CFI INIT 21e7c 2a .cfa: sp 0 + .ra: lr
STACK CFI 21e7e .cfa: sp 8 + .ra: .cfa -4 + ^ r7: .cfa -8 + ^
STACK CFI 21e80 .cfa: r7 8 +
STACK CFI INIT 21ea8 a4 .cfa: sp 0 + .ra: lr
STACK CFI 21eaa .cfa: sp 16 + .ra: .cfa -4 + ^ r7: .cfa -8 + ^ r5: .cfa -12 + ^ r4: .cfa -16 + ^
STACK CFI 21eac .cfa: r7 8 +
STACK CFI INIT 21f4c b4 .cfa: sp 0 + .ra: lr
STACK CFI 21f56 .cfa: sp 16 + .ra: .cfa -4 + ^ r7: .cfa -8 + ^ r6: .cfa -12 + ^ r4: .cfa -16 + ^
STACK CFI 21f58 .cfa: r7 8 +
STACK CFI INIT 22000 42 .cfa: sp 0 + .ra: lr
STACK CFI 22008 .cfa: sp 20 + .ra: .cfa -4 + ^ r7: .cfa -8 + ^ r6: .cfa -12 + ^ r5: .cfa -16 + ^ r4: .cfa -20 + ^
STACK CFI 2200a .cfa: r7 8 +
STACK CFI 2200e r11: .cfa -24 + ^
STACK CFI INIT 22044 4c .cfa: sp 0 + .ra: lr
STACK CFI 22046 .cfa: sp 8 + .ra: .cfa -4 + ^ r7: .cfa -8 + ^
STACK CFI 22048 .cfa: r7 8 +
STACK CFI INIT 22090 fc .cfa: sp 0 + .ra: lr
STACK CFI 22092 .cfa: sp 16 + .ra: .cfa -4 + ^ r7: .cfa -8 + ^ r6: .cfa -12 + ^ r4: .cfa -16 + ^
STACK CFI 22094 .cfa: r7 8 +
STACK CFI INIT 2218c b4 .cfa: sp 0 + .ra: lr
STACK CFI 2218e .cfa: sp 20 + .ra: .cfa -4 + ^ r7: .cfa -8 + ^ r6: .cfa -12 + ^ r5: .cfa -16 + ^ r4: .cfa -20 + ^
STACK CFI 22190 .cfa: r7 8 +
STACK CFI 22194 r8: .cfa -24 + ^
STACK CFI INIT 22240 78 .cfa: sp 0 + .ra: lr
STACK CFI 22242 .cfa: sp 16 + .ra: .cfa -4 + ^ r7: .cfa -8 + ^ r5: .cfa -12 + ^ r4: .cfa -16 + ^
STACK CFI 22244 .cfa: r7 8 +
STACK CFI INIT 222b8 2c .cfa: sp 0 + .ra: lr
STACK CFI 222ba .cfa: sp 16 + .ra: .cfa -4 + ^ r7: .cfa -8 + ^ r6: .cfa -12 + ^ r4: .cfa -16 + ^
STACK CFI 222bc .cfa: r7 8 +
STACK CFI INIT 222e4 62c .cfa: sp 0 + .ra: lr
STACK CFI 222e6 .cfa: sp 20 + .ra: .cfa -4 + ^ r7: .cfa -8 + ^ r6: .cfa -12 + ^ r5: .cfa -16 + ^ r4: .cfa -20 + ^
STACK CFI 222e8 .cfa: r7 8 +
STACK CFI 222ec r11: .cfa -24 + ^ r10: .cfa -28 + ^ r9: .cfa -32 + ^ r8: .cfa -36 + ^
STACK CFI INIT 22910 120 .cfa: sp 0 + .ra: lr
STACK CFI 22912 .cfa: sp 20 + .ra: .cfa -4 + ^ r7: .cfa -8 + ^ r6: .cfa -12 + ^ r5: .cfa -16 + ^ r4: .cfa -20 + ^
STACK CFI 22914 .cfa: r7 8 +
STACK CFI 22918 r11: .cfa -24 + ^ r9: .cfa -28 + ^ r8: .cfa -32 + ^
STACK CFI INIT 22a30 a0 .cfa: sp 0 + .ra: lr
STACK CFI 22a32 .cfa: sp 20 + .ra: .cfa -4 + ^ r7: .cfa -8 + ^ r6: .cfa -12 + ^ r5: .cfa -16 + ^ r4: .cfa -20 + ^
STACK CFI 22a34 .cfa: r7 8 +
STACK CFI 22a38 r11: .cfa -24 + ^ r9: .cfa -28 + ^ r8: .cfa -32 + ^
STACK CFI INIT 22ad0 e0 .cfa: sp 0 + .ra: lr
STACK CFI 22ad2 .cfa: sp 20 + .ra: .cfa -4 + ^ r7: .cfa -8 + ^ r6: .cfa -12 + ^ r5: .cfa -16 + ^ r4: .cfa -20 + ^
STACK CFI 22ad4 .cfa: r7 8 +
STACK CFI 22ad8 r11: .cfa -24 + ^ r9: .cfa -28 + ^ r8: .cfa -32 + ^
STACK CFI INIT 22bb0 18 .cfa: sp 0 + .ra: lr
STACK CFI 22bb2 .cfa: sp 16 + .ra: .cfa -4 + ^ r7: .cfa -8 + ^ r6: .cfa -12 + ^ r4: .cfa -16 + ^
STACK CFI 22bb4 .cfa: r7 8 +
STACK CFI INIT 22bc8 34 .cfa: sp 0 + .ra: lr
STACK CFI 22bca .cfa: sp 20 + .ra: .cfa -4 + ^ r7: .cfa -8 + ^ r6: .cfa -12 + ^ r5: .cfa -16 + ^ r4: .cfa -20 + ^
STACK CFI 22bcc .cfa: r7 8 +
STACK CFI 22bd0 r11: .cfa -24 + ^
STACK CFI INIT 22bfc 40 .cfa: sp 0 + .ra: lr
STACK CFI 22bfe .cfa: sp 8 + .ra: .cfa -4 + ^ r7: .cfa -8 + ^
STACK CFI 22c00 .cfa: r7 8 +
STACK CFI INIT 22c3c 34 .cfa: sp 0 + .ra: lr
STACK CFI 22c3e .cfa: sp 8 + .ra: .cfa -4 + ^ r7: .cfa -8 + ^
STACK CFI 22c40 .cfa: r7 8 +
STACK CFI INIT 22c70 64 .cfa: sp 0 + .ra: lr
STACK CFI 22c72 .cfa: sp 8 + .ra: .cfa -4 + ^ r7: .cfa -8 + ^
STACK CFI 22c74 .cfa: r7 8 +
STACK CFI INIT 22cd4 22c .cfa: sp 0 + .ra: lr
STACK CFI 22cd6 .cfa: sp 20 + .ra: .cfa -4 + ^ r7: .cfa -8 + ^ r6: .cfa -12 + ^ r5: .cfa -16 + ^ r4: .cfa -20 + ^
STACK CFI 22cd8 .cfa: r7 8 +
STACK CFI 22cdc r11: .cfa -24 + ^ r10: .cfa -28 + ^ r9: .cfa -32 + ^ r8: .cfa -36 + ^
STACK CFI INIT 22f00 ac .cfa: sp 0 + .ra: lr
STACK CFI 22f02 .cfa: sp 20 + .ra: .cfa -4 + ^ r7: .cfa -8 + ^ r6: .cfa -12 + ^ r5: .cfa -16 + ^ r4: .cfa -20 + ^
STACK CFI 22f04 .cfa: r7 8 +
STACK CFI 22f08 r10: .cfa -24 + ^ r9: .cfa -28 + ^ r8: .cfa -32 + ^
STACK CFI INIT 22fac 160 .cfa: sp 0 + .ra: lr
STACK CFI 22fae .cfa: sp 20 + .ra: .cfa -4 + ^ r7: .cfa -8 + ^ r6: .cfa -12 + ^ r5: .cfa -16 + ^ r4: .cfa -20 + ^
STACK CFI 22fb0 .cfa: r7 8 +
STACK CFI 22fb4 r11: .cfa -24 + ^ r10: .cfa -28 + ^ r9: .cfa -32 + ^ r8: .cfa -36 + ^
STACK CFI INIT 2310c 2a .cfa: sp 0 + .ra: lr
STACK CFI 2310e .cfa: sp 16 + .ra: .cfa -4 + ^ r7: .cfa -8 + ^ r6: .cfa -12 + ^ r4: .cfa -16 + ^
STACK CFI 23110 .cfa: r7 8 +
STACK CFI INIT 23136 c .cfa: sp 0 + .ra: lr
STACK CFI 23138 .cfa: sp 8 + .ra: .cfa -4 + ^ r7: .cfa -8 + ^
STACK CFI 2313a .cfa: r7 8 +
STACK CFI INIT 23142 c .cfa: sp 0 + .ra: lr
STACK CFI 23144 .cfa: sp 8 + .ra: .cfa -4 + ^ r7: .cfa -8 + ^
STACK CFI 23146 .cfa: r7 8 +
STACK CFI INIT 2314e c .cfa: sp 0 + .ra: lr
STACK CFI 23150 .cfa: sp 8 + .ra: .cfa -4 + ^ r7: .cfa -8 + ^
STACK CFI 23152 .cfa: r7 8 +
STACK CFI INIT 2315a c .cfa: sp 0 + .ra: lr
STACK CFI 2315c .cfa: sp 8 + .ra: .cfa -4 + ^ r7: .cfa -8 + ^
STACK CFI 2315e .cfa: r7 8 +
STACK CFI INIT 23166 c .cfa: sp 0 + .ra: lr
STACK CFI 23168 .cfa: sp 8 + .ra: .cfa -4 + ^ r7: .cfa -8 + ^
STACK CFI 2316a .cfa: r7 8 +
STACK CFI INIT 23172 c .cfa: sp 0 + .ra: lr
STACK CFI 23174 .cfa: sp 8 + .ra: .cfa -4 + ^ r7: .cfa -8 + ^
STACK CFI 23176 .cfa: r7 8 +
STACK CFI INIT 2317e c .cfa: sp 0 + .ra: lr
STACK CFI 23180 .cfa: sp 8 + .ra: .cfa -4 + ^ r7: .cfa -8 + ^
STACK CFI 23182 .cfa: r7 8 +
STACK CFI INIT 2318a c .cfa: sp 0 + .ra: lr
STACK CFI 2318c .cfa: sp 8 + .ra: .cfa -4 + ^ r7: .cfa -8 + ^
STACK CFI 2318e .cfa: r7 8 +
STACK CFI INIT 23196 c .cfa: sp 0 + .ra: lr
STACK CFI 23198 .cfa: sp 8 + .ra: .cfa -4 + ^ r7: .cfa -8 + ^
STACK CFI 2319a .cfa: r7 8 +
STACK CFI INIT 231a2 c .cfa: sp 0 + .ra: lr
STACK CFI 231a4 .cfa: sp 8 + .ra: .cfa -4 + ^ r7: .cfa -8 + ^
STACK CFI 231a6 .cfa: r7 8 +
STACK CFI INIT 231ae c .cfa: sp 0 + .ra: lr
STACK CFI 231b0 .cfa: sp 8 + .ra: .cfa -4 + ^ r7: .cfa -8 + ^
STACK CFI 231b2 .cfa: r7 8 +
STACK CFI INIT 231ba c .cfa: sp 0 + .ra: lr
STACK CFI 231bc .cfa: sp 8 + .ra: .cfa -4 + ^ r7: .cfa -8 + ^
STACK CFI 231be .cfa: r7 8 +
STACK CFI INIT 231c8 10 .cfa: sp 0 + .ra: lr
STACK CFI 231ca .cfa: sp 8 + .ra: .cfa -4 + ^ r7: .cfa -8 + ^
STACK CFI 231cc .cfa: r7 8 +
STACK CFI INIT 231d8 10 .cfa: sp 0 + .ra: lr
STACK CFI 231da .cfa: sp 8 + .ra: .cfa -4 + ^ r7: .cfa -8 + ^
STACK CFI 231dc .cfa: r7 8 +
STACK CFI INIT 231e8 ac .cfa: sp 0 + .ra: lr
STACK CFI 231ea .cfa: sp 20 + .ra: .cfa -4 + ^ r7: .cfa -8 + ^ r6: .cfa -12 + ^ r5: .cfa -16 + ^ r4: .cfa -20 + ^
STACK CFI 231ec .cfa: r7 8 +
STACK CFI 231f0 r11: .cfa -24 + ^
STACK CFI INIT 23294 140 .cfa: sp 0 + .ra: lr
STACK CFI 23296 .cfa: sp 20 + .ra: .cfa -4 + ^ r7: .cfa -8 + ^ r6: .cfa -12 + ^ r5: .cfa -16 + ^ r4: .cfa -20 + ^
STACK CFI 23298 .cfa: r7 8 +
STACK CFI 2329c r11: .cfa -24 + ^ r10: .cfa -28 + ^ r9: .cfa -32 + ^ r8: .cfa -36 + ^
STACK CFI INIT 233d4 12c .cfa: sp 0 + .ra: lr
STACK CFI 233d6 .cfa: sp 20 + .ra: .cfa -4 + ^ r7: .cfa -8 + ^ r6: .cfa -12 + ^ r5: .cfa -16 + ^ r4: .cfa -20 + ^
STACK CFI 233d8 .cfa: r7 8 +
STACK CFI 233dc r8: .cfa -24 + ^
STACK CFI INIT 0 44 .cfa: sp 0 + .ra: lr
STACK CFI 2 .cfa: sp 8 + .ra: .cfa -4 + ^ r7: .cfa -8 + ^
STACK CFI 4 .cfa: r7 8 +
STACK CFI INIT 23500 154 .cfa: sp 0 + .ra: lr
STACK CFI 23512 .cfa: sp 20 + .ra: .cfa -4 + ^ r7: .cfa -8 + ^ r6: .cfa -12 + ^ r5: .cfa -16 + ^ r4: .cfa -20 + ^
STACK CFI 23514 .cfa: r7 8 +
STACK CFI 23518 r11: .cfa -24 + ^ r10: .cfa -28 + ^ r9: .cfa -32 + ^ r8: .cfa -36 + ^
STACK CFI INIT 23654 14 .cfa: sp 0 + .ra: lr
STACK CFI 23656 .cfa: sp 8 + .ra: .cfa -4 + ^ r7: .cfa -8 + ^
STACK CFI 23658 .cfa: r7 8 +
STACK CFI INIT 23668 164 .cfa: sp 0 + .ra: lr
STACK CFI 2366a .cfa: sp 20 + .ra: .cfa -4 + ^ r7: .cfa -8 + ^ r6: .cfa -12 + ^ r5: .cfa -16 + ^ r4: .cfa -20 + ^
STACK CFI 2366c .cfa: r7 8 +
STACK CFI 23670 r11: .cfa -24 + ^ r9: .cfa -28 + ^ r8: .cfa -32 + ^
STACK CFI INIT 237cc 64 .cfa: sp 0 + .ra: lr
STACK CFI 237ce .cfa: sp 16 + .ra: .cfa -4 + ^ r7: .cfa -8 + ^ r5: .cfa -12 + ^ r4: .cfa -16 + ^
STACK CFI 237d0 .cfa: r7 8 +
STACK CFI INIT 23830 54 .cfa: sp 0 + .ra: lr
STACK CFI 23832 .cfa: sp 20 + .ra: .cfa -4 + ^ r7: .cfa -8 + ^ r6: .cfa -12 + ^ r5: .cfa -16 + ^ r4: .cfa -20 + ^
STACK CFI 23834 .cfa: r7 8 +
STACK CFI 23838 r11: .cfa -24 + ^
STACK CFI INIT 23884 d0 .cfa: sp 0 + .ra: lr
STACK CFI 23886 .cfa: sp 16 + .ra: .cfa -4 + ^ r7: .cfa -8 + ^ r5: .cfa -12 + ^ r4: .cfa -16 + ^
STACK CFI 23888 .cfa: r7 8 +
STACK CFI INIT 23954 198 .cfa: sp 0 + .ra: lr
STACK CFI 23956 .cfa: sp 20 + .ra: .cfa -4 + ^ r7: .cfa -8 + ^ r6: .cfa -12 + ^ r5: .cfa -16 + ^ r4: .cfa -20 + ^
STACK CFI 23958 .cfa: r7 8 +
STACK CFI 2395c r8: .cfa -24 + ^
STACK CFI INIT 23aec 72 .cfa: sp 0 + .ra: lr
STACK CFI 23aee .cfa: sp 16 + .ra: .cfa -4 + ^ r7: .cfa -8 + ^ r6: .cfa -12 + ^ r4: .cfa -16 + ^
STACK CFI 23af0 .cfa: r7 8 +
STACK CFI INIT 23b60 13c .cfa: sp 0 + .ra: lr
STACK CFI 23b62 .cfa: sp 20 + .ra: .cfa -4 + ^ r7: .cfa -8 + ^ r6: .cfa -12 + ^ r5: .cfa -16 + ^ r4: .cfa -20 + ^
STACK CFI 23b64 .cfa: r7 8 +
STACK CFI 23b68 r8: .cfa -24 + ^
STACK CFI INIT 23c9c 64 .cfa: sp 0 + .ra: lr
STACK CFI 23c9e .cfa: sp 20 + .ra: .cfa -4 + ^ r7: .cfa -8 + ^ r6: .cfa -12 + ^ r5: .cfa -16 + ^ r4: .cfa -20 + ^
STACK CFI 23ca0 .cfa: r7 8 +
STACK CFI 23ca4 r11: .cfa -24 + ^
STACK CFI INIT 23d00 5c .cfa: sp 0 + .ra: lr
STACK CFI 23d02 .cfa: sp 20 + .ra: .cfa -4 + ^ r7: .cfa -8 + ^ r6: .cfa -12 + ^ r5: .cfa -16 + ^ r4: .cfa -20 + ^
STACK CFI 23d04 .cfa: r7 8 +
STACK CFI 23d08 r11: .cfa -24 + ^
STACK CFI INIT 23d5c b8 .cfa: sp 0 + .ra: lr
STACK CFI 23d5e .cfa: sp 20 + .ra: .cfa -4 + ^ r7: .cfa -8 + ^ r6: .cfa -12 + ^ r5: .cfa -16 + ^ r4: .cfa -20 + ^
STACK CFI 23d60 .cfa: r7 8 +
STACK CFI 23d64 r8: .cfa -24 + ^
STACK CFI INIT 23e14 5c .cfa: sp 0 + .ra: lr
STACK CFI 23e16 .cfa: sp 20 + .ra: .cfa -4 + ^ r7: .cfa -8 + ^ r6: .cfa -12 + ^ r5: .cfa -16 + ^ r4: .cfa -20 + ^
STACK CFI 23e18 .cfa: r7 8 +
STACK CFI 23e1c r11: .cfa -24 + ^
STACK CFI INIT 23e70 b0 .cfa: sp 0 + .ra: lr
STACK CFI 23e72 .cfa: sp 20 + .ra: .cfa -4 + ^ r7: .cfa -8 + ^ r6: .cfa -12 + ^ r5: .cfa -16 + ^ r4: .cfa -20 + ^
STACK CFI 23e74 .cfa: r7 8 +
STACK CFI 23e78 r11: .cfa -24 + ^
STACK CFI INIT 23f20 9c .cfa: sp 0 + .ra: lr
STACK CFI 23f22 .cfa: sp 20 + .ra: .cfa -4 + ^ r7: .cfa -8 + ^ r6: .cfa -12 + ^ r5: .cfa -16 + ^ r4: .cfa -20 + ^
STACK CFI 23f24 .cfa: r7 8 +
STACK CFI 23f28 r11: .cfa -24 + ^
STACK CFI INIT 23fbc 5c .cfa: sp 0 + .ra: lr
STACK CFI 23fbe .cfa: sp 20 + .ra: .cfa -4 + ^ r7: .cfa -8 + ^ r6: .cfa -12 + ^ r5: .cfa -16 + ^ r4: .cfa -20 + ^
STACK CFI 23fc0 .cfa: r7 8 +
STACK CFI 23fc4 r11: .cfa -24 + ^
STACK CFI INIT 24018 60 .cfa: sp 0 + .ra: lr
STACK CFI 2401a .cfa: sp 20 + .ra: .cfa -4 + ^ r7: .cfa -8 + ^ r6: .cfa -12 + ^ r5: .cfa -16 + ^ r4: .cfa -20 + ^
STACK CFI 2401c .cfa: r7 8 +
STACK CFI 24020 r11: .cfa -24 + ^
STACK CFI INIT 24078 a8 .cfa: sp 0 + .ra: lr
STACK CFI 2407a .cfa: sp 20 + .ra: .cfa -4 + ^ r7: .cfa -8 + ^ r6: .cfa -12 + ^ r5: .cfa -16 + ^ r4: .cfa -20 + ^
STACK CFI 2407c .cfa: r7 8 +
STACK CFI 24080 r10: .cfa -24 + ^ r9: .cfa -28 + ^ r8: .cfa -32 + ^
STACK CFI INIT 24120 364 .cfa: sp 0 + .ra: lr
STACK CFI 24122 .cfa: sp 20 + .ra: .cfa -4 + ^ r7: .cfa -8 + ^ r6: .cfa -12 + ^ r5: .cfa -16 + ^ r4: .cfa -20 + ^
STACK CFI 24124 .cfa: r7 8 +
STACK CFI 24128 r10: .cfa -24 + ^ r9: .cfa -28 + ^ r8: .cfa -32 + ^
STACK CFI INIT 24484 54 .cfa: sp 0 + .ra: lr
STACK CFI 24486 .cfa: sp 20 + .ra: .cfa -4 + ^ r7: .cfa -8 + ^ r6: .cfa -12 + ^ r5: .cfa -16 + ^ r4: .cfa -20 + ^
STACK CFI 24488 .cfa: r7 8 +
STACK CFI 2448c r8: .cfa -24 + ^
STACK CFI INIT 244d8 1ec .cfa: sp 0 + .ra: lr
STACK CFI 244da .cfa: sp 20 + .ra: .cfa -4 + ^ r7: .cfa -8 + ^ r6: .cfa -12 + ^ r5: .cfa -16 + ^ r4: .cfa -20 + ^
STACK CFI 244dc .cfa: r7 8 +
STACK CFI 244e0 r10: .cfa -24 + ^ r9: .cfa -28 + ^ r8: .cfa -32 + ^
STACK CFI INIT 246c4 154 .cfa: sp 0 + .ra: lr
STACK CFI 246c6 .cfa: sp 20 + .ra: .cfa -4 + ^ r7: .cfa -8 + ^ r6: .cfa -12 + ^ r5: .cfa -16 + ^ r4: .cfa -20 + ^
STACK CFI 246c8 .cfa: r7 8 +
STACK CFI 246cc r10: .cfa -24 + ^ r9: .cfa -28 + ^ r8: .cfa -32 + ^
STACK CFI INIT 24818 d4 .cfa: sp 0 + .ra: lr
STACK CFI 2481a .cfa: sp 20 + .ra: .cfa -4 + ^ r7: .cfa -8 + ^ r6: .cfa -12 + ^ r5: .cfa -16 + ^ r4: .cfa -20 + ^
STACK CFI 2481c .cfa: r7 8 +
STACK CFI 24820 r8: .cfa -24 + ^
STACK CFI INIT 248ec 104 .cfa: sp 0 + .ra: lr
STACK CFI 248ee .cfa: sp 20 + .ra: .cfa -4 + ^ r7: .cfa -8 + ^ r6: .cfa -12 + ^ r5: .cfa -16 + ^ r4: .cfa -20 + ^
STACK CFI 248f0 .cfa: r7 8 +
STACK CFI 248f4 r10: .cfa -24 + ^ r9: .cfa -28 + ^ r8: .cfa -32 + ^
STACK CFI INIT 249f0 104 .cfa: sp 0 + .ra: lr
STACK CFI 249f2 .cfa: sp 20 + .ra: .cfa -4 + ^ r7: .cfa -8 + ^ r6: .cfa -12 + ^ r5: .cfa -16 + ^ r4: .cfa -20 + ^
STACK CFI 249f4 .cfa: r7 8 +
STACK CFI 249f8 r10: .cfa -24 + ^ r9: .cfa -28 + ^ r8: .cfa -32 + ^
STACK CFI INIT 24af4 88 .cfa: sp 0 + .ra: lr
STACK CFI 24af6 .cfa: sp 20 + .ra: .cfa -4 + ^ r7: .cfa -8 + ^ r6: .cfa -12 + ^ r5: .cfa -16 + ^ r4: .cfa -20 + ^
STACK CFI 24af8 .cfa: r7 8 +
STACK CFI 24afc r8: .cfa -24 + ^
STACK CFI INIT 24b7c 80 .cfa: sp 0 + .ra: lr
STACK CFI 24b7e .cfa: sp 20 + .ra: .cfa -4 + ^ r7: .cfa -8 + ^ r6: .cfa -12 + ^ r5: .cfa -16 + ^ r4: .cfa -20 + ^
STACK CFI 24b80 .cfa: r7 8 +
STACK CFI 24b84 r8: .cfa -24 + ^
STACK CFI INIT 24bfc 84 .cfa: sp 0 + .ra: lr
STACK CFI 24bfe .cfa: sp 20 + .ra: .cfa -4 + ^ r7: .cfa -8 + ^ r6: .cfa -12 + ^ r5: .cfa -16 + ^ r4: .cfa -20 + ^
STACK CFI 24c00 .cfa: r7 8 +
STACK CFI 24c04 r11: .cfa -24 + ^ r9: .cfa -28 + ^ r8: .cfa -32 + ^
STACK CFI INIT 24c80 28c .cfa: sp 0 + .ra: lr
STACK CFI 24c82 .cfa: sp 20 + .ra: .cfa -4 + ^ r7: .cfa -8 + ^ r6: .cfa -12 + ^ r5: .cfa -16 + ^ r4: .cfa -20 + ^
STACK CFI 24c84 .cfa: r7 8 +
STACK CFI 24c88 r11: .cfa -24 + ^ r10: .cfa -28 + ^ r9: .cfa -32 + ^ r8: .cfa -36 + ^
STACK CFI INIT 24f0c c4 .cfa: sp 0 + .ra: lr
STACK CFI 24f0e .cfa: sp 20 + .ra: .cfa -4 + ^ r7: .cfa -8 + ^ r6: .cfa -12 + ^ r5: .cfa -16 + ^ r4: .cfa -20 + ^
STACK CFI 24f10 .cfa: r7 8 +
STACK CFI 24f14 r8: .cfa -24 + ^
STACK CFI INIT 24fd0 a50 .cfa: sp 0 + .ra: lr
STACK CFI 24fd2 .cfa: sp 20 + .ra: .cfa -4 + ^ r7: .cfa -8 + ^ r6: .cfa -12 + ^ r5: .cfa -16 + ^ r4: .cfa -20 + ^
STACK CFI 24fd4 .cfa: r7 8 +
STACK CFI 24fd8 r11: .cfa -24 + ^ r10: .cfa -28 + ^ r9: .cfa -32 + ^ r8: .cfa -36 + ^
STACK CFI INIT 25a20 90 .cfa: sp 0 + .ra: lr
STACK CFI 25a22 .cfa: sp 20 + .ra: .cfa -4 + ^ r7: .cfa -8 + ^ r6: .cfa -12 + ^ r5: .cfa -16 + ^ r4: .cfa -20 + ^
STACK CFI 25a24 .cfa: r7 8 +
STACK CFI 25a28 r8: .cfa -24 + ^
STACK CFI INIT 25ab0 c4 .cfa: sp 0 + .ra: lr
STACK CFI 25ab2 .cfa: sp 20 + .ra: .cfa -4 + ^ r7: .cfa -8 + ^ r6: .cfa -12 + ^ r5: .cfa -16 + ^ r4: .cfa -20 + ^
STACK CFI 25ab4 .cfa: r7 8 +
STACK CFI 25ab8 r11: .cfa -24 + ^ r9: .cfa -28 + ^ r8: .cfa -32 + ^
STACK CFI INIT 25b74 10c .cfa: sp 0 + .ra: lr
STACK CFI 25b76 .cfa: sp 20 + .ra: .cfa -4 + ^ r7: .cfa -8 + ^ r6: .cfa -12 + ^ r5: .cfa -16 + ^ r4: .cfa -20 + ^
STACK CFI 25b78 .cfa: r7 8 +
STACK CFI 25b7c r11: .cfa -24 + ^ r10: .cfa -28 + ^ r9: .cfa -32 + ^ r8: .cfa -36 + ^
STACK CFI INIT 25c80 e2 .cfa: sp 0 + .ra: lr
STACK CFI 25c82 .cfa: sp 16 + .ra: .cfa -4 + ^ r7: .cfa -8 + ^ r5: .cfa -12 + ^ r4: .cfa -16 + ^
STACK CFI 25c84 .cfa: r7 8 +
STACK CFI INIT 25d64 e8 .cfa: sp 0 + .ra: lr
STACK CFI 25d66 .cfa: sp 20 + .ra: .cfa -4 + ^ r7: .cfa -8 + ^ r6: .cfa -12 + ^ r5: .cfa -16 + ^ r4: .cfa -20 + ^
STACK CFI 25d68 .cfa: r7 8 +
STACK CFI 25d6c r8: .cfa -24 + ^
STACK CFI INIT 25e4c 94 .cfa: sp 0 + .ra: lr
STACK CFI 25e4e .cfa: sp 20 + .ra: .cfa -4 + ^ r7: .cfa -8 + ^ r6: .cfa -12 + ^ r5: .cfa -16 + ^ r4: .cfa -20 + ^
STACK CFI 25e50 .cfa: r7 8 +
STACK CFI 25e54 r10: .cfa -24 + ^ r9: .cfa -28 + ^ r8: .cfa -32 + ^
STACK CFI INIT 25ee0 6c .cfa: sp 0 + .ra: lr
STACK CFI 25ee2 .cfa: sp 20 + .ra: .cfa -4 + ^ r7: .cfa -8 + ^ r6: .cfa -12 + ^ r5: .cfa -16 + ^ r4: .cfa -20 + ^
STACK CFI 25ee4 .cfa: r7 8 +
STACK CFI 25ee8 r11: .cfa -24 + ^ r9: .cfa -28 + ^ r8: .cfa -32 + ^
STACK CFI INIT 25f4c 64 .cfa: sp 0 + .ra: lr
STACK CFI 25f4e .cfa: sp 20 + .ra: .cfa -4 + ^ r7: .cfa -8 + ^ r6: .cfa -12 + ^ r5: .cfa -16 + ^ r4: .cfa -20 + ^
STACK CFI 25f50 .cfa: r7 8 +
STACK CFI 25f54 r11: .cfa -24 + ^ r9: .cfa -28 + ^ r8: .cfa -32 + ^
STACK CFI INIT 25fb0 b4 .cfa: sp 0 + .ra: lr
STACK CFI 25fb2 .cfa: sp 20 + .ra: .cfa -4 + ^ r7: .cfa -8 + ^ r6: .cfa -12 + ^ r5: .cfa -16 + ^ r4: .cfa -20 + ^
STACK CFI 25fb4 .cfa: r7 8 +
STACK CFI 25fb8 r11: .cfa -24 + ^ r9: .cfa -28 + ^ r8: .cfa -32 + ^
STACK CFI INIT 26064 34 .cfa: sp 0 + .ra: lr
STACK CFI 26066 .cfa: sp 20 + .ra: .cfa -4 + ^ r7: .cfa -8 + ^ r6: .cfa -12 + ^ r5: .cfa -16 + ^ r4: .cfa -20 + ^
STACK CFI 26068 .cfa: r7 8 +
STACK CFI 2606c r8: .cfa -24 + ^
STACK CFI INIT 26098 154 .cfa: sp 0 + .ra: lr
STACK CFI 2609a .cfa: sp 20 + .ra: .cfa -4 + ^ r7: .cfa -8 + ^ r6: .cfa -12 + ^ r5: .cfa -16 + ^ r4: .cfa -20 + ^
STACK CFI 2609c .cfa: r7 8 +
STACK CFI 260a0 r11: .cfa -24 + ^ r10: .cfa -28 + ^ r9: .cfa -32 + ^ r8: .cfa -36 + ^
STACK CFI INIT 261ec 21c .cfa: sp 0 + .ra: lr
STACK CFI 261ee .cfa: sp 20 + .ra: .cfa -4 + ^ r7: .cfa -8 + ^ r6: .cfa -12 + ^ r5: .cfa -16 + ^ r4: .cfa -20 + ^
STACK CFI 261f0 .cfa: r7 8 +
STACK CFI 261f4 r11: .cfa -24 + ^ r9: .cfa -28 + ^ r8: .cfa -32 + ^
STACK CFI INIT 26408 300 .cfa: sp 0 + .ra: lr
STACK CFI 2640a .cfa: sp 20 + .ra: .cfa -4 + ^ r7: .cfa -8 + ^ r6: .cfa -12 + ^ r5: .cfa -16 + ^ r4: .cfa -20 + ^
STACK CFI 2640c .cfa: r7 8 +
STACK CFI 26410 r11: .cfa -24 + ^ r10: .cfa -28 + ^ r9: .cfa -32 + ^ r8: .cfa -36 + ^
STACK CFI INIT 26708 218 .cfa: sp 0 + .ra: lr
STACK CFI 2670a .cfa: sp 20 + .ra: .cfa -4 + ^ r7: .cfa -8 + ^ r6: .cfa -12 + ^ r5: .cfa -16 + ^ r4: .cfa -20 + ^
STACK CFI 2670c .cfa: r7 8 +
STACK CFI 26710 r11: .cfa -24 + ^ r10: .cfa -28 + ^ r9: .cfa -32 + ^ r8: .cfa -36 + ^
STACK CFI INIT 26920 bc .cfa: sp 0 + .ra: lr
STACK CFI 26922 .cfa: sp 20 + .ra: .cfa -4 + ^ r7: .cfa -8 + ^ r6: .cfa -12 + ^ r5: .cfa -16 + ^ r4: .cfa -20 + ^
STACK CFI 26924 .cfa: r7 8 +
STACK CFI 26928 r10: .cfa -24 + ^ r9: .cfa -28 + ^ r8: .cfa -32 + ^
STACK CFI INIT 269dc d0 .cfa: sp 0 + .ra: lr
STACK CFI 269de .cfa: sp 20 + .ra: .cfa -4 + ^ r7: .cfa -8 + ^ r6: .cfa -12 + ^ r5: .cfa -16 + ^ r4: .cfa -20 + ^
STACK CFI 269e0 .cfa: r7 8 +
STACK CFI 269e4 r10: .cfa -24 + ^ r9: .cfa -28 + ^ r8: .cfa -32 + ^
STACK CFI INIT 26aac 17c .cfa: sp 0 + .ra: lr
STACK CFI 26aae .cfa: sp 20 + .ra: .cfa -4 + ^ r7: .cfa -8 + ^ r6: .cfa -12 + ^ r5: .cfa -16 + ^ r4: .cfa -20 + ^
STACK CFI 26ab0 .cfa: r7 8 +
STACK CFI 26ab4 r11: .cfa -24 + ^ r10: .cfa -28 + ^ r9: .cfa -32 + ^ r8: .cfa -36 + ^
STACK CFI INIT 26c28 1e8 .cfa: sp 0 + .ra: lr
STACK CFI 26c2a .cfa: sp 20 + .ra: .cfa -4 + ^ r7: .cfa -8 + ^ r6: .cfa -12 + ^ r5: .cfa -16 + ^ r4: .cfa -20 + ^
STACK CFI 26c2c .cfa: r7 8 +
STACK CFI 26c30 r11: .cfa -24 + ^ r10: .cfa -28 + ^ r9: .cfa -32 + ^ r8: .cfa -36 + ^
STACK CFI INIT 26e10 68 .cfa: sp 0 + .ra: lr
STACK CFI 26e12 .cfa: sp 20 + .ra: .cfa -4 + ^ r7: .cfa -8 + ^ r6: .cfa -12 + ^ r5: .cfa -16 + ^ r4: .cfa -20 + ^
STACK CFI 26e14 .cfa: r7 8 +
STACK CFI 26e18 r11: .cfa -24 + ^ r10: .cfa -28 + ^ r9: .cfa -32 + ^ r8: .cfa -36 + ^
STACK CFI INIT 26e78 50 .cfa: sp 0 + .ra: lr
STACK CFI 26e7a .cfa: sp 20 + .ra: .cfa -4 + ^ r7: .cfa -8 + ^ r6: .cfa -12 + ^ r5: .cfa -16 + ^ r4: .cfa -20 + ^
STACK CFI 26e7c .cfa: r7 8 +
STACK CFI 26e80 r8: .cfa -24 + ^
STACK CFI INIT 26ec8 14c .cfa: sp 0 + .ra: lr
STACK CFI 26eca .cfa: sp 20 + .ra: .cfa -4 + ^ r7: .cfa -8 + ^ r6: .cfa -12 + ^ r5: .cfa -16 + ^ r4: .cfa -20 + ^
STACK CFI 26ecc .cfa: r7 8 +
STACK CFI 26ed0 r11: .cfa -24 + ^
STACK CFI INIT 27014 a4 .cfa: sp 0 + .ra: lr
STACK CFI 27016 .cfa: sp 20 + .ra: .cfa -4 + ^ r7: .cfa -8 + ^ r6: .cfa -12 + ^ r5: .cfa -16 + ^ r4: .cfa -20 + ^
STACK CFI 27018 .cfa: r7 8 +
STACK CFI 2701c r8: .cfa -24 + ^
STACK CFI INIT 270b8 e4 .cfa: sp 0 + .ra: lr
STACK CFI 270ba .cfa: sp 20 + .ra: .cfa -4 + ^ r7: .cfa -8 + ^ r6: .cfa -12 + ^ r5: .cfa -16 + ^ r4: .cfa -20 + ^
STACK CFI 270bc .cfa: r7 8 +
STACK CFI 270c0 r11: .cfa -24 + ^ r10: .cfa -28 + ^ r9: .cfa -32 + ^ r8: .cfa -36 + ^
STACK CFI INIT 2719c 1a .cfa: sp 0 + .ra: lr
STACK CFI 2719e .cfa: sp 8 + .ra: .cfa -4 + ^ r7: .cfa -8 + ^
STACK CFI 271a0 .cfa: r7 8 +
STACK CFI INIT 271b8 dc .cfa: sp 0 + .ra: lr
STACK CFI 271ba .cfa: sp 20 + .ra: .cfa -4 + ^ r7: .cfa -8 + ^ r6: .cfa -12 + ^ r5: .cfa -16 + ^ r4: .cfa -20 + ^
STACK CFI 271bc .cfa: r7 8 +
STACK CFI 271c0 r11: .cfa -24 + ^ r10: .cfa -28 + ^ r9: .cfa -32 + ^ r8: .cfa -36 + ^
STACK CFI INIT 27294 1a .cfa: sp 0 + .ra: lr
STACK CFI 27296 .cfa: sp 8 + .ra: .cfa -4 + ^ r7: .cfa -8 + ^
STACK CFI 27298 .cfa: r7 8 +
STACK CFI INIT 272b0 1e8 .cfa: sp 0 + .ra: lr
STACK CFI 272b2 .cfa: sp 20 + .ra: .cfa -4 + ^ r7: .cfa -8 + ^ r6: .cfa -12 + ^ r5: .cfa -16 + ^ r4: .cfa -20 + ^
STACK CFI 272b4 .cfa: r7 8 +
STACK CFI 272b8 r11: .cfa -24 + ^ r10: .cfa -28 + ^ r9: .cfa -32 + ^ r8: .cfa -36 + ^
STACK CFI INIT 27498 a8 .cfa: sp 0 + .ra: lr
STACK CFI 2749a .cfa: sp 20 + .ra: .cfa -4 + ^ r7: .cfa -8 + ^ r6: .cfa -12 + ^ r5: .cfa -16 + ^ r4: .cfa -20 + ^
STACK CFI 2749c .cfa: r7 8 +
STACK CFI 274a0 r11: .cfa -24 + ^ r10: .cfa -28 + ^ r9: .cfa -32 + ^ r8: .cfa -36 + ^
STACK CFI INIT 27540 1fc .cfa: sp 0 + .ra: lr
STACK CFI 27542 .cfa: sp 20 + .ra: .cfa -4 + ^ r7: .cfa -8 + ^ r6: .cfa -12 + ^ r5: .cfa -16 + ^ r4: .cfa -20 + ^
STACK CFI 27544 .cfa: r7 8 +
STACK CFI 27548 r11: .cfa -24 + ^ r10: .cfa -28 + ^ r9: .cfa -32 + ^ r8: .cfa -36 + ^
STACK CFI INIT 2773c 42 .cfa: sp 0 + .ra: lr
STACK CFI 2773e .cfa: sp 20 + .ra: .cfa -4 + ^ r7: .cfa -8 + ^ r6: .cfa -12 + ^ r5: .cfa -16 + ^ r4: .cfa -20 + ^
STACK CFI 27740 .cfa: r7 8 +
STACK CFI 27744 r11: .cfa -24 + ^ r10: .cfa -28 + ^ r9: .cfa -32 + ^ r8: .cfa -36 + ^
STACK CFI INIT 27780 b0 .cfa: sp 0 + .ra: lr
STACK CFI 27782 .cfa: sp 20 + .ra: .cfa -4 + ^ r7: .cfa -8 + ^ r6: .cfa -12 + ^ r5: .cfa -16 + ^ r4: .cfa -20 + ^
STACK CFI 27784 .cfa: r7 8 +
STACK CFI 27788 r11: .cfa -24 + ^
STACK CFI INIT 27830 1c4 .cfa: sp 0 + .ra: lr
STACK CFI 27832 .cfa: sp 20 + .ra: .cfa -4 + ^ r7: .cfa -8 + ^ r6: .cfa -12 + ^ r5: .cfa -16 + ^ r4: .cfa -20 + ^
STACK CFI 27834 .cfa: r7 8 +
STACK CFI 27838 r11: .cfa -24 + ^ r10: .cfa -28 + ^ r9: .cfa -32 + ^ r8: .cfa -36 + ^
STACK CFI INIT 279f4 a4 .cfa: sp 0 + .ra: lr
STACK CFI 279f6 .cfa: sp 20 + .ra: .cfa -4 + ^ r7: .cfa -8 + ^ r6: .cfa -12 + ^ r5: .cfa -16 + ^ r4: .cfa -20 + ^
STACK CFI 279f8 .cfa: r7 8 +
STACK CFI 279fc r10: .cfa -24 + ^ r9: .cfa -28 + ^ r8: .cfa -32 + ^
STACK CFI INIT 27a98 b4 .cfa: sp 0 + .ra: lr
STACK CFI 27a9a .cfa: sp 20 + .ra: .cfa -4 + ^ r7: .cfa -8 + ^ r6: .cfa -12 + ^ r5: .cfa -16 + ^ r4: .cfa -20 + ^
STACK CFI 27a9c .cfa: r7 8 +
STACK CFI 27aa0 r11: .cfa -24 + ^
STACK CFI INIT 27b4c b8 .cfa: sp 0 + .ra: lr
STACK CFI 27b4e .cfa: sp 20 + .ra: .cfa -4 + ^ r7: .cfa -8 + ^ r6: .cfa -12 + ^ r5: .cfa -16 + ^ r4: .cfa -20 + ^
STACK CFI 27b50 .cfa: r7 8 +
STACK CFI 27b54 r8: .cfa -24 + ^
STACK CFI INIT 27c04 64 .cfa: sp 0 + .ra: lr
STACK CFI 27c06 .cfa: sp 20 + .ra: .cfa -4 + ^ r7: .cfa -8 + ^ r6: .cfa -12 + ^ r5: .cfa -16 + ^ r4: .cfa -20 + ^
STACK CFI 27c08 .cfa: r7 8 +
STACK CFI 27c0c r11: .cfa -24 + ^
STACK CFI INIT 27c68 a4 .cfa: sp 0 + .ra: lr
STACK CFI 27c6a .cfa: sp 20 + .ra: .cfa -4 + ^ r7: .cfa -8 + ^ r6: .cfa -12 + ^ r5: .cfa -16 + ^ r4: .cfa -20 + ^
STACK CFI 27c6c .cfa: r7 8 +
STACK CFI 27c70 r11: .cfa -24 + ^ r9: .cfa -28 + ^ r8: .cfa -32 + ^
STACK CFI INIT 27d0c ec .cfa: sp 0 + .ra: lr
STACK CFI 27d0e .cfa: sp 20 + .ra: .cfa -4 + ^ r7: .cfa -8 + ^ r6: .cfa -12 + ^ r5: .cfa -16 + ^ r4: .cfa -20 + ^
STACK CFI 27d10 .cfa: r7 8 +
STACK CFI 27d14 r11: .cfa -24 + ^ r9: .cfa -28 + ^ r8: .cfa -32 + ^
STACK CFI INIT 27df8 a4 .cfa: sp 0 + .ra: lr
STACK CFI 27dfa .cfa: sp 20 + .ra: .cfa -4 + ^ r7: .cfa -8 + ^ r6: .cfa -12 + ^ r5: .cfa -16 + ^ r4: .cfa -20 + ^
STACK CFI 27dfc .cfa: r7 8 +
STACK CFI 27e00 r11: .cfa -24 + ^
STACK CFI INIT 27e9c 110 .cfa: sp 0 + .ra: lr
STACK CFI 27e9e .cfa: sp 20 + .ra: .cfa -4 + ^ r7: .cfa -8 + ^ r6: .cfa -12 + ^ r5: .cfa -16 + ^ r4: .cfa -20 + ^
STACK CFI 27ea0 .cfa: r7 8 +
STACK CFI 27ea4 r11: .cfa -24 + ^ r10: .cfa -28 + ^ r9: .cfa -32 + ^ r8: .cfa -36 + ^
STACK CFI INIT 27fac e4 .cfa: sp 0 + .ra: lr
STACK CFI 28036 .cfa: sp 16 + .ra: .cfa -4 + ^ r7: .cfa -8 + ^ r6: .cfa -12 + ^ r4: .cfa -16 + ^
STACK CFI 28038 .cfa: r7 8 +
STACK CFI INIT 28090 20 .cfa: sp 0 + .ra: lr
STACK CFI 28092 .cfa: sp 8 + .ra: .cfa -4 + ^ r7: .cfa -8 + ^
STACK CFI 28094 .cfa: r7 8 +
STACK CFI INIT 280b0 20 .cfa: sp 0 + .ra: lr
STACK CFI 280b2 .cfa: sp 8 + .ra: .cfa -4 + ^ r7: .cfa -8 + ^
STACK CFI 280b4 .cfa: r7 8 +
STACK CFI INIT 280d0 16c .cfa: sp 0 + .ra: lr
STACK CFI 281d4 .cfa: sp 16 + .ra: .cfa -4 + ^ r7: .cfa -8 + ^ r6: .cfa -12 + ^ r4: .cfa -16 + ^
STACK CFI 281d6 .cfa: r7 8 +
STACK CFI INIT 2823c 48 .cfa: sp 0 + .ra: lr
STACK CFI 2823e .cfa: sp 20 + .ra: .cfa -4 + ^ r7: .cfa -8 + ^ r6: .cfa -12 + ^ r5: .cfa -16 + ^ r4: .cfa -20 + ^
STACK CFI 28240 .cfa: r7 8 +
STACK CFI 28244 r11: .cfa -24 + ^ r9: .cfa -28 + ^ r8: .cfa -32 + ^
STACK CFI INIT 28284 10c .cfa: sp 0 + .ra: lr
STACK CFI 28286 .cfa: sp 20 + .ra: .cfa -4 + ^ r7: .cfa -8 + ^ r6: .cfa -12 + ^ r5: .cfa -16 + ^ r4: .cfa -20 + ^
STACK CFI 28288 .cfa: r7 8 +
STACK CFI 2828c r11: .cfa -24 + ^ r10: .cfa -28 + ^ r9: .cfa -32 + ^ r8: .cfa -36 + ^
STACK CFI INIT 28390 1b4 .cfa: sp 0 + .ra: lr
STACK CFI 28392 .cfa: sp 20 + .ra: .cfa -4 + ^ r7: .cfa -8 + ^ r6: .cfa -12 + ^ r5: .cfa -16 + ^ r4: .cfa -20 + ^
STACK CFI 28394 .cfa: r7 8 +
STACK CFI 28398 r11: .cfa -24 + ^ r10: .cfa -28 + ^ r9: .cfa -32 + ^ r8: .cfa -36 + ^
STACK CFI INIT 28544 13c .cfa: sp 0 + .ra: lr
STACK CFI 28546 .cfa: sp 20 + .ra: .cfa -4 + ^ r7: .cfa -8 + ^ r6: .cfa -12 + ^ r5: .cfa -16 + ^ r4: .cfa -20 + ^
STACK CFI 28548 .cfa: r7 8 +
STACK CFI 2854c r11: .cfa -24 + ^ r10: .cfa -28 + ^ r9: .cfa -32 + ^ r8: .cfa -36 + ^
STACK CFI INIT 28680 178 .cfa: sp 0 + .ra: lr
STACK CFI 28682 .cfa: sp 20 + .ra: .cfa -4 + ^ r7: .cfa -8 + ^ r6: .cfa -12 + ^ r5: .cfa -16 + ^ r4: .cfa -20 + ^
STACK CFI 28684 .cfa: r7 8 +
STACK CFI 28688 r8: .cfa -24 + ^
STACK CFI INIT 287f8 16c .cfa: sp 0 + .ra: lr
STACK CFI 287fa .cfa: sp 20 + .ra: .cfa -4 + ^ r7: .cfa -8 + ^ r6: .cfa -12 + ^ r5: .cfa -16 + ^ r4: .cfa -20 + ^
STACK CFI 287fc .cfa: r7 8 +
STACK CFI 28800 r8: .cfa -24 + ^
STACK CFI INIT 28964 228 .cfa: sp 0 + .ra: lr
STACK CFI 28966 .cfa: sp 20 + .ra: .cfa -4 + ^ r7: .cfa -8 + ^ r6: .cfa -12 + ^ r5: .cfa -16 + ^ r4: .cfa -20 + ^
STACK CFI 28968 .cfa: r7 8 +
STACK CFI 2896c r11: .cfa -24 + ^ r9: .cfa -28 + ^ r8: .cfa -32 + ^
STACK CFI INIT 28b8c 124 .cfa: sp 0 + .ra: lr
STACK CFI 28b8e .cfa: sp 20 + .ra: .cfa -4 + ^ r7: .cfa -8 + ^ r6: .cfa -12 + ^ r5: .cfa -16 + ^ r4: .cfa -20 + ^
STACK CFI 28b90 .cfa: r7 8 +
STACK CFI 28b94 r10: .cfa -24 + ^ r9: .cfa -28 + ^ r8: .cfa -32 + ^
STACK CFI INIT 28cb0 5c .cfa: sp 0 + .ra: lr
STACK CFI 28cb2 .cfa: sp 20 + .ra: .cfa -4 + ^ r7: .cfa -8 + ^ r6: .cfa -12 + ^ r5: .cfa -16 + ^ r4: .cfa -20 + ^
STACK CFI 28cb4 .cfa: r7 8 +
STACK CFI 28cb8 r11: .cfa -24 + ^
STACK CFI INIT 28d0c 88 .cfa: sp 0 + .ra: lr
STACK CFI 28d0e .cfa: sp 20 + .ra: .cfa -4 + ^ r7: .cfa -8 + ^ r6: .cfa -12 + ^ r5: .cfa -16 + ^ r4: .cfa -20 + ^
STACK CFI 28d10 .cfa: r7 8 +
STACK CFI 28d14 r8: .cfa -24 + ^
STACK CFI INIT 28d94 d4 .cfa: sp 0 + .ra: lr
STACK CFI 28d96 .cfa: sp 20 + .ra: .cfa -4 + ^ r7: .cfa -8 + ^ r6: .cfa -12 + ^ r5: .cfa -16 + ^ r4: .cfa -20 + ^
STACK CFI 28d98 .cfa: r7 8 +
STACK CFI 28d9c r11: .cfa -24 + ^ r10: .cfa -28 + ^ r9: .cfa -32 + ^ r8: .cfa -36 + ^
STACK CFI INIT 28e68 d0 .cfa: sp 0 + .ra: lr
STACK CFI 28e6a .cfa: sp 20 + .ra: .cfa -4 + ^ r7: .cfa -8 + ^ r6: .cfa -12 + ^ r5: .cfa -16 + ^ r4: .cfa -20 + ^
STACK CFI 28e6c .cfa: r7 8 +
STACK CFI 28e70 r11: .cfa -24 + ^ r10: .cfa -28 + ^ r9: .cfa -32 + ^ r8: .cfa -36 + ^
STACK CFI INIT 28f38 2b8 .cfa: sp 0 + .ra: lr
STACK CFI 28f3a .cfa: sp 20 + .ra: .cfa -4 + ^ r7: .cfa -8 + ^ r6: .cfa -12 + ^ r5: .cfa -16 + ^ r4: .cfa -20 + ^
STACK CFI 28f3c .cfa: r7 8 +
STACK CFI 28f40 r8: .cfa -24 + ^
STACK CFI INIT 291f0 90 .cfa: sp 0 + .ra: lr
STACK CFI 291f2 .cfa: sp 20 + .ra: .cfa -4 + ^ r7: .cfa -8 + ^ r6: .cfa -12 + ^ r5: .cfa -16 + ^ r4: .cfa -20 + ^
STACK CFI 291f4 .cfa: r7 8 +
STACK CFI 291f8 r11: .cfa -24 + ^ r10: .cfa -28 + ^ r9: .cfa -32 + ^ r8: .cfa -36 + ^
STACK CFI INIT 29280 8ec .cfa: sp 0 + .ra: lr
STACK CFI 29282 .cfa: sp 20 + .ra: .cfa -4 + ^ r7: .cfa -8 + ^ r6: .cfa -12 + ^ r5: .cfa -16 + ^ r4: .cfa -20 + ^
STACK CFI 29284 .cfa: r7 8 +
STACK CFI 29288 r11: .cfa -24 + ^ r10: .cfa -28 + ^ r9: .cfa -32 + ^ r8: .cfa -36 + ^
STACK CFI INIT 29b6c 1fc .cfa: sp 0 + .ra: lr
STACK CFI 29b6e .cfa: sp 20 + .ra: .cfa -4 + ^ r7: .cfa -8 + ^ r6: .cfa -12 + ^ r5: .cfa -16 + ^ r4: .cfa -20 + ^
STACK CFI 29b70 .cfa: r7 8 +
STACK CFI 29b74 r11: .cfa -24 + ^ r10: .cfa -28 + ^ r9: .cfa -32 + ^ r8: .cfa -36 + ^
STACK CFI INIT 29d68 118 .cfa: sp 0 + .ra: lr
STACK CFI 29d6a .cfa: sp 20 + .ra: .cfa -4 + ^ r7: .cfa -8 + ^ r6: .cfa -12 + ^ r5: .cfa -16 + ^ r4: .cfa -20 + ^
STACK CFI 29d6c .cfa: r7 8 +
STACK CFI 29d70 r11: .cfa -24 + ^ r10: .cfa -28 + ^ r9: .cfa -32 + ^ r8: .cfa -36 + ^
STACK CFI INIT 29e80 10c .cfa: sp 0 + .ra: lr
STACK CFI 29e82 .cfa: sp 20 + .ra: .cfa -4 + ^ r7: .cfa -8 + ^ r6: .cfa -12 + ^ r5: .cfa -16 + ^ r4: .cfa -20 + ^
STACK CFI 29e84 .cfa: r7 8 +
STACK CFI 29e88 r11: .cfa -24 + ^ r9: .cfa -28 + ^ r8: .cfa -32 + ^
STACK CFI INIT 29f8c 90 .cfa: sp 0 + .ra: lr
STACK CFI 29f8e .cfa: sp 20 + .ra: .cfa -4 + ^ r7: .cfa -8 + ^ r6: .cfa -12 + ^ r5: .cfa -16 + ^ r4: .cfa -20 + ^
STACK CFI 29f90 .cfa: r7 8 +
STACK CFI 29f94 r11: .cfa -24 + ^
STACK CFI INIT 2a01c 344 .cfa: sp 0 + .ra: lr
STACK CFI 2a01e .cfa: sp 20 + .ra: .cfa -4 + ^ r7: .cfa -8 + ^ r6: .cfa -12 + ^ r5: .cfa -16 + ^ r4: .cfa -20 + ^
STACK CFI 2a020 .cfa: r7 8 +
STACK CFI 2a024 r11: .cfa -24 + ^ r10: .cfa -28 + ^ r9: .cfa -32 + ^ r8: .cfa -36 + ^
STACK CFI INIT 2a360 16c .cfa: sp 0 + .ra: lr
STACK CFI 2a362 .cfa: sp 20 + .ra: .cfa -4 + ^ r7: .cfa -8 + ^ r6: .cfa -12 + ^ r5: .cfa -16 + ^ r4: .cfa -20 + ^
STACK CFI 2a364 .cfa: r7 8 +
STACK CFI 2a368 r11: .cfa -24 + ^ r10: .cfa -28 + ^ r9: .cfa -32 + ^ r8: .cfa -36 + ^
