MODULE Linux arm 0EE759F3A3120BFF03B184A31CF50C4A0 TestCasting
INFO CODE_ID F359E70E12A3FF0B03B184A31CF50C4A1DAD608E
INFO GENERATOR mozilla/dump_syms 2.3.6
PUBLIC 35f0 0 _start
PUBLIC 3600 0 _start_main
PUBLIC 366c 0 __atexit_handler_wrapper
PUBLIC 3684 0 atexit
PUBLIC 36b0 0 pthread_atfork
PUBLIC 36cc 0 call_fini_array
FUNC 3710 6 0 TestFloatConversion()
FUNC 3716 30 0 TestSaturatingCast()
FUNC 3748 440 0 TestFirstToOthers<float, short, int, long, signed char, unsigned char, short, unsigned short, int, unsigned int, long long, unsigned long long>()
FUNC 3b88 440 0 TestFirstToOthers<double, short, int, long, signed char, unsigned char, short, unsigned short, int, unsigned int, long long, unsigned long long>()
FUNC 3fc8 30 0 main
FUNC 3ff8 6dc 0 for_each_type_pair<short, int, long, signed char, unsigned char, short, unsigned short, int, unsigned int, long long, unsigned long long>(std::__ndk1::tuple<short, int, long, signed char, unsigned char, short, unsigned short, int, unsigned int, long long, unsigned long long>)
FUNC 46d4 62c 0 for_each_type_pair<int, long, signed char, unsigned char, short, unsigned short, int, unsigned int, long long, unsigned long long>(std::__ndk1::tuple<int, long, signed char, unsigned char, short, unsigned short, int, unsigned int, long long, unsigned long long>)
FUNC 4d00 f8 0 std::__ndk1::__put_character_sequence[abi:dn210000]<char, std::__ndk1::char_traits<char> >(std::__ndk1::basic_ostream<char, std::__ndk1::char_traits<char> >, std::__ndk1::basic_ostream const*, unsigned int)
FUNC 4df8 130 0 std::__ndk1::__pad_and_output[abi:dn210000]<char, std::__ndk1::char_traits<char> >(std::__ndk1::char_traits<char>, std::__ndk1::ostreambuf_iterator const*, std::__ndk1::ostreambuf_iterator const, std::__ndk1::ostreambuf_iterator const, std::__ndk1::ios_base&, std::__ndk1::ostreambuf_iterator)
FUNC 4f28 628 0 for_each_type_pair<long, signed char, unsigned char, short, unsigned short, int, unsigned int, long long, unsigned long long>(std::__ndk1::tuple<long, signed char, unsigned char, short, unsigned short, int, unsigned int, long long, unsigned long long>)
FUNC 5550 570 0 for_each_type_pair<signed char, unsigned char, short, unsigned short, int, unsigned int, long long, unsigned long long>(std::__ndk1::tuple<signed char, unsigned char, short, unsigned short, int, unsigned int, long long, unsigned long long>)
FUNC 5ac0 4b8 0 for_each_type_pair<unsigned char, short, unsigned short, int, unsigned int, long long, unsigned long long>(std::__ndk1::tuple<unsigned char, short, unsigned short, int, unsigned int, long long, unsigned long long>)
FUNC 5f78 3f8 0 for_each_type_pair<short, unsigned short, int, unsigned int, long long, unsigned long long>(std::__ndk1::tuple<short, unsigned short, int, unsigned int, long long, unsigned long long>)
FUNC 6370 33c 0 for_each_type_pair<unsigned short, int, unsigned int, long long, unsigned long long>(std::__ndk1::tuple<unsigned short, int, unsigned int, long long, unsigned long long>)
FUNC 66ac 284 0 for_each_type_pair<int, unsigned int, long long, unsigned long long>(std::__ndk1::tuple<int, unsigned int, long long, unsigned long long>)
FUNC 6930 1c0 0 for_each_type_pair<unsigned int, long long, unsigned long long>(std::__ndk1::tuple<unsigned int, long long, unsigned long long>)
FUNC 6af0 104 0 for_each_type_pair<long long, unsigned long long>(std::__ndk1::tuple<long long, unsigned long long>)
FUNC 6bf4 27c 0 std::__ndk1::DoIOSInit::DoIOSInit()
FUNC 6e70 d8 0 std::__ndk1::stream_data<std::__ndk1::basic_istream<char, std::__ndk1::char_traits<char> >, std::__ndk1::__stdinbuf<char> >::init(__sFILE*)
FUNC 6f48 d8 0 std::__ndk1::stream_data<std::__ndk1::basic_istream<wchar_t, std::__ndk1::char_traits<wchar_t> >, std::__ndk1::__stdinbuf<wchar_t> >::init(__sFILE*)
FUNC 7020 48 0 std::__ndk1::DoIOSInit::~DoIOSInit()
PUBLIC 7069 0 __clang_call_terminate
FUNC 7074 78 0 std::__ndk1::ios_base::Init::Init()
FUNC 70ec 6 0 std::__ndk1::ios_base::Init::~Init()
FUNC 70f4 2c 0 std::__ndk1::__stdinbuf<char>::~__stdinbuf()
FUNC 7120 44 0 std::__ndk1::__stdinbuf<char>::imbue(std::__ndk1::locale const&)
FUNC 7164 e 0 std::__ndk1::__stdinbuf<char>::underflow()
FUNC 7172 e 0 std::__ndk1::__stdinbuf<char>::uflow()
FUNC 7180 b6 0 std::__ndk1::__stdinbuf<char>::pbackfail(int)
FUNC 7236 106 0 std::__ndk1::__stdinbuf<char>::__getchar(bool)
FUNC 733c 98 0 std::__ndk1::__stdoutbuf<char>::__stdoutbuf(__sFILE*, mbstate_t*)
FUNC 73d4 2c 0 std::__ndk1::__stdoutbuf<char>::~__stdoutbuf()
FUNC 7400 30 0 std::__ndk1::__stdoutbuf<char>::imbue(std::__ndk1::locale const&)
FUNC 7430 66 0 std::__ndk1::__stdoutbuf<char>::sync()
FUNC 7496 4e 0 std::__ndk1::__stdoutbuf<char>::xsputn(char const*, int)
FUNC 74e4 b0 0 std::__ndk1::__stdoutbuf<char>::overflow(int)
FUNC 7594 2c 0 std::__ndk1::__stdinbuf<wchar_t>::~__stdinbuf()
FUNC 75c0 44 0 std::__ndk1::__stdinbuf<wchar_t>::imbue(std::__ndk1::locale const&)
FUNC 7604 e 0 std::__ndk1::__stdinbuf<wchar_t>::underflow()
FUNC 7612 e 0 std::__ndk1::__stdinbuf<wchar_t>::uflow()
FUNC 7620 b2 0 std::__ndk1::__stdinbuf<wchar_t>::pbackfail(unsigned int)
FUNC 76d2 fe 0 std::__ndk1::__stdinbuf<wchar_t>::__getchar(bool)
FUNC 77d0 98 0 std::__ndk1::__stdoutbuf<wchar_t>::__stdoutbuf(__sFILE*, mbstate_t*)
FUNC 7868 2c 0 std::__ndk1::__stdoutbuf<wchar_t>::~__stdoutbuf()
FUNC 7894 30 0 std::__ndk1::__stdoutbuf<wchar_t>::imbue(std::__ndk1::locale const&)
FUNC 78c4 66 0 std::__ndk1::__stdoutbuf<wchar_t>::sync()
FUNC 792a 4e 0 std::__ndk1::__stdoutbuf<wchar_t>::xsputn(wchar_t const*, int)
FUNC 7978 ae 0 std::__ndk1::__stdoutbuf<wchar_t>::overflow(unsigned int)
FUNC 7a28 30 0 _GLOBAL__I_000100
PUBLIC m 7a58 0 __aeabi_memset
PUBLIC m 7a68 0 __aeabi_memclr
PUBLIC 7a75 0 __ThumbV7PILongThunk__ZdlPvj
PUBLIC 7a81 0 __ThumbV7PILongThunk_fwrite
PUBLIC 7a8d 0 __ThumbV7PILongThunk___cxa_atexit
PUBLIC 7aa0 0 <.plt ELF section in TestCasting>
STACK CFI INIT 3710 6 .cfa: sp 0 + .ra: lr
STACK CFI 3712 .cfa: sp 8 + .ra: .cfa -4 + ^ r7: .cfa -8 + ^
STACK CFI 3714 .cfa: r7 8 +
STACK CFI INIT 3716 30 .cfa: sp 0 + .ra: lr
STACK CFI 3718 .cfa: sp 8 + .ra: .cfa -4 + ^ r7: .cfa -8 + ^
STACK CFI 371a .cfa: r7 8 +
STACK CFI INIT 3748 440 .cfa: sp 0 + .ra: lr
STACK CFI 374a .cfa: sp 20 + .ra: .cfa -4 + ^ r7: .cfa -8 + ^ r6: .cfa -12 + ^ r5: .cfa -16 + ^ r4: .cfa -20 + ^
STACK CFI 374c .cfa: r7 8 +
STACK CFI 3750 r11: .cfa -24 + ^ r10: .cfa -28 + ^ r9: .cfa -32 + ^ r8: .cfa -36 + ^
STACK CFI INIT 3b88 440 .cfa: sp 0 + .ra: lr
STACK CFI 3b8a .cfa: sp 20 + .ra: .cfa -4 + ^ r7: .cfa -8 + ^ r6: .cfa -12 + ^ r5: .cfa -16 + ^ r4: .cfa -20 + ^
STACK CFI 3b8c .cfa: r7 8 +
STACK CFI 3b90 r11: .cfa -24 + ^ r10: .cfa -28 + ^ r9: .cfa -32 + ^ r8: .cfa -36 + ^
STACK CFI INIT 3fc8 30 .cfa: sp 0 + .ra: lr
STACK CFI 3fca .cfa: sp 8 + .ra: .cfa -4 + ^ r7: .cfa -8 + ^
STACK CFI 3fcc .cfa: r7 8 +
STACK CFI INIT 3ff8 6dc .cfa: sp 0 + .ra: lr
STACK CFI 3ffa .cfa: sp 20 + .ra: .cfa -4 + ^ r7: .cfa -8 + ^ r6: .cfa -12 + ^ r5: .cfa -16 + ^ r4: .cfa -20 + ^
STACK CFI 3ffc .cfa: r7 8 +
STACK CFI 4000 r10: .cfa -24 + ^ r9: .cfa -28 + ^ r8: .cfa -32 + ^
STACK CFI INIT 46d4 62c .cfa: sp 0 + .ra: lr
STACK CFI 46d6 .cfa: sp 20 + .ra: .cfa -4 + ^ r7: .cfa -8 + ^ r6: .cfa -12 + ^ r5: .cfa -16 + ^ r4: .cfa -20 + ^
STACK CFI 46d8 .cfa: r7 8 +
STACK CFI 46dc r11: .cfa -24 + ^ r9: .cfa -28 + ^ r8: .cfa -32 + ^
STACK CFI INIT 4d00 f8 .cfa: sp 0 + .ra: lr
STACK CFI 4d02 .cfa: sp 20 + .ra: .cfa -4 + ^ r7: .cfa -8 + ^ r6: .cfa -12 + ^ r5: .cfa -16 + ^ r4: .cfa -20 + ^
STACK CFI 4d04 .cfa: r7 8 +
STACK CFI 4d08 r11: .cfa -24 + ^ r10: .cfa -28 + ^ r9: .cfa -32 + ^ r8: .cfa -36 + ^
STACK CFI INIT 4df8 130 .cfa: sp 0 + .ra: lr
STACK CFI 4dfa .cfa: sp 20 + .ra: .cfa -4 + ^ r7: .cfa -8 + ^ r6: .cfa -12 + ^ r5: .cfa -16 + ^ r4: .cfa -20 + ^
STACK CFI 4dfc .cfa: r7 8 +
STACK CFI 4e00 r11: .cfa -24 + ^ r10: .cfa -28 + ^ r9: .cfa -32 + ^ r8: .cfa -36 + ^
STACK CFI INIT 4f28 628 .cfa: sp 0 + .ra: lr
STACK CFI 4f2a .cfa: sp 20 + .ra: .cfa -4 + ^ r7: .cfa -8 + ^ r6: .cfa -12 + ^ r5: .cfa -16 + ^ r4: .cfa -20 + ^
STACK CFI 4f2c .cfa: r7 8 +
STACK CFI 4f30 r11: .cfa -24 + ^ r9: .cfa -28 + ^ r8: .cfa -32 + ^
STACK CFI INIT 5550 570 .cfa: sp 0 + .ra: lr
STACK CFI 5552 .cfa: sp 20 + .ra: .cfa -4 + ^ r7: .cfa -8 + ^ r6: .cfa -12 + ^ r5: .cfa -16 + ^ r4: .cfa -20 + ^
STACK CFI 5554 .cfa: r7 8 +
STACK CFI 5558 r11: .cfa -24 + ^ r9: .cfa -28 + ^ r8: .cfa -32 + ^
STACK CFI INIT 5ac0 4b8 .cfa: sp 0 + .ra: lr
STACK CFI 5ac2 .cfa: sp 20 + .ra: .cfa -4 + ^ r7: .cfa -8 + ^ r6: .cfa -12 + ^ r5: .cfa -16 + ^ r4: .cfa -20 + ^
STACK CFI 5ac4 .cfa: r7 8 +
STACK CFI 5ac8 r11: .cfa -24 + ^ r9: .cfa -28 + ^ r8: .cfa -32 + ^
STACK CFI INIT 5f78 3f8 .cfa: sp 0 + .ra: lr
STACK CFI 5f7a .cfa: sp 20 + .ra: .cfa -4 + ^ r7: .cfa -8 + ^ r6: .cfa -12 + ^ r5: .cfa -16 + ^ r4: .cfa -20 + ^
STACK CFI 5f7c .cfa: r7 8 +
STACK CFI 5f80 r11: .cfa -24 + ^ r9: .cfa -28 + ^ r8: .cfa -32 + ^
STACK CFI INIT 6370 33c .cfa: sp 0 + .ra: lr
STACK CFI 6372 .cfa: sp 20 + .ra: .cfa -4 + ^ r7: .cfa -8 + ^ r6: .cfa -12 + ^ r5: .cfa -16 + ^ r4: .cfa -20 + ^
STACK CFI 6374 .cfa: r7 8 +
STACK CFI 6378 r11: .cfa -24 + ^ r9: .cfa -28 + ^ r8: .cfa -32 + ^
STACK CFI INIT 66ac 284 .cfa: sp 0 + .ra: lr
STACK CFI 66ae .cfa: sp 20 + .ra: .cfa -4 + ^ r7: .cfa -8 + ^ r6: .cfa -12 + ^ r5: .cfa -16 + ^ r4: .cfa -20 + ^
STACK CFI 66b0 .cfa: r7 8 +
STACK CFI 66b4 r11: .cfa -24 + ^ r9: .cfa -28 + ^ r8: .cfa -32 + ^
STACK CFI INIT 6930 1c0 .cfa: sp 0 + .ra: lr
STACK CFI 6932 .cfa: sp 20 + .ra: .cfa -4 + ^ r7: .cfa -8 + ^ r6: .cfa -12 + ^ r5: .cfa -16 + ^ r4: .cfa -20 + ^
STACK CFI 6934 .cfa: r7 8 +
STACK CFI 6938 r11: .cfa -24 + ^ r9: .cfa -28 + ^ r8: .cfa -32 + ^
STACK CFI INIT 6af0 104 .cfa: sp 0 + .ra: lr
STACK CFI 6af2 .cfa: sp 20 + .ra: .cfa -4 + ^ r7: .cfa -8 + ^ r6: .cfa -12 + ^ r5: .cfa -16 + ^ r4: .cfa -20 + ^
STACK CFI 6af4 .cfa: r7 8 +
STACK CFI 6af8 r11: .cfa -24 + ^ r9: .cfa -28 + ^ r8: .cfa -32 + ^
STACK CFI INIT 6bf4 27c .cfa: sp 0 + .ra: lr
STACK CFI 6bf6 .cfa: sp 20 + .ra: .cfa -4 + ^ r7: .cfa -8 + ^ r6: .cfa -12 + ^ r5: .cfa -16 + ^ r4: .cfa -20 + ^
STACK CFI 6bf8 .cfa: r7 8 +
STACK CFI 6bfc r11: .cfa -24 + ^ r10: .cfa -28 + ^ r9: .cfa -32 + ^ r8: .cfa -36 + ^
STACK CFI INIT 6e70 d8 .cfa: sp 0 + .ra: lr
STACK CFI 6e72 .cfa: sp 20 + .ra: .cfa -4 + ^ r7: .cfa -8 + ^ r6: .cfa -12 + ^ r5: .cfa -16 + ^ r4: .cfa -20 + ^
STACK CFI 6e74 .cfa: r7 8 +
STACK CFI 6e78 r11: .cfa -24 + ^ r10: .cfa -28 + ^ r9: .cfa -32 + ^ r8: .cfa -36 + ^
STACK CFI INIT 6f48 d8 .cfa: sp 0 + .ra: lr
STACK CFI 6f4a .cfa: sp 20 + .ra: .cfa -4 + ^ r7: .cfa -8 + ^ r6: .cfa -12 + ^ r5: .cfa -16 + ^ r4: .cfa -20 + ^
STACK CFI 6f4c .cfa: r7 8 +
STACK CFI 6f50 r11: .cfa -24 + ^ r10: .cfa -28 + ^ r9: .cfa -32 + ^ r8: .cfa -36 + ^
STACK CFI INIT 7020 48 .cfa: sp 0 + .ra: lr
STACK CFI 7022 .cfa: sp 16 + .ra: .cfa -4 + ^ r7: .cfa -8 + ^ r6: .cfa -12 + ^ r4: .cfa -16 + ^
STACK CFI 7024 .cfa: r7 8 +
STACK CFI INIT 7068 c .cfa: sp 0 + .ra: lr
STACK CFI 706a .cfa: sp 8 + .ra: .cfa -4 + ^ r7: .cfa -8 + ^
STACK CFI 706c .cfa: r7 8 +
STACK CFI INIT 7074 78 .cfa: sp 0 + .ra: lr
STACK CFI 7076 .cfa: sp 16 + .ra: .cfa -4 + ^ r7: .cfa -8 + ^ r6: .cfa -12 + ^ r4: .cfa -16 + ^
STACK CFI 7078 .cfa: r7 8 +
STACK CFI INIT 70ec 6 .cfa: sp 0 + .ra: lr
STACK CFI 70ee .cfa: sp 8 + .ra: .cfa -4 + ^ r7: .cfa -8 + ^
STACK CFI 70f0 .cfa: r7 8 +
STACK CFI INIT 70f4 2c .cfa: sp 0 + .ra: lr
STACK CFI 70f6 .cfa: sp 16 + .ra: .cfa -4 + ^ r7: .cfa -8 + ^ r6: .cfa -12 + ^ r4: .cfa -16 + ^
STACK CFI 70f8 .cfa: r7 8 +
STACK CFI INIT 7120 44 .cfa: sp 0 + .ra: lr
STACK CFI 7122 .cfa: sp 16 + .ra: .cfa -4 + ^ r7: .cfa -8 + ^ r6: .cfa -12 + ^ r4: .cfa -16 + ^
STACK CFI 7124 .cfa: r7 8 +
STACK CFI INIT 7164 e .cfa: sp 0 + .ra: lr
STACK CFI 7166 .cfa: sp 8 + .ra: .cfa -4 + ^ r7: .cfa -8 + ^
STACK CFI 7168 .cfa: r7 8 +
STACK CFI INIT 7172 e .cfa: sp 0 + .ra: lr
STACK CFI 7174 .cfa: sp 8 + .ra: .cfa -4 + ^ r7: .cfa -8 + ^
STACK CFI 7176 .cfa: r7 8 +
STACK CFI INIT 7180 b6 .cfa: sp 0 + .ra: lr
STACK CFI 7182 .cfa: sp 20 + .ra: .cfa -4 + ^ r7: .cfa -8 + ^ r6: .cfa -12 + ^ r5: .cfa -16 + ^ r4: .cfa -20 + ^
STACK CFI 7184 .cfa: r7 8 +
STACK CFI 7188 r11: .cfa -24 + ^
STACK CFI INIT 7236 106 .cfa: sp 0 + .ra: lr
STACK CFI 7238 .cfa: sp 20 + .ra: .cfa -4 + ^ r7: .cfa -8 + ^ r6: .cfa -12 + ^ r5: .cfa -16 + ^ r4: .cfa -20 + ^
STACK CFI 723a .cfa: r7 8 +
STACK CFI 723e r11: .cfa -24 + ^ r10: .cfa -28 + ^ r9: .cfa -32 + ^ r8: .cfa -36 + ^
STACK CFI INIT 733c 98 .cfa: sp 0 + .ra: lr
STACK CFI 733e .cfa: sp 20 + .ra: .cfa -4 + ^ r7: .cfa -8 + ^ r6: .cfa -12 + ^ r5: .cfa -16 + ^ r4: .cfa -20 + ^
STACK CFI 7340 .cfa: r7 8 +
STACK CFI 7344 r11: .cfa -24 + ^ r9: .cfa -28 + ^ r8: .cfa -32 + ^
STACK CFI INIT 73d4 2c .cfa: sp 0 + .ra: lr
STACK CFI 73d6 .cfa: sp 16 + .ra: .cfa -4 + ^ r7: .cfa -8 + ^ r6: .cfa -12 + ^ r4: .cfa -16 + ^
STACK CFI 73d8 .cfa: r7 8 +
STACK CFI INIT 7400 30 .cfa: sp 0 + .ra: lr
STACK CFI 7402 .cfa: sp 16 + .ra: .cfa -4 + ^ r7: .cfa -8 + ^ r5: .cfa -12 + ^ r4: .cfa -16 + ^
STACK CFI 7404 .cfa: r7 8 +
STACK CFI INIT 7430 66 .cfa: sp 0 + .ra: lr
STACK CFI 7432 .cfa: sp 20 + .ra: .cfa -4 + ^ r7: .cfa -8 + ^ r6: .cfa -12 + ^ r5: .cfa -16 + ^ r4: .cfa -20 + ^
STACK CFI 7434 .cfa: r7 8 +
STACK CFI 7438 r10: .cfa -24 + ^ r9: .cfa -28 + ^ r8: .cfa -32 + ^
STACK CFI INIT 7496 4e .cfa: sp 0 + .ra: lr
STACK CFI 7498 .cfa: sp 20 + .ra: .cfa -4 + ^ r7: .cfa -8 + ^ r6: .cfa -12 + ^ r5: .cfa -16 + ^ r4: .cfa -20 + ^
STACK CFI 749a .cfa: r7 8 +
STACK CFI 749e r8: .cfa -24 + ^
STACK CFI INIT 74e4 b0 .cfa: sp 0 + .ra: lr
STACK CFI 74e6 .cfa: sp 20 + .ra: .cfa -4 + ^ r7: .cfa -8 + ^ r6: .cfa -12 + ^ r5: .cfa -16 + ^ r4: .cfa -20 + ^
STACK CFI 74e8 .cfa: r7 8 +
STACK CFI 74ec r11: .cfa -24 + ^ r10: .cfa -28 + ^ r9: .cfa -32 + ^ r8: .cfa -36 + ^
STACK CFI INIT 7594 2c .cfa: sp 0 + .ra: lr
STACK CFI 7596 .cfa: sp 16 + .ra: .cfa -4 + ^ r7: .cfa -8 + ^ r6: .cfa -12 + ^ r4: .cfa -16 + ^
STACK CFI 7598 .cfa: r7 8 +
STACK CFI INIT 75c0 44 .cfa: sp 0 + .ra: lr
STACK CFI 75c2 .cfa: sp 16 + .ra: .cfa -4 + ^ r7: .cfa -8 + ^ r6: .cfa -12 + ^ r4: .cfa -16 + ^
STACK CFI 75c4 .cfa: r7 8 +
STACK CFI INIT 7604 e .cfa: sp 0 + .ra: lr
STACK CFI 7606 .cfa: sp 8 + .ra: .cfa -4 + ^ r7: .cfa -8 + ^
STACK CFI 7608 .cfa: r7 8 +
STACK CFI INIT 7612 e .cfa: sp 0 + .ra: lr
STACK CFI 7614 .cfa: sp 8 + .ra: .cfa -4 + ^ r7: .cfa -8 + ^
STACK CFI 7616 .cfa: r7 8 +
STACK CFI INIT 7620 b2 .cfa: sp 0 + .ra: lr
STACK CFI 7622 .cfa: sp 20 + .ra: .cfa -4 + ^ r7: .cfa -8 + ^ r6: .cfa -12 + ^ r5: .cfa -16 + ^ r4: .cfa -20 + ^
STACK CFI 7624 .cfa: r7 8 +
STACK CFI 7628 r11: .cfa -24 + ^
STACK CFI INIT 76d2 fe .cfa: sp 0 + .ra: lr
STACK CFI 76d4 .cfa: sp 20 + .ra: .cfa -4 + ^ r7: .cfa -8 + ^ r6: .cfa -12 + ^ r5: .cfa -16 + ^ r4: .cfa -20 + ^
STACK CFI 76d6 .cfa: r7 8 +
STACK CFI 76da r11: .cfa -24 + ^ r10: .cfa -28 + ^ r9: .cfa -32 + ^ r8: .cfa -36 + ^
STACK CFI INIT 77d0 98 .cfa: sp 0 + .ra: lr
STACK CFI 77d2 .cfa: sp 20 + .ra: .cfa -4 + ^ r7: .cfa -8 + ^ r6: .cfa -12 + ^ r5: .cfa -16 + ^ r4: .cfa -20 + ^
STACK CFI 77d4 .cfa: r7 8 +
STACK CFI 77d8 r11: .cfa -24 + ^ r9: .cfa -28 + ^ r8: .cfa -32 + ^
STACK CFI INIT 7868 2c .cfa: sp 0 + .ra: lr
STACK CFI 786a .cfa: sp 16 + .ra: .cfa -4 + ^ r7: .cfa -8 + ^ r6: .cfa -12 + ^ r4: .cfa -16 + ^
STACK CFI 786c .cfa: r7 8 +
STACK CFI INIT 7894 30 .cfa: sp 0 + .ra: lr
STACK CFI 7896 .cfa: sp 16 + .ra: .cfa -4 + ^ r7: .cfa -8 + ^ r5: .cfa -12 + ^ r4: .cfa -16 + ^
STACK CFI 7898 .cfa: r7 8 +
STACK CFI INIT 78c4 66 .cfa: sp 0 + .ra: lr
STACK CFI 78c6 .cfa: sp 20 + .ra: .cfa -4 + ^ r7: .cfa -8 + ^ r6: .cfa -12 + ^ r5: .cfa -16 + ^ r4: .cfa -20 + ^
STACK CFI 78c8 .cfa: r7 8 +
STACK CFI 78cc r10: .cfa -24 + ^ r9: .cfa -28 + ^ r8: .cfa -32 + ^
STACK CFI INIT 792a 4e .cfa: sp 0 + .ra: lr
STACK CFI 792c .cfa: sp 20 + .ra: .cfa -4 + ^ r7: .cfa -8 + ^ r6: .cfa -12 + ^ r5: .cfa -16 + ^ r4: .cfa -20 + ^
STACK CFI 792e .cfa: r7 8 +
STACK CFI 7932 r8: .cfa -24 + ^
STACK CFI INIT 7978 ae .cfa: sp 0 + .ra: lr
STACK CFI 797a .cfa: sp 20 + .ra: .cfa -4 + ^ r7: .cfa -8 + ^ r6: .cfa -12 + ^ r5: .cfa -16 + ^ r4: .cfa -20 + ^
STACK CFI 797c .cfa: r7 8 +
STACK CFI 7980 r11: .cfa -24 + ^ r10: .cfa -28 + ^ r9: .cfa -32 + ^ r8: .cfa -36 + ^
STACK CFI INIT 7a28 30 .cfa: sp 0 + .ra: lr
STACK CFI 7a2a .cfa: sp 16 + .ra: .cfa -4 + ^ r7: .cfa -8 + ^ r6: .cfa -12 + ^ r4: .cfa -16 + ^
STACK CFI 7a2c .cfa: r7 8 +
