MODULE Linux arm F96CC03D3662D473BDEDF8D272F24D430 TestMathAlgorithms
INFO CODE_ID 3DC06CF9623673D4BDEDF8D272F24D43BE1850DE
INFO GENERATOR mozilla/dump_syms 2.3.6
PUBLIC 5610 0 _start
PUBLIC 5620 0 _start_main
PUBLIC 568c 0 __atexit_handler_wrapper
PUBLIC 56a4 0 atexit
PUBLIC 56d0 0 pthread_atfork
PUBLIC 56ec 0 call_fini_array
FUNC 5730 e1b8 0 TestGCD()
FUNC 138e8 3c 0 MOZ_ReportAssertionFailure(char const*, char const*, int)
FUNC 13924 c 0 main
PUBLIC 13930 0 <.plt ELF section in TestMathAlgorithms>
STACK CFI INIT 5730 e1b8 .cfa: sp 0 + .ra: lr
STACK CFI 5732 .cfa: sp 20 + .ra: .cfa -4 + ^ r7: .cfa -8 + ^ r6: .cfa -12 + ^ r5: .cfa -16 + ^ r4: .cfa -20 + ^
STACK CFI 5734 .cfa: r7 8 +
STACK CFI 5738 r11: .cfa -24 + ^ r10: .cfa -28 + ^ r9: .cfa -32 + ^ r8: .cfa -36 + ^
STACK CFI INIT 138e8 3c .cfa: sp 0 + .ra: lr
STACK CFI 138ea .cfa: sp 20 + .ra: .cfa -4 + ^ r7: .cfa -8 + ^ r6: .cfa -12 + ^ r5: .cfa -16 + ^ r4: .cfa -20 + ^
STACK CFI 138ec .cfa: r7 8 +
STACK CFI 138f0 r11: .cfa -24 + ^
STACK CFI INIT 13924 c .cfa: sp 0 + .ra: lr
STACK CFI 13926 .cfa: sp 8 + .ra: .cfa -4 + ^ r7: .cfa -8 + ^
STACK CFI 13928 .cfa: r7 8 +
