MODULE Linux arm 01476FD2B2E4E339CFCA8520AC0A072C0 TestSegmentedVector
INFO CODE_ID D26F4701E4B239E3CFCA8520AC0A072C71FFE3FD
INFO GENERATOR mozilla/dump_syms 2.3.6
PUBLIC 1270 0 _start
PUBLIC 1280 0 _start_main
PUBLIC 12ec 0 __atexit_handler_wrapper
PUBLIC 1304 0 atexit
PUBLIC 1330 0 pthread_atfork
PUBLIC 134c 0 call_fini_array
FUNC 1390 60c 0 TestBasics()
FUNC 199c 3c 0 MOZ_ReportAssertionFailure(char const*, char const*, int)
FUNC 19d8 90 0 mozilla::SegmentedVector<int, (unsigned int)1024, InfallibleAllocPolicy>::Append<int>(int&&)
FUNC 1a68 1c8 0 CheckContents<mozilla::SegmentedVector<int, (unsigned int)1024, InfallibleAllocPolicy> >(mozilla::SegmentedVector<int, (unsigned int)1024, InfallibleAllocPolicy>&, unsigned int)
FUNC 1c30 78 0 mozilla::SegmentedVector<int, (unsigned int)1024, InfallibleAllocPolicy>::PopLast()
FUNC 1ca8 94 0 mozilla::SegmentedVector<int, (unsigned int)1024, InfallibleAllocPolicy>::PopLastN(unsigned int)
FUNC 1d3c 1c4 0 TestMoveAndSwap()
FUNC 1f00 8c 0 mozilla::SegmentedVector<int, (unsigned int)32, InfallibleAllocPolicy>::Append<int&>(int&)
FUNC 1f8c c8 0 std::__ndk1::swap[abi:dn210000]<mozilla::SegmentedVector<int, (unsigned int)32, InfallibleAllocPolicy> >(std::__ndk1::enable_if&, std::__ndk1::enable_if<(is_move_constructible<mozilla::SegmentedVector<int, (unsigned int)32, InfallibleAllocPolicy> >::value)&&(is_move_assignable<std::__ndk1::enable_if>::value), void>::type)
FUNC 2054 4e4 0 TestConstructorsAndDestructors()
FUNC 2538 88 0 mozilla::SegmentedVector<NonPOD, (unsigned int)64, InfallibleAllocPolicy>::Append<NonPOD&>(NonPOD&)
FUNC 25c0 88 0 mozilla::SegmentedVector<NonPOD, (unsigned int)64, InfallibleAllocPolicy>::Append<NonPOD>(NonPOD&&)
FUNC 2648 94 0 mozilla::SegmentedVector<NonPOD, (unsigned int)64, InfallibleAllocPolicy>::PopLast()
FUNC 26dc cc 0 mozilla::SegmentedVector<NonPOD, (unsigned int)64, InfallibleAllocPolicy>::PopLastN(unsigned int)
FUNC 27a8 174 0 TestSegmentCapacitiesAndAlignments()
FUNC 291c fd4 0 TestIterator()
FUNC 38f0 a0 0 mozilla::SegmentedVector<int, (unsigned int)4, mozilla::MallocAllocPolicy>::IterImpl::Done() const
FUNC 3990 1c 0 main
FUNC 39ac 7c 0 mozilla::LinkedList<mozilla::SegmentedVector<int, (unsigned int)1024, InfallibleAllocPolicy>::SegmentImpl<(unsigned int)252> >::~LinkedList()
FUNC 3a28 80 0 mozilla::LinkedListElement<mozilla::SegmentedVector<int, (unsigned int)1024, InfallibleAllocPolicy>::SegmentImpl<(unsigned int)252> >::~LinkedListElement()
FUNC 3aa8 3c 0 MOZ_ReportCrash(char const*, char const*, int)
FUNC 3ae4 80 0 mozilla::LinkedList<mozilla::SegmentedVector<int, (unsigned int)1024, InfallibleAllocPolicy>::SegmentImpl<(unsigned int)252> >::popLast()
FUNC 3b64 80 0 mozilla::LinkedList<mozilla::SegmentedVector<int, (unsigned int)1024, InfallibleAllocPolicy>::SegmentImpl<(unsigned int)252> >::popFirst()
FUNC 3be4 7c 0 mozilla::LinkedList<mozilla::SegmentedVector<int, (unsigned int)32, InfallibleAllocPolicy>::SegmentImpl<(unsigned int)4> >::~LinkedList()
FUNC 3c60 bc 0 mozilla::LinkedListElement<mozilla::SegmentedVector<int, (unsigned int)32, InfallibleAllocPolicy>::SegmentImpl<(unsigned int)4> >::adjustLinkForMove(mozilla::LinkedListElement<mozilla::SegmentedVector<int, (unsigned int)32, InfallibleAllocPolicy>::SegmentImpl<(unsigned int)4> >&&)
FUNC 3d1c 7c 0 mozilla::LinkedList<mozilla::SegmentedVector<NonPOD, (unsigned int)64, InfallibleAllocPolicy>::SegmentImpl<(unsigned int)45> >::~LinkedList()
FUNC 3d98 7c 0 mozilla::LinkedList<mozilla::SegmentedVector<double, (unsigned int)512, mozilla::MallocAllocPolicy>::SegmentImpl<(unsigned int)62> >::~LinkedList()
FUNC 3e14 7c 0 mozilla::LinkedList<mozilla::SegmentedVector<A, (unsigned int)1024, mozilla::MallocAllocPolicy>::SegmentImpl<(unsigned int)126> >::~LinkedList()
FUNC 3e90 7c 0 mozilla::LinkedList<mozilla::SegmentedVector<B, (unsigned int)999, mozilla::MallocAllocPolicy>::SegmentImpl<(unsigned int)61> >::~LinkedList()
FUNC 3f0c 7c 0 mozilla::LinkedList<mozilla::SegmentedVector<C, (unsigned int)10, mozilla::MallocAllocPolicy>::SegmentImpl<(unsigned int)1> >::~LinkedList()
FUNC 3f88 7c 0 mozilla::LinkedList<mozilla::SegmentedVector<D, (unsigned int)1234, mozilla::MallocAllocPolicy>::SegmentImpl<(unsigned int)12> >::~LinkedList()
FUNC 4004 7c 0 mozilla::LinkedList<mozilla::SegmentedVector<E, (unsigned int)4096, mozilla::MallocAllocPolicy>::SegmentImpl<(unsigned int)4077> >::~LinkedList()
FUNC 4080 7c 0 mozilla::LinkedList<mozilla::SegmentedVector<mozilla::AlignedElem<(unsigned int)16>, (unsigned int)100, mozilla::MallocAllocPolicy>::SegmentImpl<(unsigned int)5> >::~LinkedList()
FUNC 40fc 7c 0 mozilla::LinkedList<mozilla::SegmentedVector<int, (unsigned int)4, mozilla::MallocAllocPolicy>::SegmentImpl<(unsigned int)1> >::~LinkedList()
PUBLIC 4179 0 __ThumbV7PILongThunk_free
PUBLIC 4190 0 <.plt ELF section in TestSegmentedVector>
STACK CFI INIT 1390 60c .cfa: sp 0 + .ra: lr
STACK CFI 1392 .cfa: sp 20 + .ra: .cfa -4 + ^ r7: .cfa -8 + ^ r6: .cfa -12 + ^ r5: .cfa -16 + ^ r4: .cfa -20 + ^
STACK CFI 1394 .cfa: r7 8 +
STACK CFI 1398 r11: .cfa -24 + ^
STACK CFI INIT 199c 3c .cfa: sp 0 + .ra: lr
STACK CFI 199e .cfa: sp 20 + .ra: .cfa -4 + ^ r7: .cfa -8 + ^ r6: .cfa -12 + ^ r5: .cfa -16 + ^ r4: .cfa -20 + ^
STACK CFI 19a0 .cfa: r7 8 +
STACK CFI 19a4 r11: .cfa -24 + ^
STACK CFI INIT 19d8 90 .cfa: sp 0 + .ra: lr
STACK CFI 19da .cfa: sp 20 + .ra: .cfa -4 + ^ r7: .cfa -8 + ^ r6: .cfa -12 + ^ r5: .cfa -16 + ^ r4: .cfa -20 + ^
STACK CFI 19dc .cfa: r7 8 +
STACK CFI 19e0 r11: .cfa -24 + ^
STACK CFI INIT 1a68 1c8 .cfa: sp 0 + .ra: lr
STACK CFI 1a6a .cfa: sp 20 + .ra: .cfa -4 + ^ r7: .cfa -8 + ^ r6: .cfa -12 + ^ r5: .cfa -16 + ^ r4: .cfa -20 + ^
STACK CFI 1a6c .cfa: r7 8 +
STACK CFI 1a70 r8: .cfa -24 + ^
STACK CFI INIT 1c30 78 .cfa: sp 0 + .ra: lr
STACK CFI 1c32 .cfa: sp 16 + .ra: .cfa -4 + ^ r7: .cfa -8 + ^ r6: .cfa -12 + ^ r4: .cfa -16 + ^
STACK CFI 1c34 .cfa: r7 8 +
STACK CFI INIT 1ca8 94 .cfa: sp 0 + .ra: lr
STACK CFI 1caa .cfa: sp 20 + .ra: .cfa -4 + ^ r7: .cfa -8 + ^ r6: .cfa -12 + ^ r5: .cfa -16 + ^ r4: .cfa -20 + ^
STACK CFI 1cac .cfa: r7 8 +
STACK CFI 1cb0 r8: .cfa -24 + ^
STACK CFI INIT 1d3c 1c4 .cfa: sp 0 + .ra: lr
STACK CFI 1d3e .cfa: sp 16 + .ra: .cfa -4 + ^ r7: .cfa -8 + ^ r5: .cfa -12 + ^ r4: .cfa -16 + ^
STACK CFI 1d40 .cfa: r7 8 +
STACK CFI INIT 1f00 8c .cfa: sp 0 + .ra: lr
STACK CFI 1f02 .cfa: sp 20 + .ra: .cfa -4 + ^ r7: .cfa -8 + ^ r6: .cfa -12 + ^ r5: .cfa -16 + ^ r4: .cfa -20 + ^
STACK CFI 1f04 .cfa: r7 8 +
STACK CFI 1f08 r11: .cfa -24 + ^
STACK CFI INIT 0 1c8 .cfa: sp 0 + .ra: lr
STACK CFI 2 .cfa: sp 20 + .ra: .cfa -4 + ^ r7: .cfa -8 + ^ r6: .cfa -12 + ^ r5: .cfa -16 + ^ r4: .cfa -20 + ^
STACK CFI 4 .cfa: r7 8 +
STACK CFI 8 r8: .cfa -24 + ^
STACK CFI INIT 1f8c c8 .cfa: sp 0 + .ra: lr
STACK CFI 1f8e .cfa: sp 20 + .ra: .cfa -4 + ^ r7: .cfa -8 + ^ r6: .cfa -12 + ^ r5: .cfa -16 + ^ r4: .cfa -20 + ^
STACK CFI 1f90 .cfa: r7 8 +
STACK CFI 1f94 r11: .cfa -24 + ^
STACK CFI INIT 2054 4e4 .cfa: sp 0 + .ra: lr
STACK CFI 2056 .cfa: sp 20 + .ra: .cfa -4 + ^ r7: .cfa -8 + ^ r6: .cfa -12 + ^ r5: .cfa -16 + ^ r4: .cfa -20 + ^
STACK CFI 2058 .cfa: r7 8 +
STACK CFI 205c r11: .cfa -24 + ^ r10: .cfa -28 + ^ r9: .cfa -32 + ^ r8: .cfa -36 + ^
STACK CFI INIT 2538 88 .cfa: sp 0 + .ra: lr
STACK CFI 253a .cfa: sp 16 + .ra: .cfa -4 + ^ r7: .cfa -8 + ^ r5: .cfa -12 + ^ r4: .cfa -16 + ^
STACK CFI 253c .cfa: r7 8 +
STACK CFI INIT 25c0 88 .cfa: sp 0 + .ra: lr
STACK CFI 25c2 .cfa: sp 16 + .ra: .cfa -4 + ^ r7: .cfa -8 + ^ r5: .cfa -12 + ^ r4: .cfa -16 + ^
STACK CFI 25c4 .cfa: r7 8 +
STACK CFI INIT 2648 94 .cfa: sp 0 + .ra: lr
STACK CFI 264a .cfa: sp 16 + .ra: .cfa -4 + ^ r7: .cfa -8 + ^ r5: .cfa -12 + ^ r4: .cfa -16 + ^
STACK CFI 264c .cfa: r7 8 +
STACK CFI INIT 26dc cc .cfa: sp 0 + .ra: lr
STACK CFI 26de .cfa: sp 20 + .ra: .cfa -4 + ^ r7: .cfa -8 + ^ r6: .cfa -12 + ^ r5: .cfa -16 + ^ r4: .cfa -20 + ^
STACK CFI 26e0 .cfa: r7 8 +
STACK CFI 26e4 r11: .cfa -24 + ^ r9: .cfa -28 + ^ r8: .cfa -32 + ^
STACK CFI INIT 27a8 174 .cfa: sp 0 + .ra: lr
STACK CFI 27aa .cfa: sp 16 + .ra: .cfa -4 + ^ r7: .cfa -8 + ^ r6: .cfa -12 + ^ r4: .cfa -16 + ^
STACK CFI 27ac .cfa: r7 8 +
STACK CFI INIT 291c fd4 .cfa: sp 0 + .ra: lr
STACK CFI 291e .cfa: sp 20 + .ra: .cfa -4 + ^ r7: .cfa -8 + ^ r6: .cfa -12 + ^ r5: .cfa -16 + ^ r4: .cfa -20 + ^
STACK CFI 2920 .cfa: r7 8 +
STACK CFI 2924 r11: .cfa -24 + ^ r9: .cfa -28 + ^ r8: .cfa -32 + ^
STACK CFI INIT 38f0 a0 .cfa: sp 0 + .ra: lr
STACK CFI 38f2 .cfa: sp 16 + .ra: .cfa -4 + ^ r7: .cfa -8 + ^ r6: .cfa -12 + ^ r4: .cfa -16 + ^
STACK CFI 38f4 .cfa: r7 8 +
STACK CFI INIT 3990 1c .cfa: sp 0 + .ra: lr
STACK CFI 3992 .cfa: sp 8 + .ra: .cfa -4 + ^ r7: .cfa -8 + ^
STACK CFI 3994 .cfa: r7 8 +
STACK CFI INIT 39ac 7c .cfa: sp 0 + .ra: lr
STACK CFI 39ae .cfa: sp 16 + .ra: .cfa -4 + ^ r7: .cfa -8 + ^ r6: .cfa -12 + ^ r4: .cfa -16 + ^
STACK CFI 39b0 .cfa: r7 8 +
STACK CFI INIT 3a28 80 .cfa: sp 0 + .ra: lr
STACK CFI 3a2a .cfa: sp 16 + .ra: .cfa -4 + ^ r7: .cfa -8 + ^ r6: .cfa -12 + ^ r4: .cfa -16 + ^
STACK CFI 3a2c .cfa: r7 8 +
STACK CFI INIT 3aa8 3c .cfa: sp 0 + .ra: lr
STACK CFI 3aaa .cfa: sp 20 + .ra: .cfa -4 + ^ r7: .cfa -8 + ^ r6: .cfa -12 + ^ r5: .cfa -16 + ^ r4: .cfa -20 + ^
STACK CFI 3aac .cfa: r7 8 +
STACK CFI 3ab0 r11: .cfa -24 + ^
STACK CFI INIT 0 a0 .cfa: sp 0 + .ra: lr
STACK CFI 2 .cfa: sp 16 + .ra: .cfa -4 + ^ r7: .cfa -8 + ^ r6: .cfa -12 + ^ r4: .cfa -16 + ^
STACK CFI 4 .cfa: r7 8 +
STACK CFI INIT 3ae4 80 .cfa: sp 0 + .ra: lr
STACK CFI 3ae6 .cfa: sp 16 + .ra: .cfa -4 + ^ r7: .cfa -8 + ^ r6: .cfa -12 + ^ r4: .cfa -16 + ^
STACK CFI 3ae8 .cfa: r7 8 +
STACK CFI INIT 3b64 80 .cfa: sp 0 + .ra: lr
STACK CFI 3b66 .cfa: sp 16 + .ra: .cfa -4 + ^ r7: .cfa -8 + ^ r6: .cfa -12 + ^ r4: .cfa -16 + ^
STACK CFI 3b68 .cfa: r7 8 +
STACK CFI INIT 3be4 7c .cfa: sp 0 + .ra: lr
STACK CFI 3be6 .cfa: sp 16 + .ra: .cfa -4 + ^ r7: .cfa -8 + ^ r6: .cfa -12 + ^ r4: .cfa -16 + ^
STACK CFI 3be8 .cfa: r7 8 +
STACK CFI INIT 0 80 .cfa: sp 0 + .ra: lr
STACK CFI 2 .cfa: sp 16 + .ra: .cfa -4 + ^ r7: .cfa -8 + ^ r6: .cfa -12 + ^ r4: .cfa -16 + ^
STACK CFI 4 .cfa: r7 8 +
STACK CFI INIT 0 80 .cfa: sp 0 + .ra: lr
STACK CFI 2 .cfa: sp 16 + .ra: .cfa -4 + ^ r7: .cfa -8 + ^ r6: .cfa -12 + ^ r4: .cfa -16 + ^
STACK CFI 4 .cfa: r7 8 +
STACK CFI INIT 0 a0 .cfa: sp 0 + .ra: lr
STACK CFI 2 .cfa: sp 16 + .ra: .cfa -4 + ^ r7: .cfa -8 + ^ r6: .cfa -12 + ^ r4: .cfa -16 + ^
STACK CFI 4 .cfa: r7 8 +
STACK CFI INIT 3c60 bc .cfa: sp 0 + .ra: lr
STACK CFI 3c62 .cfa: sp 16 + .ra: .cfa -4 + ^ r7: .cfa -8 + ^ r6: .cfa -12 + ^ r4: .cfa -16 + ^
STACK CFI 3c64 .cfa: r7 8 +
STACK CFI INIT 3d1c 7c .cfa: sp 0 + .ra: lr
STACK CFI 3d1e .cfa: sp 16 + .ra: .cfa -4 + ^ r7: .cfa -8 + ^ r6: .cfa -12 + ^ r4: .cfa -16 + ^
STACK CFI 3d20 .cfa: r7 8 +
STACK CFI INIT 0 80 .cfa: sp 0 + .ra: lr
STACK CFI 2 .cfa: sp 16 + .ra: .cfa -4 + ^ r7: .cfa -8 + ^ r6: .cfa -12 + ^ r4: .cfa -16 + ^
STACK CFI 4 .cfa: r7 8 +
STACK CFI INIT 0 80 .cfa: sp 0 + .ra: lr
STACK CFI 2 .cfa: sp 16 + .ra: .cfa -4 + ^ r7: .cfa -8 + ^ r6: .cfa -12 + ^ r4: .cfa -16 + ^
STACK CFI 4 .cfa: r7 8 +
STACK CFI INIT 0 80 .cfa: sp 0 + .ra: lr
STACK CFI 2 .cfa: sp 16 + .ra: .cfa -4 + ^ r7: .cfa -8 + ^ r6: .cfa -12 + ^ r4: .cfa -16 + ^
STACK CFI 4 .cfa: r7 8 +
STACK CFI INIT 3d98 7c .cfa: sp 0 + .ra: lr
STACK CFI 3d9a .cfa: sp 16 + .ra: .cfa -4 + ^ r7: .cfa -8 + ^ r6: .cfa -12 + ^ r4: .cfa -16 + ^
STACK CFI 3d9c .cfa: r7 8 +
STACK CFI INIT 0 80 .cfa: sp 0 + .ra: lr
STACK CFI 2 .cfa: sp 16 + .ra: .cfa -4 + ^ r7: .cfa -8 + ^ r6: .cfa -12 + ^ r4: .cfa -16 + ^
STACK CFI 4 .cfa: r7 8 +
STACK CFI INIT 0 80 .cfa: sp 0 + .ra: lr
STACK CFI 2 .cfa: sp 16 + .ra: .cfa -4 + ^ r7: .cfa -8 + ^ r6: .cfa -12 + ^ r4: .cfa -16 + ^
STACK CFI 4 .cfa: r7 8 +
STACK CFI INIT 3e14 7c .cfa: sp 0 + .ra: lr
STACK CFI 3e16 .cfa: sp 16 + .ra: .cfa -4 + ^ r7: .cfa -8 + ^ r6: .cfa -12 + ^ r4: .cfa -16 + ^
STACK CFI 3e18 .cfa: r7 8 +
STACK CFI INIT 0 80 .cfa: sp 0 + .ra: lr
STACK CFI 2 .cfa: sp 16 + .ra: .cfa -4 + ^ r7: .cfa -8 + ^ r6: .cfa -12 + ^ r4: .cfa -16 + ^
STACK CFI 4 .cfa: r7 8 +
STACK CFI INIT 0 80 .cfa: sp 0 + .ra: lr
STACK CFI 2 .cfa: sp 16 + .ra: .cfa -4 + ^ r7: .cfa -8 + ^ r6: .cfa -12 + ^ r4: .cfa -16 + ^
STACK CFI 4 .cfa: r7 8 +
STACK CFI INIT 3e90 7c .cfa: sp 0 + .ra: lr
STACK CFI 3e92 .cfa: sp 16 + .ra: .cfa -4 + ^ r7: .cfa -8 + ^ r6: .cfa -12 + ^ r4: .cfa -16 + ^
STACK CFI 3e94 .cfa: r7 8 +
STACK CFI INIT 0 80 .cfa: sp 0 + .ra: lr
STACK CFI 2 .cfa: sp 16 + .ra: .cfa -4 + ^ r7: .cfa -8 + ^ r6: .cfa -12 + ^ r4: .cfa -16 + ^
STACK CFI 4 .cfa: r7 8 +
STACK CFI INIT 0 80 .cfa: sp 0 + .ra: lr
STACK CFI 2 .cfa: sp 16 + .ra: .cfa -4 + ^ r7: .cfa -8 + ^ r6: .cfa -12 + ^ r4: .cfa -16 + ^
STACK CFI 4 .cfa: r7 8 +
STACK CFI INIT 3f0c 7c .cfa: sp 0 + .ra: lr
STACK CFI 3f0e .cfa: sp 16 + .ra: .cfa -4 + ^ r7: .cfa -8 + ^ r6: .cfa -12 + ^ r4: .cfa -16 + ^
STACK CFI 3f10 .cfa: r7 8 +
STACK CFI INIT 0 80 .cfa: sp 0 + .ra: lr
STACK CFI 2 .cfa: sp 16 + .ra: .cfa -4 + ^ r7: .cfa -8 + ^ r6: .cfa -12 + ^ r4: .cfa -16 + ^
STACK CFI 4 .cfa: r7 8 +
STACK CFI INIT 0 80 .cfa: sp 0 + .ra: lr
STACK CFI 2 .cfa: sp 16 + .ra: .cfa -4 + ^ r7: .cfa -8 + ^ r6: .cfa -12 + ^ r4: .cfa -16 + ^
STACK CFI 4 .cfa: r7 8 +
STACK CFI INIT 3f88 7c .cfa: sp 0 + .ra: lr
STACK CFI 3f8a .cfa: sp 16 + .ra: .cfa -4 + ^ r7: .cfa -8 + ^ r6: .cfa -12 + ^ r4: .cfa -16 + ^
STACK CFI 3f8c .cfa: r7 8 +
STACK CFI INIT 0 80 .cfa: sp 0 + .ra: lr
STACK CFI 2 .cfa: sp 16 + .ra: .cfa -4 + ^ r7: .cfa -8 + ^ r6: .cfa -12 + ^ r4: .cfa -16 + ^
STACK CFI 4 .cfa: r7 8 +
STACK CFI INIT 0 80 .cfa: sp 0 + .ra: lr
STACK CFI 2 .cfa: sp 16 + .ra: .cfa -4 + ^ r7: .cfa -8 + ^ r6: .cfa -12 + ^ r4: .cfa -16 + ^
STACK CFI 4 .cfa: r7 8 +
STACK CFI INIT 4004 7c .cfa: sp 0 + .ra: lr
STACK CFI 4006 .cfa: sp 16 + .ra: .cfa -4 + ^ r7: .cfa -8 + ^ r6: .cfa -12 + ^ r4: .cfa -16 + ^
STACK CFI 4008 .cfa: r7 8 +
STACK CFI INIT 0 80 .cfa: sp 0 + .ra: lr
STACK CFI 2 .cfa: sp 16 + .ra: .cfa -4 + ^ r7: .cfa -8 + ^ r6: .cfa -12 + ^ r4: .cfa -16 + ^
STACK CFI 4 .cfa: r7 8 +
STACK CFI INIT 0 80 .cfa: sp 0 + .ra: lr
STACK CFI 2 .cfa: sp 16 + .ra: .cfa -4 + ^ r7: .cfa -8 + ^ r6: .cfa -12 + ^ r4: .cfa -16 + ^
STACK CFI 4 .cfa: r7 8 +
STACK CFI INIT 4080 7c .cfa: sp 0 + .ra: lr
STACK CFI 4082 .cfa: sp 16 + .ra: .cfa -4 + ^ r7: .cfa -8 + ^ r6: .cfa -12 + ^ r4: .cfa -16 + ^
STACK CFI 4084 .cfa: r7 8 +
STACK CFI INIT 0 80 .cfa: sp 0 + .ra: lr
STACK CFI 2 .cfa: sp 16 + .ra: .cfa -4 + ^ r7: .cfa -8 + ^ r6: .cfa -12 + ^ r4: .cfa -16 + ^
STACK CFI 4 .cfa: r7 8 +
STACK CFI INIT 0 80 .cfa: sp 0 + .ra: lr
STACK CFI 2 .cfa: sp 16 + .ra: .cfa -4 + ^ r7: .cfa -8 + ^ r6: .cfa -12 + ^ r4: .cfa -16 + ^
STACK CFI 4 .cfa: r7 8 +
STACK CFI INIT 40fc 7c .cfa: sp 0 + .ra: lr
STACK CFI 40fe .cfa: sp 16 + .ra: .cfa -4 + ^ r7: .cfa -8 + ^ r6: .cfa -12 + ^ r4: .cfa -16 + ^
STACK CFI 4100 .cfa: r7 8 +
STACK CFI INIT 0 80 .cfa: sp 0 + .ra: lr
STACK CFI 2 .cfa: sp 16 + .ra: .cfa -4 + ^ r7: .cfa -8 + ^ r6: .cfa -12 + ^ r4: .cfa -16 + ^
STACK CFI 4 .cfa: r7 8 +
STACK CFI INIT 0 80 .cfa: sp 0 + .ra: lr
STACK CFI 2 .cfa: sp 16 + .ra: .cfa -4 + ^ r7: .cfa -8 + ^ r6: .cfa -12 + ^ r4: .cfa -16 + ^
STACK CFI 4 .cfa: r7 8 +
