MODULE Linux arm 30E82E5EFE2E4F3AD0833D228302273C0 TestVector
INFO CODE_ID 5E2EE8302EFE3A4FD0833D228302273CE40ED217
INFO GENERATOR mozilla/dump_syms 2.3.6
PUBLIC 1840 0 _start
PUBLIC 1850 0 _start_main
PUBLIC 18bc 0 __atexit_handler_wrapper
PUBLIC 18d4 0 atexit
PUBLIC 1900 0 pthread_atfork
PUBLIC 191c 0 call_fini_array
FUNC 1960 c28 0 mozilla::detail::VectorTesting::testReserved()
FUNC 2588 3c 0 MOZ_ReportAssertionFailure(char const*, char const*, int)
FUNC 25c4 118 0 mozilla::Vector<bool, (unsigned int)0, mozilla::MallocAllocPolicy>::append<bool>(bool&&)
FUNC 26dc 130 0 mozilla::Vector<bool, (unsigned int)0, mozilla::MallocAllocPolicy>::reserve(unsigned int)
FUNC 280c 124 0 mozilla::Vector<int, (unsigned int)42, mozilla::MallocAllocPolicy>::append<int>(int&&)
FUNC 2930 13c 0 mozilla::Vector<int, (unsigned int)42, mozilla::MallocAllocPolicy>::reserve(unsigned int)
FUNC 2a6c d4 0 mozilla::Vector<int, (unsigned int)42, mozilla::MallocAllocPolicy>::~Vector()
FUNC 2b40 c8 0 mozilla::Vector<bool, (unsigned int)0, mozilla::MallocAllocPolicy>::~Vector()
FUNC 2c08 16c 0 mozilla::detail::VectorTesting::testConstRange()
FUNC 2d74 118 0 mozilla::Vector<int, (unsigned int)0, mozilla::MallocAllocPolicy>::append<int&>(int&)
FUNC 2e8c c8 0 mozilla::Vector<int, (unsigned int)0, mozilla::MallocAllocPolicy>::~Vector()
FUNC 2f54 498 0 mozilla::detail::VectorTesting::testEmplaceBack()
FUNC 33ec 130 0 mozilla::Vector<(anonymous namespace)::S, (unsigned int)0, mozilla::MallocAllocPolicy>::reserve(unsigned int)
FUNC 351c 110 0 mozilla::Vector<(anonymous namespace)::S, (unsigned int)0, mozilla::MallocAllocPolicy>::~Vector()
FUNC 362c 610 0 mozilla::detail::VectorTesting::testReverse()
FUNC 3c3c 11c 0 mozilla::Vector<std::__ndk1::unique_ptr<unsigned char, std::__ndk1::default_delete<unsigned char> >, (unsigned int)0, mozilla::MallocAllocPolicy>::append<std::__ndk1::unique_ptr<unsigned char, std::__ndk1::default_delete<unsigned char> > >(std::__ndk1::unique_ptr<unsigned char, std::__ndk1::default_delete<unsigned char> >&&)
FUNC 3d58 d8 0 mozilla::Vector<std::__ndk1::unique_ptr<unsigned char, std::__ndk1::default_delete<unsigned char> >, (unsigned int)0, mozilla::MallocAllocPolicy>::reverse()
FUNC 3e30 dc 0 mozilla::Vector<std::__ndk1::unique_ptr<unsigned char, std::__ndk1::default_delete<unsigned char> >, (unsigned int)0, mozilla::MallocAllocPolicy>::popBack()
FUNC 3f0c ec 0 mozilla::Vector<std::__ndk1::unique_ptr<unsigned char, std::__ndk1::default_delete<unsigned char> >, (unsigned int)0, mozilla::MallocAllocPolicy>::clear()
FUNC 3ff8 128 0 mozilla::Vector<std::__ndk1::unique_ptr<unsigned char, std::__ndk1::default_delete<unsigned char> >, (unsigned int)5, mozilla::MallocAllocPolicy>::append<std::__ndk1::unique_ptr<unsigned char, std::__ndk1::default_delete<unsigned char> > >(std::__ndk1::unique_ptr<unsigned char, std::__ndk1::default_delete<unsigned char> >&&)
FUNC 4120 e4 0 mozilla::Vector<std::__ndk1::unique_ptr<unsigned char, std::__ndk1::default_delete<unsigned char> >, (unsigned int)5, mozilla::MallocAllocPolicy>::reverse()
FUNC 4204 100 0 mozilla::Vector<std::__ndk1::unique_ptr<unsigned char, std::__ndk1::default_delete<unsigned char> >, (unsigned int)5, mozilla::MallocAllocPolicy>::~Vector()
FUNC 4304 f8 0 mozilla::Vector<std::__ndk1::unique_ptr<unsigned char, std::__ndk1::default_delete<unsigned char> >, (unsigned int)0, mozilla::MallocAllocPolicy>::~Vector()
FUNC 43fc 778 0 mozilla::detail::VectorTesting::testExtractRawBuffer()
FUNC 4b74 13c 0 mozilla::Vector<(anonymous namespace)::S, (unsigned int)5, mozilla::MallocAllocPolicy>::reserve(unsigned int)
FUNC 4cb0 ec 0 mozilla::Vector<(anonymous namespace)::S, (unsigned int)5, mozilla::MallocAllocPolicy>::infallibleEmplaceBack<unsigned int&, unsigned int>(unsigned int&, unsigned int)
FUNC 4d9c d8 0 mozilla::Vector<(anonymous namespace)::S, (unsigned int)5, mozilla::MallocAllocPolicy>::extractRawBuffer()
FUNC 4e74 118 0 mozilla::Vector<(anonymous namespace)::S, (unsigned int)5, mozilla::MallocAllocPolicy>::~Vector()
FUNC 4f8c 874 0 mozilla::detail::VectorTesting::testExtractOrCopyRawBuffer()
FUNC 5800 1fc 0 mozilla::Vector<(anonymous namespace)::S, (unsigned int)5, mozilla::MallocAllocPolicy>::extractOrCopyRawBuffer()
FUNC 5a00 b88 0 mozilla::detail::VectorTesting::testReplaceRawBuffer()
FUNC 6588 e8 0 mozilla::Vector<(anonymous namespace)::S, (unsigned int)0, mozilla::MallocAllocPolicy>::infallibleEmplaceBack<int, int>(int, int&&)
FUNC 6670 688 0 mozilla::detail::VectorTesting::testInsert()
FUNC 6cf8 13c 0 mozilla::Vector<(anonymous namespace)::S, (unsigned int)8, mozilla::MallocAllocPolicy>::reserve(unsigned int)
FUNC 6e34 ec 0 mozilla::Vector<(anonymous namespace)::S, (unsigned int)8, mozilla::MallocAllocPolicy>::infallibleEmplaceBack<unsigned int&, unsigned int>(unsigned int&, unsigned int)
FUNC 6f20 118 0 mozilla::Vector<(anonymous namespace)::S, (unsigned int)8, mozilla::MallocAllocPolicy>::~Vector()
FUNC 7038 11dc 0 mozilla::detail::VectorTesting::testErase()
FUNC 8214 1238 0 mozilla::detail::VectorTesting::testShrinkStorageToFit()
FUNC 944c 130 0 mozilla::Vector<int, (unsigned int)0, mozilla::MallocAllocPolicy>::reserve(unsigned int)
FUNC 957c 168 0 mozilla::Vector<int, (unsigned int)0, mozilla::MallocAllocPolicy>::shrinkStorageToFit()
FUNC 96e4 134 0 mozilla::Vector<int, (unsigned int)2, mozilla::MallocAllocPolicy>::reserve(unsigned int)
FUNC 9818 1ac 0 mozilla::Vector<int, (unsigned int)2, mozilla::MallocAllocPolicy>::shrinkStorageToFit()
FUNC 99c4 d0 0 mozilla::Vector<int, (unsigned int)2, mozilla::MallocAllocPolicy>::~Vector()
FUNC 9a94 32c 0 mozilla::detail::VectorTesting::testAppend()
FUNC 9dc0 148 0 mozilla::Vector<std::__ndk1::unique_ptr<int, std::__ndk1::default_delete<int> >, (unsigned int)0, mozilla::MallocAllocPolicy>::appendAll<std::__ndk1::unique_ptr<int, std::__ndk1::default_delete<int> >, (unsigned int)0, mozilla::MallocAllocPolicy>(mozilla::Vector<std::__ndk1::unique_ptr<int, std::__ndk1::default_delete<int> >, (unsigned int)0, mozilla::MallocAllocPolicy>&&)
FUNC 9f08 1b0 0 main
FUNC a0b8 d4 0 mozilla::Vector<long, (unsigned int)64, mozilla::MallocAllocPolicy>::~Vector()
FUNC a18c d0 0 mozilla::Vector<long, (unsigned int)1, mozilla::MallocAllocPolicy>::~Vector()
FUNC a25c d4 0 mozilla::Vector<bool, (unsigned int)64, mozilla::MallocAllocPolicy>::~Vector()
FUNC a330 b0 0 mozilla::Vector<bool, (unsigned int)0, mozilla::MallocAllocPolicy>::growStorageBy(unsigned int)
FUNC a3e0 104 0 mozilla::Vector<bool, (unsigned int)0, mozilla::MallocAllocPolicy>::convertToHeapStorage(unsigned int)
FUNC a4e4 ac 0 mozilla::detail::VectorImpl<bool, (unsigned int)0, mozilla::MallocAllocPolicy, true>::growTo(mozilla::Vector<bool, (unsigned int)0, mozilla::MallocAllocPolicy>&, unsigned int)
FUNC a590 1c4 0 mozilla::Vector<bool, (unsigned int)0, mozilla::MallocAllocPolicy>::append<bool>(bool const*, bool const*)
FUNC a754 bc 0 mozilla::Vector<bool, (unsigned int)0, mozilla::MallocAllocPolicy>::clear()
FUNC a810 c0 0 mozilla::Vector<int, (unsigned int)42, mozilla::MallocAllocPolicy>::growStorageBy(unsigned int)
FUNC a8d0 12c 0 mozilla::Vector<int, (unsigned int)42, mozilla::MallocAllocPolicy>::convertToHeapStorage(unsigned int)
FUNC a9fc bc 0 mozilla::detail::VectorImpl<int, (unsigned int)42, mozilla::MallocAllocPolicy, true>::growTo(mozilla::Vector<int, (unsigned int)42, mozilla::MallocAllocPolicy>&, unsigned int)
FUNC aab8 1f8 0 mozilla::Vector<int, (unsigned int)42, mozilla::MallocAllocPolicy>::append<int>(int const*, int const*)
FUNC acb0 c4 0 mozilla::Vector<int, (unsigned int)42, mozilla::MallocAllocPolicy>::clear()
FUNC ad74 c0 0 mozilla::Vector<int, (unsigned int)0, mozilla::MallocAllocPolicy>::growStorageBy(unsigned int)
FUNC ae34 12c 0 mozilla::Vector<int, (unsigned int)0, mozilla::MallocAllocPolicy>::convertToHeapStorage(unsigned int)
FUNC af60 b8 0 mozilla::detail::VectorImpl<int, (unsigned int)0, mozilla::MallocAllocPolicy, true>::growTo(mozilla::Vector<int, (unsigned int)0, mozilla::MallocAllocPolicy>&, unsigned int)
FUNC b018 28c 0 mozilla::Vector<(anonymous namespace)::S, (unsigned int)0, mozilla::MallocAllocPolicy>::growStorageBy(unsigned int)
FUNC b2a4 160 0 mozilla::Vector<(anonymous namespace)::S, (unsigned int)0, mozilla::MallocAllocPolicy>::growByUninitialized(unsigned int)
FUNC b404 c0 0 mozilla::Vector<std::__ndk1::unique_ptr<unsigned char, std::__ndk1::default_delete<unsigned char> >, (unsigned int)0, mozilla::MallocAllocPolicy>::growStorageBy(unsigned int)
FUNC b4c4 184 0 mozilla::Vector<std::__ndk1::unique_ptr<unsigned char, std::__ndk1::default_delete<unsigned char> >, (unsigned int)0, mozilla::MallocAllocPolicy>::convertToHeapStorage(unsigned int)
FUNC b648 104 0 mozilla::detail::VectorImpl<std::__ndk1::unique_ptr<unsigned char, std::__ndk1::default_delete<unsigned char> >, (unsigned int)0, mozilla::MallocAllocPolicy, false>::growTo(mozilla::Vector<std::__ndk1::unique_ptr<unsigned char, std::__ndk1::default_delete<unsigned char> >, (unsigned int)0, mozilla::MallocAllocPolicy>&, unsigned int)
FUNC b74c c0 0 mozilla::Vector<std::__ndk1::unique_ptr<unsigned char, std::__ndk1::default_delete<unsigned char> >, (unsigned int)5, mozilla::MallocAllocPolicy>::growStorageBy(unsigned int)
FUNC b80c 184 0 mozilla::Vector<std::__ndk1::unique_ptr<unsigned char, std::__ndk1::default_delete<unsigned char> >, (unsigned int)5, mozilla::MallocAllocPolicy>::convertToHeapStorage(unsigned int)
FUNC b990 104 0 mozilla::detail::VectorImpl<std::__ndk1::unique_ptr<unsigned char, std::__ndk1::default_delete<unsigned char> >, (unsigned int)5, mozilla::MallocAllocPolicy, false>::growTo(mozilla::Vector<std::__ndk1::unique_ptr<unsigned char, std::__ndk1::default_delete<unsigned char> >, (unsigned int)5, mozilla::MallocAllocPolicy>&, unsigned int)
FUNC ba94 2c8 0 mozilla::Vector<(anonymous namespace)::S, (unsigned int)5, mozilla::MallocAllocPolicy>::growStorageBy(unsigned int)
FUNC bd5c 2c8 0 mozilla::Vector<(anonymous namespace)::S, (unsigned int)2, mozilla::MallocAllocPolicy>::growStorageBy(unsigned int)
FUNC c024 2c8 0 mozilla::Vector<(anonymous namespace)::S, (unsigned int)8, mozilla::MallocAllocPolicy>::growStorageBy(unsigned int)
FUNC c2ec 150 0 mozilla::Vector<(anonymous namespace)::S, (unsigned int)8, mozilla::MallocAllocPolicy>::append<(anonymous namespace)::S>((anonymous namespace)::S&&)
FUNC c43c 168 0 mozilla::Vector<(anonymous namespace)::S, (unsigned int)8, mozilla::MallocAllocPolicy>::shrinkBy(unsigned int)
FUNC c5a4 c0 0 mozilla::Vector<int, (unsigned int)2, mozilla::MallocAllocPolicy>::growStorageBy(unsigned int)
FUNC c664 2d8 0 mozilla::Vector<mozilla::detail::VectorTesting::testShrinkStorageToFit()::NonPod, (unsigned int)5, mozilla::MallocAllocPolicy>::growStorageBy(unsigned int)
FUNC c93c 2d8 0 mozilla::Vector<mozilla::detail::VectorTesting::testShrinkStorageToFit()::NonPod, (unsigned int)5, mozilla::MallocAllocPolicy>::growStorageBy(unsigned int)
FUNC cc14 214 0 mozilla::Vector<std::__ndk1::unique_ptr<int, std::__ndk1::default_delete<int> >, (unsigned int)0, mozilla::MallocAllocPolicy>::moveAppend<std::__ndk1::unique_ptr<int, std::__ndk1::default_delete<int> > >(std::__ndk1::unique_ptr<int, std::__ndk1::default_delete<int> >*, std::__ndk1::unique_ptr<int, std::__ndk1::default_delete<int> >*)
PUBLIC m ce28 0 __aeabi_memset8
PUBLIC m ce38 0 __aeabi_memclr
PUBLIC ce50 0 <.plt ELF section in TestVector>
STACK CFI INIT 1960 c28 .cfa: sp 0 + .ra: lr
STACK CFI 1962 .cfa: sp 20 + .ra: .cfa -4 + ^ r7: .cfa -8 + ^ r6: .cfa -12 + ^ r5: .cfa -16 + ^ r4: .cfa -20 + ^
STACK CFI 1964 .cfa: r7 8 +
STACK CFI 1968 r8: .cfa -24 + ^
STACK CFI INIT 2588 3c .cfa: sp 0 + .ra: lr
STACK CFI 258a .cfa: sp 20 + .ra: .cfa -4 + ^ r7: .cfa -8 + ^ r6: .cfa -12 + ^ r5: .cfa -16 + ^ r4: .cfa -20 + ^
STACK CFI 258c .cfa: r7 8 +
STACK CFI 2590 r11: .cfa -24 + ^
STACK CFI INIT 25c4 118 .cfa: sp 0 + .ra: lr
STACK CFI 25c6 .cfa: sp 16 + .ra: .cfa -4 + ^ r7: .cfa -8 + ^ r5: .cfa -12 + ^ r4: .cfa -16 + ^
STACK CFI 25c8 .cfa: r7 8 +
STACK CFI INIT 26dc 130 .cfa: sp 0 + .ra: lr
STACK CFI 26de .cfa: sp 16 + .ra: .cfa -4 + ^ r7: .cfa -8 + ^ r5: .cfa -12 + ^ r4: .cfa -16 + ^
STACK CFI 26e0 .cfa: r7 8 +
STACK CFI INIT 280c 124 .cfa: sp 0 + .ra: lr
STACK CFI 280e .cfa: sp 16 + .ra: .cfa -4 + ^ r7: .cfa -8 + ^ r5: .cfa -12 + ^ r4: .cfa -16 + ^
STACK CFI 2810 .cfa: r7 8 +
STACK CFI INIT 2930 13c .cfa: sp 0 + .ra: lr
STACK CFI 2932 .cfa: sp 16 + .ra: .cfa -4 + ^ r7: .cfa -8 + ^ r5: .cfa -12 + ^ r4: .cfa -16 + ^
STACK CFI 2934 .cfa: r7 8 +
STACK CFI INIT 2a6c d4 .cfa: sp 0 + .ra: lr
STACK CFI 2a6e .cfa: sp 16 + .ra: .cfa -4 + ^ r7: .cfa -8 + ^ r6: .cfa -12 + ^ r4: .cfa -16 + ^
STACK CFI 2a70 .cfa: r7 8 +
STACK CFI INIT 2b40 c8 .cfa: sp 0 + .ra: lr
STACK CFI 2b42 .cfa: sp 16 + .ra: .cfa -4 + ^ r7: .cfa -8 + ^ r6: .cfa -12 + ^ r4: .cfa -16 + ^
STACK CFI 2b44 .cfa: r7 8 +
STACK CFI INIT 2c08 16c .cfa: sp 0 + .ra: lr
STACK CFI 2c0a .cfa: sp 16 + .ra: .cfa -4 + ^ r7: .cfa -8 + ^ r5: .cfa -12 + ^ r4: .cfa -16 + ^
STACK CFI 2c0c .cfa: r7 8 +
STACK CFI INIT 2d74 118 .cfa: sp 0 + .ra: lr
STACK CFI 2d76 .cfa: sp 16 + .ra: .cfa -4 + ^ r7: .cfa -8 + ^ r5: .cfa -12 + ^ r4: .cfa -16 + ^
STACK CFI 2d78 .cfa: r7 8 +
STACK CFI INIT 2e8c c8 .cfa: sp 0 + .ra: lr
STACK CFI 2e8e .cfa: sp 16 + .ra: .cfa -4 + ^ r7: .cfa -8 + ^ r6: .cfa -12 + ^ r4: .cfa -16 + ^
STACK CFI 2e90 .cfa: r7 8 +
STACK CFI INIT 2f54 498 .cfa: sp 0 + .ra: lr
STACK CFI 2f56 .cfa: sp 20 + .ra: .cfa -4 + ^ r7: .cfa -8 + ^ r6: .cfa -12 + ^ r5: .cfa -16 + ^ r4: .cfa -20 + ^
STACK CFI 2f58 .cfa: r7 8 +
STACK CFI 2f5c r11: .cfa -24 + ^ r10: .cfa -28 + ^ r9: .cfa -32 + ^ r8: .cfa -36 + ^
STACK CFI INIT 33ec 130 .cfa: sp 0 + .ra: lr
STACK CFI 33ee .cfa: sp 16 + .ra: .cfa -4 + ^ r7: .cfa -8 + ^ r5: .cfa -12 + ^ r4: .cfa -16 + ^
STACK CFI 33f0 .cfa: r7 8 +
STACK CFI INIT 351c 110 .cfa: sp 0 + .ra: lr
STACK CFI 351e .cfa: sp 20 + .ra: .cfa -4 + ^ r7: .cfa -8 + ^ r6: .cfa -12 + ^ r5: .cfa -16 + ^ r4: .cfa -20 + ^
STACK CFI 3520 .cfa: r7 8 +
STACK CFI 3524 r11: .cfa -24 + ^ r9: .cfa -28 + ^ r8: .cfa -32 + ^
STACK CFI INIT 362c 610 .cfa: sp 0 + .ra: lr
STACK CFI 362e .cfa: sp 16 + .ra: .cfa -4 + ^ r7: .cfa -8 + ^ r5: .cfa -12 + ^ r4: .cfa -16 + ^
STACK CFI 3630 .cfa: r7 8 +
STACK CFI INIT 3c3c 11c .cfa: sp 0 + .ra: lr
STACK CFI 3c3e .cfa: sp 16 + .ra: .cfa -4 + ^ r7: .cfa -8 + ^ r5: .cfa -12 + ^ r4: .cfa -16 + ^
STACK CFI 3c40 .cfa: r7 8 +
STACK CFI INIT 3d58 d8 .cfa: sp 0 + .ra: lr
STACK CFI 3d5a .cfa: sp 16 + .ra: .cfa -4 + ^ r7: .cfa -8 + ^ r6: .cfa -12 + ^ r4: .cfa -16 + ^
STACK CFI 3d5c .cfa: r7 8 +
STACK CFI INIT 3e30 dc .cfa: sp 0 + .ra: lr
STACK CFI 3e32 .cfa: sp 16 + .ra: .cfa -4 + ^ r7: .cfa -8 + ^ r5: .cfa -12 + ^ r4: .cfa -16 + ^
STACK CFI 3e34 .cfa: r7 8 +
STACK CFI INIT 3f0c ec .cfa: sp 0 + .ra: lr
STACK CFI 3f0e .cfa: sp 20 + .ra: .cfa -4 + ^ r7: .cfa -8 + ^ r6: .cfa -12 + ^ r5: .cfa -16 + ^ r4: .cfa -20 + ^
STACK CFI 3f10 .cfa: r7 8 +
STACK CFI 3f14 r8: .cfa -24 + ^
STACK CFI INIT 3ff8 128 .cfa: sp 0 + .ra: lr
STACK CFI 3ffa .cfa: sp 16 + .ra: .cfa -4 + ^ r7: .cfa -8 + ^ r5: .cfa -12 + ^ r4: .cfa -16 + ^
STACK CFI 3ffc .cfa: r7 8 +
STACK CFI INIT 4120 e4 .cfa: sp 0 + .ra: lr
STACK CFI 4122 .cfa: sp 16 + .ra: .cfa -4 + ^ r7: .cfa -8 + ^ r6: .cfa -12 + ^ r4: .cfa -16 + ^
STACK CFI 4124 .cfa: r7 8 +
STACK CFI INIT 4204 100 .cfa: sp 0 + .ra: lr
STACK CFI 4206 .cfa: sp 20 + .ra: .cfa -4 + ^ r7: .cfa -8 + ^ r6: .cfa -12 + ^ r5: .cfa -16 + ^ r4: .cfa -20 + ^
STACK CFI 4208 .cfa: r7 8 +
STACK CFI 420c r11: .cfa -24 + ^ r9: .cfa -28 + ^ r8: .cfa -32 + ^
STACK CFI INIT 4304 f8 .cfa: sp 0 + .ra: lr
STACK CFI 4306 .cfa: sp 20 + .ra: .cfa -4 + ^ r7: .cfa -8 + ^ r6: .cfa -12 + ^ r5: .cfa -16 + ^ r4: .cfa -20 + ^
STACK CFI 4308 .cfa: r7 8 +
STACK CFI 430c r8: .cfa -24 + ^
STACK CFI INIT 43fc 778 .cfa: sp 0 + .ra: lr
STACK CFI 43fe .cfa: sp 20 + .ra: .cfa -4 + ^ r7: .cfa -8 + ^ r6: .cfa -12 + ^ r5: .cfa -16 + ^ r4: .cfa -20 + ^
STACK CFI 4400 .cfa: r7 8 +
STACK CFI 4404 r11: .cfa -24 + ^ r10: .cfa -28 + ^ r9: .cfa -32 + ^ r8: .cfa -36 + ^
STACK CFI INIT 4b74 13c .cfa: sp 0 + .ra: lr
STACK CFI 4b76 .cfa: sp 16 + .ra: .cfa -4 + ^ r7: .cfa -8 + ^ r5: .cfa -12 + ^ r4: .cfa -16 + ^
STACK CFI 4b78 .cfa: r7 8 +
STACK CFI INIT 4cb0 ec .cfa: sp 0 + .ra: lr
STACK CFI 4cb2 .cfa: sp 16 + .ra: .cfa -4 + ^ r7: .cfa -8 + ^ r5: .cfa -12 + ^ r4: .cfa -16 + ^
STACK CFI 4cb4 .cfa: r7 8 +
STACK CFI INIT 4d9c d8 .cfa: sp 0 + .ra: lr
STACK CFI 4d9e .cfa: sp 16 + .ra: .cfa -4 + ^ r7: .cfa -8 + ^ r6: .cfa -12 + ^ r4: .cfa -16 + ^
STACK CFI 4da0 .cfa: r7 8 +
STACK CFI INIT 4e74 118 .cfa: sp 0 + .ra: lr
STACK CFI 4e76 .cfa: sp 20 + .ra: .cfa -4 + ^ r7: .cfa -8 + ^ r6: .cfa -12 + ^ r5: .cfa -16 + ^ r4: .cfa -20 + ^
STACK CFI 4e78 .cfa: r7 8 +
STACK CFI 4e7c r10: .cfa -24 + ^ r9: .cfa -28 + ^ r8: .cfa -32 + ^
STACK CFI INIT 4f8c 874 .cfa: sp 0 + .ra: lr
STACK CFI 4f8e .cfa: sp 20 + .ra: .cfa -4 + ^ r7: .cfa -8 + ^ r6: .cfa -12 + ^ r5: .cfa -16 + ^ r4: .cfa -20 + ^
STACK CFI 4f90 .cfa: r7 8 +
STACK CFI 4f94 r11: .cfa -24 + ^ r10: .cfa -28 + ^ r9: .cfa -32 + ^ r8: .cfa -36 + ^
STACK CFI INIT 5800 1fc .cfa: sp 0 + .ra: lr
STACK CFI 5802 .cfa: sp 20 + .ra: .cfa -4 + ^ r7: .cfa -8 + ^ r6: .cfa -12 + ^ r5: .cfa -16 + ^ r4: .cfa -20 + ^
STACK CFI 5804 .cfa: r7 8 +
STACK CFI 5808 r11: .cfa -24 + ^ r10: .cfa -28 + ^ r9: .cfa -32 + ^ r8: .cfa -36 + ^
STACK CFI INIT 5a00 b88 .cfa: sp 0 + .ra: lr
STACK CFI 5a02 .cfa: sp 20 + .ra: .cfa -4 + ^ r7: .cfa -8 + ^ r6: .cfa -12 + ^ r5: .cfa -16 + ^ r4: .cfa -20 + ^
STACK CFI 5a04 .cfa: r7 8 +
STACK CFI 5a08 r11: .cfa -24 + ^ r10: .cfa -28 + ^ r9: .cfa -32 + ^ r8: .cfa -36 + ^
STACK CFI INIT 6588 e8 .cfa: sp 0 + .ra: lr
STACK CFI 658a .cfa: sp 16 + .ra: .cfa -4 + ^ r7: .cfa -8 + ^ r5: .cfa -12 + ^ r4: .cfa -16 + ^
STACK CFI 658c .cfa: r7 8 +
STACK CFI INIT 6670 688 .cfa: sp 0 + .ra: lr
STACK CFI 6672 .cfa: sp 20 + .ra: .cfa -4 + ^ r7: .cfa -8 + ^ r6: .cfa -12 + ^ r5: .cfa -16 + ^ r4: .cfa -20 + ^
STACK CFI 6674 .cfa: r7 8 +
STACK CFI 6678 r11: .cfa -24 + ^ r10: .cfa -28 + ^ r9: .cfa -32 + ^ r8: .cfa -36 + ^
STACK CFI INIT 6cf8 13c .cfa: sp 0 + .ra: lr
STACK CFI 6cfa .cfa: sp 16 + .ra: .cfa -4 + ^ r7: .cfa -8 + ^ r6: .cfa -12 + ^ r4: .cfa -16 + ^
STACK CFI 6cfc .cfa: r7 8 +
STACK CFI INIT 6e34 ec .cfa: sp 0 + .ra: lr
STACK CFI 6e36 .cfa: sp 16 + .ra: .cfa -4 + ^ r7: .cfa -8 + ^ r5: .cfa -12 + ^ r4: .cfa -16 + ^
STACK CFI 6e38 .cfa: r7 8 +
STACK CFI INIT 6f20 118 .cfa: sp 0 + .ra: lr
STACK CFI 6f22 .cfa: sp 20 + .ra: .cfa -4 + ^ r7: .cfa -8 + ^ r6: .cfa -12 + ^ r5: .cfa -16 + ^ r4: .cfa -20 + ^
STACK CFI 6f24 .cfa: r7 8 +
STACK CFI 6f28 r10: .cfa -24 + ^ r9: .cfa -28 + ^ r8: .cfa -32 + ^
STACK CFI INIT 7038 11dc .cfa: sp 0 + .ra: lr
STACK CFI 703a .cfa: sp 20 + .ra: .cfa -4 + ^ r7: .cfa -8 + ^ r6: .cfa -12 + ^ r5: .cfa -16 + ^ r4: .cfa -20 + ^
STACK CFI 703c .cfa: r7 8 +
STACK CFI 7040 r11: .cfa -24 + ^ r10: .cfa -28 + ^ r9: .cfa -32 + ^ r8: .cfa -36 + ^
STACK CFI INIT 8214 1238 .cfa: sp 0 + .ra: lr
STACK CFI 8216 .cfa: sp 20 + .ra: .cfa -4 + ^ r7: .cfa -8 + ^ r6: .cfa -12 + ^ r5: .cfa -16 + ^ r4: .cfa -20 + ^
STACK CFI 8218 .cfa: r7 8 +
STACK CFI 821c r11: .cfa -24 + ^ r10: .cfa -28 + ^ r9: .cfa -32 + ^ r8: .cfa -36 + ^
STACK CFI INIT 944c 130 .cfa: sp 0 + .ra: lr
STACK CFI 944e .cfa: sp 16 + .ra: .cfa -4 + ^ r7: .cfa -8 + ^ r5: .cfa -12 + ^ r4: .cfa -16 + ^
STACK CFI 9450 .cfa: r7 8 +
STACK CFI INIT 957c 168 .cfa: sp 0 + .ra: lr
STACK CFI 957e .cfa: sp 20 + .ra: .cfa -4 + ^ r7: .cfa -8 + ^ r6: .cfa -12 + ^ r5: .cfa -16 + ^ r4: .cfa -20 + ^
STACK CFI 9580 .cfa: r7 8 +
STACK CFI 9584 r11: .cfa -24 + ^ r9: .cfa -28 + ^ r8: .cfa -32 + ^
STACK CFI INIT 96e4 134 .cfa: sp 0 + .ra: lr
STACK CFI 96e6 .cfa: sp 16 + .ra: .cfa -4 + ^ r7: .cfa -8 + ^ r5: .cfa -12 + ^ r4: .cfa -16 + ^
STACK CFI 96e8 .cfa: r7 8 +
STACK CFI INIT 9818 1ac .cfa: sp 0 + .ra: lr
STACK CFI 981a .cfa: sp 20 + .ra: .cfa -4 + ^ r7: .cfa -8 + ^ r6: .cfa -12 + ^ r5: .cfa -16 + ^ r4: .cfa -20 + ^
STACK CFI 981c .cfa: r7 8 +
STACK CFI 9820 r11: .cfa -24 + ^ r10: .cfa -28 + ^ r9: .cfa -32 + ^ r8: .cfa -36 + ^
STACK CFI INIT 99c4 d0 .cfa: sp 0 + .ra: lr
STACK CFI 99c6 .cfa: sp 16 + .ra: .cfa -4 + ^ r7: .cfa -8 + ^ r6: .cfa -12 + ^ r4: .cfa -16 + ^
STACK CFI 99c8 .cfa: r7 8 +
STACK CFI INIT 9a94 32c .cfa: sp 0 + .ra: lr
STACK CFI 9a96 .cfa: sp 16 + .ra: .cfa -4 + ^ r7: .cfa -8 + ^ r5: .cfa -12 + ^ r4: .cfa -16 + ^
STACK CFI 9a98 .cfa: r7 8 +
STACK CFI INIT 0 11c .cfa: sp 0 + .ra: lr
STACK CFI 2 .cfa: sp 16 + .ra: .cfa -4 + ^ r7: .cfa -8 + ^ r5: .cfa -12 + ^ r4: .cfa -16 + ^
STACK CFI 4 .cfa: r7 8 +
STACK CFI INIT 9dc0 148 .cfa: sp 0 + .ra: lr
STACK CFI 9dc2 .cfa: sp 16 + .ra: .cfa -4 + ^ r7: .cfa -8 + ^ r5: .cfa -12 + ^ r4: .cfa -16 + ^
STACK CFI 9dc4 .cfa: r7 8 +
STACK CFI INIT 0 f8 .cfa: sp 0 + .ra: lr
STACK CFI 2 .cfa: sp 20 + .ra: .cfa -4 + ^ r7: .cfa -8 + ^ r6: .cfa -12 + ^ r5: .cfa -16 + ^ r4: .cfa -20 + ^
STACK CFI 4 .cfa: r7 8 +
STACK CFI 8 r8: .cfa -24 + ^
STACK CFI INIT 9f08 1b0 .cfa: sp 0 + .ra: lr
STACK CFI 9f0a .cfa: sp 20 + .ra: .cfa -4 + ^ r7: .cfa -8 + ^ r6: .cfa -12 + ^ r5: .cfa -16 + ^ r4: .cfa -20 + ^
STACK CFI 9f0c .cfa: r7 8 +
STACK CFI 9f10 r11: .cfa -24 + ^ r10: .cfa -28 + ^ r9: .cfa -32 + ^ r8: .cfa -36 + ^
STACK CFI INIT a0b8 d4 .cfa: sp 0 + .ra: lr
STACK CFI a0ba .cfa: sp 16 + .ra: .cfa -4 + ^ r7: .cfa -8 + ^ r6: .cfa -12 + ^ r4: .cfa -16 + ^
STACK CFI a0bc .cfa: r7 8 +
STACK CFI INIT a18c d0 .cfa: sp 0 + .ra: lr
STACK CFI a18e .cfa: sp 16 + .ra: .cfa -4 + ^ r7: .cfa -8 + ^ r6: .cfa -12 + ^ r4: .cfa -16 + ^
STACK CFI a190 .cfa: r7 8 +
STACK CFI INIT 0 c8 .cfa: sp 0 + .ra: lr
STACK CFI 2 .cfa: sp 16 + .ra: .cfa -4 + ^ r7: .cfa -8 + ^ r6: .cfa -12 + ^ r4: .cfa -16 + ^
STACK CFI 4 .cfa: r7 8 +
STACK CFI INIT 0 d4 .cfa: sp 0 + .ra: lr
STACK CFI 2 .cfa: sp 16 + .ra: .cfa -4 + ^ r7: .cfa -8 + ^ r6: .cfa -12 + ^ r4: .cfa -16 + ^
STACK CFI 4 .cfa: r7 8 +
STACK CFI INIT 0 d0 .cfa: sp 0 + .ra: lr
STACK CFI 2 .cfa: sp 16 + .ra: .cfa -4 + ^ r7: .cfa -8 + ^ r6: .cfa -12 + ^ r4: .cfa -16 + ^
STACK CFI 4 .cfa: r7 8 +
STACK CFI INIT a25c d4 .cfa: sp 0 + .ra: lr
STACK CFI a25e .cfa: sp 16 + .ra: .cfa -4 + ^ r7: .cfa -8 + ^ r6: .cfa -12 + ^ r4: .cfa -16 + ^
STACK CFI a260 .cfa: r7 8 +
STACK CFI INIT 0 d0 .cfa: sp 0 + .ra: lr
STACK CFI 2 .cfa: sp 16 + .ra: .cfa -4 + ^ r7: .cfa -8 + ^ r6: .cfa -12 + ^ r4: .cfa -16 + ^
STACK CFI 4 .cfa: r7 8 +
STACK CFI INIT a330 b0 .cfa: sp 0 + .ra: lr
STACK CFI a3b8 .cfa: sp 16 + .ra: .cfa -4 + ^ r7: .cfa -8 + ^ r6: .cfa -12 + ^ r4: .cfa -16 + ^
STACK CFI a3ba .cfa: r7 8 +
STACK CFI INIT a3e0 104 .cfa: sp 0 + .ra: lr
STACK CFI a3e2 .cfa: sp 20 + .ra: .cfa -4 + ^ r7: .cfa -8 + ^ r6: .cfa -12 + ^ r5: .cfa -16 + ^ r4: .cfa -20 + ^
STACK CFI a3e4 .cfa: r7 8 +
STACK CFI a3e8 r11: .cfa -24 + ^ r9: .cfa -28 + ^ r8: .cfa -32 + ^
STACK CFI INIT a4e4 ac .cfa: sp 0 + .ra: lr
STACK CFI a4e6 .cfa: sp 16 + .ra: .cfa -4 + ^ r7: .cfa -8 + ^ r5: .cfa -12 + ^ r4: .cfa -16 + ^
STACK CFI a4e8 .cfa: r7 8 +
STACK CFI INIT a590 1c4 .cfa: sp 0 + .ra: lr
STACK CFI a592 .cfa: sp 20 + .ra: .cfa -4 + ^ r7: .cfa -8 + ^ r6: .cfa -12 + ^ r5: .cfa -16 + ^ r4: .cfa -20 + ^
STACK CFI a594 .cfa: r7 8 +
STACK CFI a598 r8: .cfa -24 + ^
STACK CFI INIT a754 bc .cfa: sp 0 + .ra: lr
STACK CFI a756 .cfa: sp 16 + .ra: .cfa -4 + ^ r7: .cfa -8 + ^ r6: .cfa -12 + ^ r4: .cfa -16 + ^
STACK CFI a758 .cfa: r7 8 +
STACK CFI INIT a810 c0 .cfa: sp 0 + .ra: lr
STACK CFI a8aa .cfa: sp 16 + .ra: .cfa -4 + ^ r7: .cfa -8 + ^ r6: .cfa -12 + ^ r4: .cfa -16 + ^
STACK CFI a8ac .cfa: r7 8 +
STACK CFI INIT a8d0 12c .cfa: sp 0 + .ra: lr
STACK CFI a8d2 .cfa: sp 20 + .ra: .cfa -4 + ^ r7: .cfa -8 + ^ r6: .cfa -12 + ^ r5: .cfa -16 + ^ r4: .cfa -20 + ^
STACK CFI a8d4 .cfa: r7 8 +
STACK CFI a8d8 r10: .cfa -24 + ^ r9: .cfa -28 + ^ r8: .cfa -32 + ^
STACK CFI INIT a9fc bc .cfa: sp 0 + .ra: lr
STACK CFI a9fe .cfa: sp 16 + .ra: .cfa -4 + ^ r7: .cfa -8 + ^ r5: .cfa -12 + ^ r4: .cfa -16 + ^
STACK CFI aa00 .cfa: r7 8 +
STACK CFI INIT aab8 1f8 .cfa: sp 0 + .ra: lr
STACK CFI aaba .cfa: sp 20 + .ra: .cfa -4 + ^ r7: .cfa -8 + ^ r6: .cfa -12 + ^ r5: .cfa -16 + ^ r4: .cfa -20 + ^
STACK CFI aabc .cfa: r7 8 +
STACK CFI aac0 r11: .cfa -24 + ^ r9: .cfa -28 + ^ r8: .cfa -32 + ^
STACK CFI INIT acb0 c4 .cfa: sp 0 + .ra: lr
STACK CFI acb2 .cfa: sp 16 + .ra: .cfa -4 + ^ r7: .cfa -8 + ^ r6: .cfa -12 + ^ r4: .cfa -16 + ^
STACK CFI acb4 .cfa: r7 8 +
STACK CFI INIT ad74 c0 .cfa: sp 0 + .ra: lr
STACK CFI ae0c .cfa: sp 16 + .ra: .cfa -4 + ^ r7: .cfa -8 + ^ r6: .cfa -12 + ^ r4: .cfa -16 + ^
STACK CFI ae0e .cfa: r7 8 +
STACK CFI INIT ae34 12c .cfa: sp 0 + .ra: lr
STACK CFI ae36 .cfa: sp 20 + .ra: .cfa -4 + ^ r7: .cfa -8 + ^ r6: .cfa -12 + ^ r5: .cfa -16 + ^ r4: .cfa -20 + ^
STACK CFI ae38 .cfa: r7 8 +
STACK CFI ae3c r10: .cfa -24 + ^ r9: .cfa -28 + ^ r8: .cfa -32 + ^
STACK CFI INIT af60 b8 .cfa: sp 0 + .ra: lr
STACK CFI af62 .cfa: sp 16 + .ra: .cfa -4 + ^ r7: .cfa -8 + ^ r5: .cfa -12 + ^ r4: .cfa -16 + ^
STACK CFI af64 .cfa: r7 8 +
STACK CFI INIT b018 28c .cfa: sp 0 + .ra: lr
STACK CFI b01a .cfa: sp 20 + .ra: .cfa -4 + ^ r7: .cfa -8 + ^ r6: .cfa -12 + ^ r5: .cfa -16 + ^ r4: .cfa -20 + ^
STACK CFI b01c .cfa: r7 8 +
STACK CFI b020 r11: .cfa -24 + ^ r10: .cfa -28 + ^ r9: .cfa -32 + ^ r8: .cfa -36 + ^
STACK CFI INIT b2a4 160 .cfa: sp 0 + .ra: lr
STACK CFI b2a6 .cfa: sp 16 + .ra: .cfa -4 + ^ r7: .cfa -8 + ^ r6: .cfa -12 + ^ r4: .cfa -16 + ^
STACK CFI b2a8 .cfa: r7 8 +
STACK CFI INIT b404 c0 .cfa: sp 0 + .ra: lr
STACK CFI b49c .cfa: sp 16 + .ra: .cfa -4 + ^ r7: .cfa -8 + ^ r6: .cfa -12 + ^ r4: .cfa -16 + ^
STACK CFI b49e .cfa: r7 8 +
STACK CFI INIT b4c4 184 .cfa: sp 0 + .ra: lr
STACK CFI b4c6 .cfa: sp 20 + .ra: .cfa -4 + ^ r7: .cfa -8 + ^ r6: .cfa -12 + ^ r5: .cfa -16 + ^ r4: .cfa -20 + ^
STACK CFI b4c8 .cfa: r7 8 +
STACK CFI b4cc r11: .cfa -24 + ^ r10: .cfa -28 + ^ r9: .cfa -32 + ^ r8: .cfa -36 + ^
STACK CFI INIT b648 104 .cfa: sp 0 + .ra: lr
STACK CFI b64a .cfa: sp 20 + .ra: .cfa -4 + ^ r7: .cfa -8 + ^ r6: .cfa -12 + ^ r5: .cfa -16 + ^ r4: .cfa -20 + ^
STACK CFI b64c .cfa: r7 8 +
STACK CFI b650 r10: .cfa -24 + ^ r9: .cfa -28 + ^ r8: .cfa -32 + ^
STACK CFI INIT b74c c0 .cfa: sp 0 + .ra: lr
STACK CFI b7e6 .cfa: sp 16 + .ra: .cfa -4 + ^ r7: .cfa -8 + ^ r6: .cfa -12 + ^ r4: .cfa -16 + ^
STACK CFI b7e8 .cfa: r7 8 +
STACK CFI INIT b80c 184 .cfa: sp 0 + .ra: lr
STACK CFI b80e .cfa: sp 20 + .ra: .cfa -4 + ^ r7: .cfa -8 + ^ r6: .cfa -12 + ^ r5: .cfa -16 + ^ r4: .cfa -20 + ^
STACK CFI b810 .cfa: r7 8 +
STACK CFI b814 r11: .cfa -24 + ^ r10: .cfa -28 + ^ r9: .cfa -32 + ^ r8: .cfa -36 + ^
STACK CFI INIT b990 104 .cfa: sp 0 + .ra: lr
STACK CFI b992 .cfa: sp 20 + .ra: .cfa -4 + ^ r7: .cfa -8 + ^ r6: .cfa -12 + ^ r5: .cfa -16 + ^ r4: .cfa -20 + ^
STACK CFI b994 .cfa: r7 8 +
STACK CFI b998 r10: .cfa -24 + ^ r9: .cfa -28 + ^ r8: .cfa -32 + ^
STACK CFI INIT ba94 2c8 .cfa: sp 0 + .ra: lr
STACK CFI ba96 .cfa: sp 20 + .ra: .cfa -4 + ^ r7: .cfa -8 + ^ r6: .cfa -12 + ^ r5: .cfa -16 + ^ r4: .cfa -20 + ^
STACK CFI ba98 .cfa: r7 8 +
STACK CFI ba9c r11: .cfa -24 + ^ r10: .cfa -28 + ^ r9: .cfa -32 + ^ r8: .cfa -36 + ^
STACK CFI INIT bd5c 2c8 .cfa: sp 0 + .ra: lr
STACK CFI bd5e .cfa: sp 20 + .ra: .cfa -4 + ^ r7: .cfa -8 + ^ r6: .cfa -12 + ^ r5: .cfa -16 + ^ r4: .cfa -20 + ^
STACK CFI bd60 .cfa: r7 8 +
STACK CFI bd64 r11: .cfa -24 + ^ r10: .cfa -28 + ^ r9: .cfa -32 + ^ r8: .cfa -36 + ^
STACK CFI INIT c024 2c8 .cfa: sp 0 + .ra: lr
STACK CFI c026 .cfa: sp 20 + .ra: .cfa -4 + ^ r7: .cfa -8 + ^ r6: .cfa -12 + ^ r5: .cfa -16 + ^ r4: .cfa -20 + ^
STACK CFI c028 .cfa: r7 8 +
STACK CFI c02c r11: .cfa -24 + ^ r10: .cfa -28 + ^ r9: .cfa -32 + ^ r8: .cfa -36 + ^
STACK CFI INIT c2ec 150 .cfa: sp 0 + .ra: lr
STACK CFI c2ee .cfa: sp 16 + .ra: .cfa -4 + ^ r7: .cfa -8 + ^ r5: .cfa -12 + ^ r4: .cfa -16 + ^
STACK CFI c2f0 .cfa: r7 8 +
STACK CFI INIT c43c 168 .cfa: sp 0 + .ra: lr
STACK CFI c43e .cfa: sp 20 + .ra: .cfa -4 + ^ r7: .cfa -8 + ^ r6: .cfa -12 + ^ r5: .cfa -16 + ^ r4: .cfa -20 + ^
STACK CFI c440 .cfa: r7 8 +
STACK CFI c444 r10: .cfa -24 + ^ r9: .cfa -28 + ^ r8: .cfa -32 + ^
STACK CFI INIT c5a4 c0 .cfa: sp 0 + .ra: lr
STACK CFI c63e .cfa: sp 16 + .ra: .cfa -4 + ^ r7: .cfa -8 + ^ r6: .cfa -12 + ^ r4: .cfa -16 + ^
STACK CFI c640 .cfa: r7 8 +
STACK CFI INIT 0 12c .cfa: sp 0 + .ra: lr
STACK CFI 2 .cfa: sp 20 + .ra: .cfa -4 + ^ r7: .cfa -8 + ^ r6: .cfa -12 + ^ r5: .cfa -16 + ^ r4: .cfa -20 + ^
STACK CFI 4 .cfa: r7 8 +
STACK CFI 8 r10: .cfa -24 + ^ r9: .cfa -28 + ^ r8: .cfa -32 + ^
STACK CFI INIT 0 bc .cfa: sp 0 + .ra: lr
STACK CFI 2 .cfa: sp 16 + .ra: .cfa -4 + ^ r7: .cfa -8 + ^ r5: .cfa -12 + ^ r4: .cfa -16 + ^
STACK CFI 4 .cfa: r7 8 +
STACK CFI INIT c664 2d8 .cfa: sp 0 + .ra: lr
STACK CFI c666 .cfa: sp 20 + .ra: .cfa -4 + ^ r7: .cfa -8 + ^ r6: .cfa -12 + ^ r5: .cfa -16 + ^ r4: .cfa -20 + ^
STACK CFI c668 .cfa: r7 8 +
STACK CFI c66c r11: .cfa -24 + ^ r10: .cfa -28 + ^ r9: .cfa -32 + ^ r8: .cfa -36 + ^
STACK CFI INIT c93c 2d8 .cfa: sp 0 + .ra: lr
STACK CFI c93e .cfa: sp 20 + .ra: .cfa -4 + ^ r7: .cfa -8 + ^ r6: .cfa -12 + ^ r5: .cfa -16 + ^ r4: .cfa -20 + ^
STACK CFI c940 .cfa: r7 8 +
STACK CFI c944 r11: .cfa -24 + ^ r10: .cfa -28 + ^ r9: .cfa -32 + ^ r8: .cfa -36 + ^
STACK CFI INIT 0 c0 .cfa: sp 0 + .ra: lr
STACK CFI 98 .cfa: sp 16 + .ra: .cfa -4 + ^ r7: .cfa -8 + ^ r6: .cfa -12 + ^ r4: .cfa -16 + ^
STACK CFI 9a .cfa: r7 8 +
STACK CFI INIT 0 184 .cfa: sp 0 + .ra: lr
STACK CFI 2 .cfa: sp 20 + .ra: .cfa -4 + ^ r7: .cfa -8 + ^ r6: .cfa -12 + ^ r5: .cfa -16 + ^ r4: .cfa -20 + ^
STACK CFI 4 .cfa: r7 8 +
STACK CFI 8 r11: .cfa -24 + ^ r10: .cfa -28 + ^ r9: .cfa -32 + ^ r8: .cfa -36 + ^
STACK CFI INIT 0 104 .cfa: sp 0 + .ra: lr
STACK CFI 2 .cfa: sp 20 + .ra: .cfa -4 + ^ r7: .cfa -8 + ^ r6: .cfa -12 + ^ r5: .cfa -16 + ^ r4: .cfa -20 + ^
STACK CFI 4 .cfa: r7 8 +
STACK CFI 8 r10: .cfa -24 + ^ r9: .cfa -28 + ^ r8: .cfa -32 + ^
STACK CFI INIT cc14 214 .cfa: sp 0 + .ra: lr
STACK CFI cc16 .cfa: sp 20 + .ra: .cfa -4 + ^ r7: .cfa -8 + ^ r6: .cfa -12 + ^ r5: .cfa -16 + ^ r4: .cfa -20 + ^
STACK CFI cc18 .cfa: r7 8 +
STACK CFI cc1c r11: .cfa -24 + ^ r9: .cfa -28 + ^ r8: .cfa -32 + ^
STACK CFI INIT 0 ec .cfa: sp 0 + .ra: lr
STACK CFI 2 .cfa: sp 20 + .ra: .cfa -4 + ^ r7: .cfa -8 + ^ r6: .cfa -12 + ^ r5: .cfa -16 + ^ r4: .cfa -20 + ^
STACK CFI 4 .cfa: r7 8 +
STACK CFI 8 r8: .cfa -24 + ^
