MODULE Linux arm BFF9C650BEBA6E8EEA75BF853337AD720 TestFunctionRef
INFO CODE_ID 50C6F9BFBABE8E6EEA75BF853337AD727E4E2C92
INFO GENERATOR mozilla/dump_syms 2.3.6
PUBLIC 54c 0 _start
PUBLIC 55c 0 _start_main
PUBLIC 5c8 0 __atexit_handler_wrapper
PUBLIC 5e0 0 atexit
PUBLIC 60c 0 pthread_atfork
PUBLIC 628 0 call_fini_array
FUNC 66c c 0 addConstRefs(int const&, int const&)
FUNC 678 c 0 incrementPointer(int*)
FUNC 684 8 0 increment(int)
FUNC 68c c 0 incrementUnique(std::__ndk1::unique_ptr<int, std::__ndk1::default_delete<int> >)
FUNC 698 14 0 helloWorld()
FUNC 6ac 48 0 main
FUNC 6f4 3c 0 MOZ_ReportAssertionFailure(char const*, char const*, int)
PUBLIC 730 0 <.plt ELF section in TestFunctionRef>
STACK CFI INIT 66c c .cfa: sp 0 + .ra: lr
STACK CFI 66e .cfa: sp 8 + .ra: .cfa -4 + ^ r7: .cfa -8 + ^
STACK CFI 670 .cfa: r7 8 +
STACK CFI INIT 678 c .cfa: sp 0 + .ra: lr
STACK CFI 67a .cfa: sp 8 + .ra: .cfa -4 + ^ r7: .cfa -8 + ^
STACK CFI 67c .cfa: r7 8 +
STACK CFI INIT 684 8 .cfa: sp 0 + .ra: lr
STACK CFI 686 .cfa: sp 8 + .ra: .cfa -4 + ^ r7: .cfa -8 + ^
STACK CFI 688 .cfa: r7 8 +
STACK CFI INIT 68c c .cfa: sp 0 + .ra: lr
STACK CFI 68e .cfa: sp 8 + .ra: .cfa -4 + ^ r7: .cfa -8 + ^
STACK CFI 690 .cfa: r7 8 +
STACK CFI INIT 698 14 .cfa: sp 0 + .ra: lr
STACK CFI 69a .cfa: sp 8 + .ra: .cfa -4 + ^ r7: .cfa -8 + ^
STACK CFI 69c .cfa: r7 8 +
STACK CFI INIT 6ac 48 .cfa: sp 0 + .ra: lr
STACK CFI 6ae .cfa: sp 16 + .ra: .cfa -4 + ^ r7: .cfa -8 + ^ r6: .cfa -12 + ^ r4: .cfa -16 + ^
STACK CFI 6b0 .cfa: r7 8 +
STACK CFI INIT 6f4 3c .cfa: sp 0 + .ra: lr
STACK CFI 6f6 .cfa: sp 20 + .ra: .cfa -4 + ^ r7: .cfa -8 + ^ r6: .cfa -12 + ^ r5: .cfa -16 + ^ r4: .cfa -20 + ^
STACK CFI 6f8 .cfa: r7 8 +
STACK CFI 6fc r11: .cfa -24 + ^
