MODULE Linux arm 5A1EDB46A07569BD6BB08B19A109F7BE0 TestDoublyLinkedList
INFO CODE_ID 46DB1E5A75A0BD696BB08B19A109F7BE7CF2EB48
INFO GENERATOR mozilla/dump_syms 2.3.6
PUBLIC bb8 0 _start
PUBLIC bc8 0 _start_main
PUBLIC c34 0 __atexit_handler_wrapper
PUBLIC c4c 0 atexit
PUBLIC c78 0 pthread_atfork
PUBLIC c94 0 call_fini_array
FUNC cd8 1148 0 main
FUNC 1e20 3c 0 MOZ_ReportAssertionFailure(char const*, char const*, int)
FUNC 1e5c c4 0 mozilla::DoublyLinkedList<SomeClass, mozilla::GetDoublyLinkedListElement<SomeClass> >::pushFront(SomeClass*)
FUNC 1f20 d0 0 mozilla::DoublyLinkedList<SomeClass, mozilla::GetDoublyLinkedListElement<SomeClass> >::pushBack(SomeClass*)
FUNC 1ff0 e8 0 mozilla::DoublyLinkedList<SomeClass, mozilla::GetDoublyLinkedListElement<SomeClass> >::remove(SomeClass*)
FUNC 20d8 f0 0 mozilla::DoublyLinkedList<SomeClass, mozilla::GetDoublyLinkedListElement<SomeClass> >::insertBefore(mozilla::DoublyLinkedList<SomeClass, mozilla::GetDoublyLinkedListElement<SomeClass> >::Iterator const&, SomeClass*)
FUNC 21c8 d0 0 mozilla::DoublyLinkedList<InTwoLists, mozilla::GetDoublyLinkedListElement<InTwoLists> >::pushBack(InTwoLists*)
FUNC 2298 b0 0 mozilla::DoublyLinkedList<InTwoLists, mozilla::GetDoublyLinkedListElement<InTwoLists> >::popBack()
FUNC 2348 b0 0 mozilla::DoublyLinkedList<InTwoLists, InTwoLists::GetListOneTrait>::popBack()
FUNC 23f8 80 0 mozilla::SafeDoublyLinkedList<SomeClass, mozilla::GetDoublyLinkedListElement<SomeClass> >::remove(SomeClass*)
FUNC 2478 a8 0 mozilla::DoublyLinkedList<SomeClass, mozilla::GetDoublyLinkedListElement<SomeClass> >::popFront()
PUBLIC 2520 0 <.plt ELF section in TestDoublyLinkedList>
STACK CFI INIT cd8 1148 .cfa: sp 0 + .ra: lr
STACK CFI cda .cfa: sp 20 + .ra: .cfa -4 + ^ r7: .cfa -8 + ^ r6: .cfa -12 + ^ r5: .cfa -16 + ^ r4: .cfa -20 + ^
STACK CFI cdc .cfa: r7 8 +
STACK CFI ce0 r11: .cfa -24 + ^ r10: .cfa -28 + ^ r9: .cfa -32 + ^ r8: .cfa -36 + ^
STACK CFI INIT 1e20 3c .cfa: sp 0 + .ra: lr
STACK CFI 1e22 .cfa: sp 20 + .ra: .cfa -4 + ^ r7: .cfa -8 + ^ r6: .cfa -12 + ^ r5: .cfa -16 + ^ r4: .cfa -20 + ^
STACK CFI 1e24 .cfa: r7 8 +
STACK CFI 1e28 r11: .cfa -24 + ^
STACK CFI INIT 1e5c c4 .cfa: sp 0 + .ra: lr
STACK CFI 1e5e .cfa: sp 16 + .ra: .cfa -4 + ^ r7: .cfa -8 + ^ r6: .cfa -12 + ^ r4: .cfa -16 + ^
STACK CFI 1e60 .cfa: r7 8 +
STACK CFI INIT 1f20 d0 .cfa: sp 0 + .ra: lr
STACK CFI 1f22 .cfa: sp 16 + .ra: .cfa -4 + ^ r7: .cfa -8 + ^ r6: .cfa -12 + ^ r4: .cfa -16 + ^
STACK CFI 1f24 .cfa: r7 8 +
STACK CFI INIT 1ff0 e8 .cfa: sp 0 + .ra: lr
STACK CFI 1ff2 .cfa: sp 16 + .ra: .cfa -4 + ^ r7: .cfa -8 + ^ r6: .cfa -12 + ^ r4: .cfa -16 + ^
STACK CFI 1ff4 .cfa: r7 8 +
STACK CFI INIT 20d8 f0 .cfa: sp 0 + .ra: lr
STACK CFI 20da .cfa: sp 16 + .ra: .cfa -4 + ^ r7: .cfa -8 + ^ r6: .cfa -12 + ^ r4: .cfa -16 + ^
STACK CFI 20dc .cfa: r7 8 +
STACK CFI INIT 0 d0 .cfa: sp 0 + .ra: lr
STACK CFI 2 .cfa: sp 16 + .ra: .cfa -4 + ^ r7: .cfa -8 + ^ r6: .cfa -12 + ^ r4: .cfa -16 + ^
STACK CFI 4 .cfa: r7 8 +
STACK CFI INIT 21c8 d0 .cfa: sp 0 + .ra: lr
STACK CFI 21ca .cfa: sp 16 + .ra: .cfa -4 + ^ r7: .cfa -8 + ^ r6: .cfa -12 + ^ r4: .cfa -16 + ^
STACK CFI 21cc .cfa: r7 8 +
STACK CFI INIT 2298 b0 .cfa: sp 0 + .ra: lr
STACK CFI 229a .cfa: sp 16 + .ra: .cfa -4 + ^ r7: .cfa -8 + ^ r6: .cfa -12 + ^ r4: .cfa -16 + ^
STACK CFI 229c .cfa: r7 8 +
STACK CFI INIT 2348 b0 .cfa: sp 0 + .ra: lr
STACK CFI 234a .cfa: sp 16 + .ra: .cfa -4 + ^ r7: .cfa -8 + ^ r6: .cfa -12 + ^ r4: .cfa -16 + ^
STACK CFI 234c .cfa: r7 8 +
STACK CFI INIT 23f8 80 .cfa: sp 0 + .ra: lr
STACK CFI 23fa .cfa: sp 16 + .ra: .cfa -4 + ^ r7: .cfa -8 + ^ r6: .cfa -12 + ^ r4: .cfa -16 + ^
STACK CFI 23fc .cfa: r7 8 +
STACK CFI INIT 0 b0 .cfa: sp 0 + .ra: lr
STACK CFI 2 .cfa: sp 16 + .ra: .cfa -4 + ^ r7: .cfa -8 + ^ r6: .cfa -12 + ^ r4: .cfa -16 + ^
STACK CFI 4 .cfa: r7 8 +
STACK CFI INIT 2478 a8 .cfa: sp 0 + .ra: lr
STACK CFI 247a .cfa: sp 16 + .ra: .cfa -4 + ^ r7: .cfa -8 + ^ r6: .cfa -12 + ^ r4: .cfa -16 + ^
STACK CFI 247c .cfa: r7 8 +
