MODULE Linux arm 8E5E7167FA1FAD4DA1687E85A52A12FF0 TestXorShift128PlusRNG
INFO CODE_ID 67715E8E1FFA4DADA1687E85A52A12FFABA04EC5
INFO GENERATOR mozilla/dump_syms 2.3.6
PUBLIC 7e8 0 _start
PUBLIC 7f8 0 _start_main
PUBLIC 864 0 __atexit_handler_wrapper
PUBLIC 87c 0 atexit
PUBLIC 8a8 0 pthread_atfork
PUBLIC 8c4 0 call_fini_array
FUNC 908 310 0 main
FUNC c18 3c 0 MOZ_ReportAssertionFailure(char const*, char const*, int)
PUBLIC m c58 0 __aeabi_ul2d
PUBLIC m c90 0 __aeabi_memset
PUBLIC m ca0 0 __aeabi_memclr8
PUBLIC cb0 0 <.plt ELF section in TestXorShift128PlusRNG>
STACK CFI INIT 908 310 .cfa: sp 0 + .ra: lr
STACK CFI 90a .cfa: sp 20 + .ra: .cfa -4 + ^ r7: .cfa -8 + ^ r6: .cfa -12 + ^ r5: .cfa -16 + ^ r4: .cfa -20 + ^
STACK CFI 90c .cfa: r7 8 +
STACK CFI 910 r10: .cfa -24 + ^ r9: .cfa -28 + ^ r8: .cfa -32 + ^
STACK CFI INIT c18 3c .cfa: sp 0 + .ra: lr
STACK CFI c1a .cfa: sp 20 + .ra: .cfa -4 + ^ r7: .cfa -8 + ^ r6: .cfa -12 + ^ r5: .cfa -16 + ^ r4: .cfa -20 + ^
STACK CFI c1c .cfa: r7 8 +
STACK CFI c20 r11: .cfa -24 + ^
