MODULE Linux arm 4B3B75308C86DC333E3A5315152772220 TestSPSCQueue
INFO CODE_ID 30753B4B868C33DC3E3A53151527722298AB3C91
INFO GENERATOR mozilla/dump_syms 2.3.6
PUBLIC 5630 0 _start
PUBLIC 5640 0 _start_main
PUBLIC 56ac 0 __atexit_handler_wrapper
PUBLIC 56c4 0 atexit
PUBLIC 56f0 0 pthread_atfork
PUBLIC 570c 0 call_fini_array
FUNC 5750 6 0 Delay()
FUNC 5758 20c 0 TestResetAPI()
FUNC 5964 94 0 mozilla::SPSCRingBufferBase<float>::SPSCRingBufferBase(int)
FUNC 59f8 3ec 0 TestMove()
FUNC 5de4 18c 0 std::__ndk1::vector<TestMove()::Thing, std::__ndk1::allocator<TestMove()::Thing> >::push_back[abi:dn210000](TestMove()::Thing&&)
FUNC 5f70 3c 0 MOZ_ReportAssertionFailure(char const*, char const*, int)
FUNC 5fac d0 0 main
FUNC 607c 2a4 0 BasicAPITest<mozilla::SPSCRingBufferBase<float> >(mozilla::SPSCRingBufferBase<float>&)
FUNC 6320 2a4 0 BasicAPITest<mozilla::SPSCRingBufferBase<char> >(mozilla::SPSCRingBufferBase<char>&)
FUNC 65d0 7b8 0 TestRing<unsigned int>(int)
FUNC 6d88 114 0 TestRingMultiThread<unsigned int>(int)
FUNC 6ea0 178 0 TestRing<float>(int)
FUNC 7018 114 0 TestRingMultiThread<float>(int)
FUNC 712c 10 0 std::__ndk1::vector<TestMove()::Thing, std::__ndk1::allocator<TestMove()::Thing> >::__throw_length_error[abi:dn210000]()
FUNC 713c 14 0 std::__ndk1::__throw_length_error[abi:dn210000](char const*)
FUNC 7150 10 0 std::__throw_bad_array_new_length([abi:dn210000], void)
FUNC 7160 64 0 std::__ndk1::basic_string<char, std::__ndk1::char_traits<char>, std::__ndk1::allocator<char> >::__init_copy_ctor_external(char const*, unsigned int)
FUNC 71c4 10 0 std::__ndk1::basic_string<char, std::__ndk1::char_traits<char>, std::__ndk1::allocator<char> >::__throw_length_error[abi:dn210000]()
FUNC 71d4 98 0 std::__ndk1::__thread_proxy[abi:dn210000]<std::__ndk1::tuple<std::__ndk1::unique_ptr<std::__ndk1::__thread_struct, std::__ndk1::default_delete<std::__ndk1::unique_ptr> >, TestResetAPI()::$_0> >(std::__ndk1::tuple<std::__ndk1::unique_ptr<std::__ndk1::__thread_struct, std::__ndk1::default_delete<std::__ndk1::unique_ptr> >, TestResetAPI()::$_0>)
FUNC 726c 164 0 mozilla::SPSCRingBufferBase<float>::Enqueue(float*, int)
FUNC 73d0 bc 0 mozilla::detail::MemoryOperations<float, true>::MoveOrCopy(float*, float*, unsigned int)
FUNC 748c 98 0 std::__ndk1::__thread_proxy[abi:dn210000]<std::__ndk1::tuple<std::__ndk1::unique_ptr<std::__ndk1::__thread_struct, std::__ndk1::default_delete<std::__ndk1::unique_ptr> >, TestResetAPI()::$_1> >(std::__ndk1::tuple<std::__ndk1::unique_ptr<std::__ndk1::__thread_struct, std::__ndk1::default_delete<std::__ndk1::unique_ptr> >, TestResetAPI()::$_1>)
FUNC 7524 d4 0 mozilla::SPSCRingBufferBase<float>::Dequeue(float*, int)
FUNC 75f8 a4 0 std::__ndk1::__thread_proxy[abi:dn210000]<std::__ndk1::tuple<std::__ndk1::unique_ptr<std::__ndk1::__thread_struct, std::__ndk1::default_delete<std::__ndk1::unique_ptr> >, TestResetAPI()::$_2> >(std::__ndk1::tuple<std::__ndk1::unique_ptr<std::__ndk1::__thread_struct, std::__ndk1::default_delete<std::__ndk1::unique_ptr> >, TestResetAPI()::$_2>)
FUNC 769c a4 0 std::__ndk1::__thread_proxy[abi:dn210000]<std::__ndk1::tuple<std::__ndk1::unique_ptr<std::__ndk1::__thread_struct, std::__ndk1::default_delete<std::__ndk1::unique_ptr> >, TestResetAPI()::$_3> >(std::__ndk1::tuple<std::__ndk1::unique_ptr<std::__ndk1::__thread_struct, std::__ndk1::default_delete<std::__ndk1::unique_ptr> >, TestResetAPI()::$_3>)
FUNC 7740 11c 0 std::__ndk1::__thread_proxy[abi:dn210000]<std::__ndk1::tuple<std::__ndk1::unique_ptr<std::__ndk1::__thread_struct, std::__ndk1::default_delete<std::__ndk1::unique_ptr> >, TestResetAPI()::$_4> >(std::__ndk1::tuple<std::__ndk1::unique_ptr<std::__ndk1::__thread_struct, std::__ndk1::default_delete<std::__ndk1::unique_ptr> >, TestResetAPI()::$_4>)
FUNC 785c a4 0 std::__ndk1::__thread_proxy[abi:dn210000]<std::__ndk1::tuple<std::__ndk1::unique_ptr<std::__ndk1::__thread_struct, std::__ndk1::default_delete<std::__ndk1::unique_ptr> >, TestResetAPI()::$_4::operator()() const::{lambda()#1}> >(std::__ndk1::tuple<std::__ndk1::unique_ptr<std::__ndk1::__thread_struct, std::__ndk1::default_delete<std::__ndk1::unique_ptr> >, TestResetAPI()::$_4::operator()() const::{lambda()#1}>)
FUNC 7900 11c 0 std::__ndk1::__thread_proxy[abi:dn210000]<std::__ndk1::tuple<std::__ndk1::unique_ptr<std::__ndk1::__thread_struct, std::__ndk1::default_delete<std::__ndk1::unique_ptr> >, TestResetAPI()::$_5> >(std::__ndk1::tuple<std::__ndk1::unique_ptr<std::__ndk1::__thread_struct, std::__ndk1::default_delete<std::__ndk1::unique_ptr> >, TestResetAPI()::$_5>)
FUNC 7a1c a4 0 std::__ndk1::__thread_proxy[abi:dn210000]<std::__ndk1::tuple<std::__ndk1::unique_ptr<std::__ndk1::__thread_struct, std::__ndk1::default_delete<std::__ndk1::unique_ptr> >, TestResetAPI()::$_5::operator()() const::{lambda()#1}> >(std::__ndk1::tuple<std::__ndk1::unique_ptr<std::__ndk1::__thread_struct, std::__ndk1::default_delete<std::__ndk1::unique_ptr> >, TestResetAPI()::$_5::operator()() const::{lambda()#1}>)
FUNC 7ac0 214 0 mozilla::SPSCRingBufferBase<char>::Dequeue(char*, int)
FUNC 7cd4 21c 0 mozilla::SPSCRingBufferBase<char>::Enqueue(char*, int)
FUNC 7ef0 a8 0 SequenceVerifier<unsigned int>::Check(unsigned int*, unsigned int)
FUNC 7f98 1c 0 std::__ndk1::operator<<[abi:dn210000]<std::__ndk1::char_traits<char> >(std::__ndk1::basic_ostream<char, std::__ndk1::char_traits<char> >, char const*)
FUNC 7fb4 78 0 std::__ndk1::endl[abi:dn210000]<char, std::__ndk1::char_traits<char> >(std::__ndk1::basic_ostream<char, std::__ndk1::char_traits<char> >)
FUNC 802c f8 0 std::__ndk1::__put_character_sequence[abi:dn210000]<char, std::__ndk1::char_traits<char> >(std::__ndk1::basic_ostream<char, std::__ndk1::char_traits<char> >, std::__ndk1::basic_ostream const*, unsigned int)
FUNC 8124 130 0 std::__ndk1::__pad_and_output[abi:dn210000]<char, std::__ndk1::char_traits<char> >(std::__ndk1::char_traits<char>, std::__ndk1::ostreambuf_iterator const*, std::__ndk1::ostreambuf_iterator const, std::__ndk1::ostreambuf_iterator const, std::__ndk1::ios_base&, std::__ndk1::ostreambuf_iterator)
FUNC 8260 770 0 std::__ndk1::__thread_proxy[abi:dn210000]<std::__ndk1::tuple<std::__ndk1::unique_ptr<std::__ndk1::__thread_struct, std::__ndk1::default_delete<std::__ndk1::unique_ptr> >, TestRingMultiThread<unsigned int>(int)::{lambda()#1}> >(std::__ndk1::tuple<std::__ndk1::unique_ptr<std::__ndk1::__thread_struct, std::__ndk1::default_delete<std::__ndk1::unique_ptr> >, TestRingMultiThread<unsigned int>(int)::{lambda()#1}>)
FUNC 89d0 bc 0 SequenceVerifier<float>::Check(float*, unsigned int)
FUNC 8a90 130 0 std::__ndk1::__thread_proxy[abi:dn210000]<std::__ndk1::tuple<std::__ndk1::unique_ptr<std::__ndk1::__thread_struct, std::__ndk1::default_delete<std::__ndk1::unique_ptr> >, TestRingMultiThread<float>(int)::{lambda()#1}> >(std::__ndk1::tuple<std::__ndk1::unique_ptr<std::__ndk1::__thread_struct, std::__ndk1::default_delete<std::__ndk1::unique_ptr> >, TestRingMultiThread<float>(int)::{lambda()#1}>)
FUNC 8bc0 10 0 std::__ndk1::thread::~thread()
PUBLIC 8bd1 0 __clang_call_terminate
FUNC 8bdc 2c 0 std::__ndk1::thread::join()
FUNC 8c08 28 0 std::__ndk1::thread::detach()
FUNC 8c30 14 0 std::__ndk1::thread::hardware_concurrency()
FUNC 8c44 6c 0 std::__ndk1::this_thread::sleep_for(std::__ndk1::chrono::duration<long long, std::__ndk1::ratio<(long long)1, (long long)1000000000> > const&)
FUNC 8cb0 64 0 std::__ndk1::__thread_local_data()
FUNC 8d14 28 0 std::__ndk1::__thread_specific_ptr<std::__ndk1::__thread_struct>::__thread_specific_ptr()
FUNC 8d3c 88 0 std::__ndk1::__thread_struct_imp::~__thread_struct_imp()
FUNC 8dc4 9c 0 std::__ndk1::__thread_struct_imp::notify_all_at_thread_exit(std::__ndk1::condition_variable*, std::__ndk1::mutex*)
FUNC 8e60 a2 0 std::__ndk1::__thread_struct_imp::__make_ready_at_thread_exit(std::__ndk1::__assoc_sub_state*)
FUNC 8f02 20 0 std::__ndk1::__thread_struct::__thread_struct()
FUNC 8f22 20 0 std::__ndk1::__thread_struct::~__thread_struct()
FUNC 8f42 9e 0 std::__ndk1::__thread_struct::notify_all_at_thread_exit(std::__ndk1::condition_variable*, std::__ndk1::mutex*)
FUNC 8fe0 a2 0 std::__ndk1::__thread_struct::__make_ready_at_thread_exit(std::__ndk1::__assoc_sub_state*)
FUNC 9084 10 0 std::__ndk1::vector<std::__ndk1::pair<std::__ndk1::condition_variable*, std::__ndk1::mutex*>, std::__ndk1::__hidden_allocator<std::__ndk1::pair<std::__ndk1::condition_variable*, std::__ndk1::mutex*> > >::__throw_length_error[abi:ne210000]()
FUNC 9094 38 0 std::__ndk1::__throw_length_error[abi:ne210000](char const*)
FUNC 90cc 18 0 std::length_error::length_error[abi:ne210000](char const*)
FUNC 90e4 10 0 std::__ndk1::vector<std::__ndk1::__assoc_sub_state*, std::__ndk1::__hidden_allocator<std::__ndk1::__assoc_sub_state*> >::__throw_length_error[abi:ne210000]()
FUNC 90f4 1c 0 std::__ndk1::__thread_specific_ptr<std::__ndk1::__thread_struct>::__at_thread_exit(void*)
FUNC 9110 e 0 std::__ndk1::condition_variable::notify_one()
FUNC 911e e 0 std::__ndk1::condition_variable::notify_all()
FUNC 912c 34 0 std::__ndk1::condition_variable::wait(std::__ndk1::unique_lock<std::__ndk1::mutex>&)
FUNC 9160 94 0 std::__ndk1::condition_variable::__do_timed_wait(std::__ndk1::unique_lock<std::__ndk1::mutex>&, std::__ndk1::chrono::time_point<std::__ndk1::chrono::system_clock, std::__ndk1::chrono::duration<long long, std::__ndk1::ratio<(long long)1, (long long)1000000000> > >)
FUNC 91f4 5a 0 std::__ndk1::notify_all_at_thread_exit(std::__ndk1::condition_variable&, std::__ndk1::unique_lock<std::__ndk1::mutex>)
FUNC 9250 1c 0 std::__ndk1::mutex::lock()
FUNC 926c 14 0 std::__ndk1::mutex::try_lock()
FUNC 9280 e 0 std::__ndk1::mutex::unlock()
FUNC 9290 64 0 std::__ndk1::recursive_mutex::recursive_mutex()
FUNC 92f4 12 0 std::__ndk1::recursive_mutex::~recursive_mutex()
FUNC 9308 1c 0 std::__ndk1::recursive_mutex::lock()
FUNC 9324 e 0 std::__ndk1::recursive_mutex::unlock()
FUNC 9332 14 0 std::__ndk1::recursive_mutex::try_lock()
FUNC 9346 e 0 std::__ndk1::timed_mutex::timed_mutex()
FUNC 9354 38 0 std::__ndk1::timed_mutex::~timed_mutex()
FUNC 938c 64 0 std::__ndk1::timed_mutex::lock()
FUNC 93f0 1c 0 std::__ndk1::unique_lock<std::__ndk1::mutex>::~unique_lock[abi:ne210000]()
FUNC 940c 30 0 std::__ndk1::timed_mutex::try_lock()
FUNC 943c 34 0 std::__ndk1::timed_mutex::unlock()
FUNC 9470 e 0 std::__ndk1::recursive_timed_mutex::recursive_timed_mutex()
FUNC 9480 38 0 std::__ndk1::recursive_timed_mutex::~recursive_timed_mutex()
FUNC 94b8 94 0 std::__ndk1::recursive_timed_mutex::lock()
FUNC 954c 4c 0 std::__ndk1::recursive_timed_mutex::try_lock()
FUNC 9598 48 0 std::__ndk1::recursive_timed_mutex::unlock()
FUNC 95e0 12 0 std::__ndk1::condition_variable::~condition_variable()
FUNC 95f2 12 0 std::__ndk1::mutex::~mutex()
FUNC 9604 10 0 std::__ndk1::__future_error_category::name() const
FUNC 9614 f8 0 std::__ndk1::__future_error_category::message(int) const
FUNC 970c 40 0 std::__ndk1::future_category()
FUNC 974c 68 0 std::__ndk1::future_error::future_error(std::__ndk1::error_code)
FUNC 97b4 c 0 std::__ndk1::future_error::~future_error()
FUNC 97c0 16 0 std::__ndk1::future_error::~future_error()
FUNC 97d6 e 0 std::__ndk1::__assoc_sub_state::__on_zero_shared()
FUNC 97e4 58 0 std::__ndk1::__assoc_sub_state::set_value()
FUNC 983c 74 0 std::__ndk1::__throw_future_error[abi:ne210000](std::__ndk1::future_errc)
FUNC 98b0 60 0 std::__ndk1::__assoc_sub_state::set_value_at_thread_exit()
FUNC 9910 66 0 std::__ndk1::__assoc_sub_state::set_exception(std::exception_ptr)
FUNC 9976 66 0 std::__ndk1::__assoc_sub_state::set_exception_at_thread_exit(std::exception_ptr)
FUNC 99dc 2a 0 std::__ndk1::__assoc_sub_state::__make_ready()
FUNC 9a06 a2 0 std::__ndk1::__assoc_sub_state::copy()
FUNC 9aa8 60 0 std::__ndk1::__assoc_sub_state::__sub_wait(std::__ndk1::unique_lock<std::__ndk1::mutex>&)
FUNC 9b08 70 0 std::__ndk1::__assoc_sub_state::wait()
FUNC 9b78 a 0 std::__ndk1::__assoc_sub_state::__execute()
FUNC 9b82 52 0 std::__ndk1::future<void>::future(std::__ndk1::__assoc_sub_state*)
FUNC 9bd4 46 0 std::__ndk1::future<void>::~future()
FUNC 9c1a 62 0 std::__ndk1::future<void>::get()
FUNC 9c7c 30 0 std::__ndk1::promise<void>::promise()
FUNC 9cac 118 0 std::__ndk1::promise<void>::~promise()
FUNC 9dc4 14 0 std::__ndk1::promise<void>::get_future()
FUNC 9dd8 14 0 std::__ndk1::promise<void>::set_value()
FUNC 9dec 34 0 std::__ndk1::promise<void>::set_exception(std::exception_ptr)
FUNC 9e20 14 0 std::__ndk1::promise<void>::set_value_at_thread_exit()
FUNC 9e34 34 0 std::__ndk1::promise<void>::set_exception_at_thread_exit(std::exception_ptr)
FUNC 9e68 46 0 std::__ndk1::shared_future<void>::~shared_future()
FUNC 9eae 56 0 std::__ndk1::shared_future<void>::operator=(std::__ndk1::shared_future<void> const&)
FUNC 9f04 38 0 std::__ndk1::__assoc_sub_state::~__assoc_sub_state()
FUNC 9f3c 40 0 std::__ndk1::__assoc_sub_state::~__assoc_sub_state()
FUNC 9f7c 12 0 std::__ndk1::__future_error_category::~__future_error_category()
FUNC 9f8e e 0 _ZZSt18make_exception_ptrB8ne210000INSt6__ndk112future_errorEESt13exception_ptrT_ENUlPvE_8__invokeES4_
FUNC 9f9c b0 0 std::__ndk1::__do_message::message(int) const
FUNC a04c 10 0 std::__ndk1::__generic_error_category::name() const
FUNC a05c 48 0 std::__ndk1::__generic_error_category::message(int) const
FUNC a0a4 40 0 std::__ndk1::generic_category()
FUNC a0e4 10 0 std::__ndk1::__system_error_category::name() const
FUNC a0f4 40 0 std::__ndk1::__system_error_category::message(int) const
FUNC a134 24 0 std::__ndk1::__system_error_category::default_error_condition(int) const
FUNC a158 40 0 std::__ndk1::system_category()
FUNC a198 12 0 std::__ndk1::error_condition::message() const
FUNC a1aa 12 0 std::__ndk1::error_code::message() const
FUNC a1bc b0 0 std::__ndk1::system_error::system_error(std::__ndk1::error_code, std::__ndk1::basic_string<char, std::__ndk1::char_traits<char>, std::__ndk1::allocator<char> > const&)
FUNC a26c 9c 0 std::__ndk1::(anonymous namespace)::make_error_str(std::__ndk1::error_code const&, std::__ndk1::basic_string<char, std::__ndk1::char_traits<char>, std::__ndk1::allocator<char> >)
FUNC a308 e4 0 std::__ndk1::system_error::system_error(std::__ndk1::error_code, char const*)
FUNC a3ec 78 0 std::__ndk1::system_error::system_error(std::__ndk1::error_code)
FUNC a464 b8 0 std::__ndk1::system_error::system_error(int, std::__ndk1::error_category const&, std::__ndk1::basic_string<char, std::__ndk1::char_traits<char>, std::__ndk1::allocator<char> > const&)
FUNC a51c e4 0 std::__ndk1::system_error::system_error(int, std::__ndk1::error_category const&, char const*)
FUNC a600 78 0 std::__ndk1::system_error::system_error(int, std::__ndk1::error_category const&)
FUNC a678 c 0 std::__ndk1::system_error::~system_error()
FUNC a684 16 0 std::__ndk1::system_error::~system_error()
FUNC a69c 14 0 std::__ndk1::__throw_system_error(int, char const*)
FUNC a6b0 44 0 std::__ndk1::__throw_system_error[abi:ne210000](std::__ndk1::error_code, char const*)
FUNC a6f4 6 0 std::__ndk1::__do_message::~__do_message()
FUNC a6fa 12 0 std::__ndk1::__generic_error_category::~__generic_error_category()
FUNC a70c 12 0 std::__ndk1::__system_error_category::~__system_error_category()
FUNC a720 10 0 std::__ndk1::basic_string<char, std::__ndk1::char_traits<char>, std::__ndk1::allocator<char> >::__throw_length_error[abi:ne210000]()
FUNC a730 12 0 __cxa_pure_virtual
FUNC a744 40 0 MOZ_ReportCrash
FUNC a784 27c 0 std::__ndk1::DoIOSInit::DoIOSInit()
FUNC aa00 d8 0 std::__ndk1::stream_data<std::__ndk1::basic_istream<char, std::__ndk1::char_traits<char> >, std::__ndk1::__stdinbuf<char> >::init(__sFILE*)
FUNC aad8 d8 0 std::__ndk1::stream_data<std::__ndk1::basic_istream<wchar_t, std::__ndk1::char_traits<wchar_t> >, std::__ndk1::__stdinbuf<wchar_t> >::init(__sFILE*)
FUNC abb0 48 0 std::__ndk1::DoIOSInit::~DoIOSInit()
FUNC abf8 78 0 std::__ndk1::ios_base::Init::Init()
FUNC ac70 6 0 std::__ndk1::ios_base::Init::~Init()
FUNC ac78 2c 0 std::__ndk1::__stdinbuf<char>::~__stdinbuf()
FUNC aca4 44 0 std::__ndk1::__stdinbuf<char>::imbue(std::__ndk1::locale const&)
FUNC ace8 e 0 std::__ndk1::__stdinbuf<char>::underflow()
FUNC acf6 e 0 std::__ndk1::__stdinbuf<char>::uflow()
FUNC ad04 b6 0 std::__ndk1::__stdinbuf<char>::pbackfail(int)
FUNC adba 106 0 std::__ndk1::__stdinbuf<char>::__getchar(bool)
FUNC aec0 98 0 std::__ndk1::__stdoutbuf<char>::__stdoutbuf(__sFILE*, mbstate_t*)
FUNC af58 2c 0 std::__ndk1::__stdoutbuf<char>::~__stdoutbuf()
FUNC af84 30 0 std::__ndk1::__stdoutbuf<char>::imbue(std::__ndk1::locale const&)
FUNC afb4 66 0 std::__ndk1::__stdoutbuf<char>::sync()
FUNC b01a 4e 0 std::__ndk1::__stdoutbuf<char>::xsputn(char const*, int)
FUNC b068 b0 0 std::__ndk1::__stdoutbuf<char>::overflow(int)
FUNC b118 2c 0 std::__ndk1::__stdinbuf<wchar_t>::~__stdinbuf()
FUNC b144 44 0 std::__ndk1::__stdinbuf<wchar_t>::imbue(std::__ndk1::locale const&)
FUNC b188 e 0 std::__ndk1::__stdinbuf<wchar_t>::underflow()
FUNC b196 e 0 std::__ndk1::__stdinbuf<wchar_t>::uflow()
FUNC b1a4 b2 0 std::__ndk1::__stdinbuf<wchar_t>::pbackfail(unsigned int)
FUNC b256 fe 0 std::__ndk1::__stdinbuf<wchar_t>::__getchar(bool)
FUNC b354 98 0 std::__ndk1::__stdoutbuf<wchar_t>::__stdoutbuf(__sFILE*, mbstate_t*)
FUNC b3ec 2c 0 std::__ndk1::__stdoutbuf<wchar_t>::~__stdoutbuf()
FUNC b418 30 0 std::__ndk1::__stdoutbuf<wchar_t>::imbue(std::__ndk1::locale const&)
FUNC b448 66 0 std::__ndk1::__stdoutbuf<wchar_t>::sync()
FUNC b4ae 4e 0 std::__ndk1::__stdoutbuf<wchar_t>::xsputn(wchar_t const*, int)
FUNC b4fc ae 0 std::__ndk1::__stdoutbuf<wchar_t>::overflow(unsigned int)
FUNC b5ac 30 0 _GLOBAL__I_000100
PUBLIC b5dc 0 __aeabi_idivmod
PUBLIC b5f8 0 __aeabi_ldivmod
PUBLIC m b61c 0 __aeabi_memcpy
PUBLIC m b620 0 __aeabi_memmove
PUBLIC m b624 0 __aeabi_memset
PUBLIC m b634 0 __aeabi_memclr4
PUBLIC b640 0 __aeabi_uldivmod
PUBLIC b665 0 __ThumbV7PILongThunk___aeabi_memcpy
PUBLIC b671 0 __ThumbV7PILongThunk__ZdlPvj
PUBLIC b67d 0 __ThumbV7PILongThunk__ZNSt11logic_errorD2Ev
PUBLIC b689 0 __ThumbV7PILongThunk__ZNSt6__ndk114__shared_countD2Ev
PUBLIC b695 0 __ThumbV7PILongThunk__ZNSt13runtime_errorD2Ev
PUBLIC b6a1 0 __ThumbV7PILongThunk_fwrite
PUBLIC b6ad 0 __ThumbV7PILongThunk___cxa_atexit
PUBLIC b6c0 0 <.plt ELF section in TestSPSCQueue>
STACK CFI INIT 5750 6 .cfa: sp 0 + .ra: lr
STACK CFI 5752 .cfa: sp 8 + .ra: .cfa -4 + ^ r7: .cfa -8 + ^
STACK CFI 5754 .cfa: r7 8 +
STACK CFI INIT 5758 20c .cfa: sp 0 + .ra: lr
STACK CFI 575a .cfa: sp 20 + .ra: .cfa -4 + ^ r7: .cfa -8 + ^ r6: .cfa -12 + ^ r5: .cfa -16 + ^ r4: .cfa -20 + ^
STACK CFI 575c .cfa: r7 8 +
STACK CFI 5760 r8: .cfa -24 + ^
STACK CFI INIT 5964 94 .cfa: sp 0 + .ra: lr
STACK CFI 5966 .cfa: sp 20 + .ra: .cfa -4 + ^ r7: .cfa -8 + ^ r6: .cfa -12 + ^ r5: .cfa -16 + ^ r4: .cfa -20 + ^
STACK CFI 5968 .cfa: r7 8 +
STACK CFI 596c r11: .cfa -24 + ^
STACK CFI INIT 59f8 3ec .cfa: sp 0 + .ra: lr
STACK CFI 59fa .cfa: sp 20 + .ra: .cfa -4 + ^ r7: .cfa -8 + ^ r6: .cfa -12 + ^ r5: .cfa -16 + ^ r4: .cfa -20 + ^
STACK CFI 59fc .cfa: r7 8 +
STACK CFI 5a00 r11: .cfa -24 + ^ r10: .cfa -28 + ^ r9: .cfa -32 + ^ r8: .cfa -36 + ^
STACK CFI INIT 5de4 18c .cfa: sp 0 + .ra: lr
STACK CFI 5de6 .cfa: sp 20 + .ra: .cfa -4 + ^ r7: .cfa -8 + ^ r6: .cfa -12 + ^ r5: .cfa -16 + ^ r4: .cfa -20 + ^
STACK CFI 5de8 .cfa: r7 8 +
STACK CFI 5dec r11: .cfa -24 + ^ r10: .cfa -28 + ^ r9: .cfa -32 + ^ r8: .cfa -36 + ^
STACK CFI INIT 5f70 3c .cfa: sp 0 + .ra: lr
STACK CFI 5f72 .cfa: sp 20 + .ra: .cfa -4 + ^ r7: .cfa -8 + ^ r6: .cfa -12 + ^ r5: .cfa -16 + ^ r4: .cfa -20 + ^
STACK CFI 5f74 .cfa: r7 8 +
STACK CFI 5f78 r11: .cfa -24 + ^
STACK CFI INIT 5fac d0 .cfa: sp 0 + .ra: lr
STACK CFI 5fae .cfa: sp 20 + .ra: .cfa -4 + ^ r7: .cfa -8 + ^ r6: .cfa -12 + ^ r5: .cfa -16 + ^ r4: .cfa -20 + ^
STACK CFI 5fb0 .cfa: r7 8 +
STACK CFI 5fb4 r11: .cfa -24 + ^
STACK CFI INIT 607c 2a4 .cfa: sp 0 + .ra: lr
STACK CFI 607e .cfa: sp 16 + .ra: .cfa -4 + ^ r7: .cfa -8 + ^ r5: .cfa -12 + ^ r4: .cfa -16 + ^
STACK CFI 6080 .cfa: r7 8 +
STACK CFI INIT 6320 2a4 .cfa: sp 0 + .ra: lr
STACK CFI 6322 .cfa: sp 16 + .ra: .cfa -4 + ^ r7: .cfa -8 + ^ r5: .cfa -12 + ^ r4: .cfa -16 + ^
STACK CFI 6324 .cfa: r7 8 +
STACK CFI INIT 65d0 7b8 .cfa: sp 0 + .ra: lr
STACK CFI 65d2 .cfa: sp 20 + .ra: .cfa -4 + ^ r7: .cfa -8 + ^ r6: .cfa -12 + ^ r5: .cfa -16 + ^ r4: .cfa -20 + ^
STACK CFI 65d4 .cfa: r7 8 +
STACK CFI 65d8 r11: .cfa -24 + ^ r10: .cfa -28 + ^ r9: .cfa -32 + ^ r8: .cfa -36 + ^
STACK CFI INIT 6d88 114 .cfa: sp 0 + .ra: lr
STACK CFI 6d8a .cfa: sp 20 + .ra: .cfa -4 + ^ r7: .cfa -8 + ^ r6: .cfa -12 + ^ r5: .cfa -16 + ^ r4: .cfa -20 + ^
STACK CFI 6d8c .cfa: r7 8 +
STACK CFI 6d90 r8: .cfa -24 + ^
STACK CFI INIT 6ea0 178 .cfa: sp 0 + .ra: lr
STACK CFI 6ea2 .cfa: sp 20 + .ra: .cfa -4 + ^ r7: .cfa -8 + ^ r6: .cfa -12 + ^ r5: .cfa -16 + ^ r4: .cfa -20 + ^
STACK CFI 6ea4 .cfa: r7 8 +
STACK CFI 6ea8 r11: .cfa -24 + ^ r9: .cfa -28 + ^ r8: .cfa -32 + ^
STACK CFI INIT 7018 114 .cfa: sp 0 + .ra: lr
STACK CFI 701a .cfa: sp 20 + .ra: .cfa -4 + ^ r7: .cfa -8 + ^ r6: .cfa -12 + ^ r5: .cfa -16 + ^ r4: .cfa -20 + ^
STACK CFI 701c .cfa: r7 8 +
STACK CFI 7020 r8: .cfa -24 + ^
STACK CFI INIT 712c 10 .cfa: sp 0 + .ra: lr
STACK CFI 712e .cfa: sp 8 + .ra: .cfa -4 + ^ r7: .cfa -8 + ^
STACK CFI 7130 .cfa: r7 8 +
STACK CFI INIT 713c 14 .cfa: sp 0 + .ra: lr
STACK CFI 713e .cfa: sp 8 + .ra: .cfa -4 + ^ r7: .cfa -8 + ^
STACK CFI 7140 .cfa: r7 8 +
STACK CFI INIT 7150 10 .cfa: sp 0 + .ra: lr
STACK CFI 7152 .cfa: sp 8 + .ra: .cfa -4 + ^ r7: .cfa -8 + ^
STACK CFI 7154 .cfa: r7 8 +
STACK CFI INIT 7160 64 .cfa: sp 0 + .ra: lr
STACK CFI 7162 .cfa: sp 20 + .ra: .cfa -4 + ^ r7: .cfa -8 + ^ r6: .cfa -12 + ^ r5: .cfa -16 + ^ r4: .cfa -20 + ^
STACK CFI 7164 .cfa: r7 8 +
STACK CFI 7168 r8: .cfa -24 + ^
STACK CFI INIT 71c4 10 .cfa: sp 0 + .ra: lr
STACK CFI 71c6 .cfa: sp 8 + .ra: .cfa -4 + ^ r7: .cfa -8 + ^
STACK CFI 71c8 .cfa: r7 8 +
STACK CFI INIT 71d4 98 .cfa: sp 0 + .ra: lr
STACK CFI 71d6 .cfa: sp 20 + .ra: .cfa -4 + ^ r7: .cfa -8 + ^ r6: .cfa -12 + ^ r5: .cfa -16 + ^ r4: .cfa -20 + ^
STACK CFI 71d8 .cfa: r7 8 +
STACK CFI 71dc r11: .cfa -24 + ^
STACK CFI INIT 726c 164 .cfa: sp 0 + .ra: lr
STACK CFI 726e .cfa: sp 20 + .ra: .cfa -4 + ^ r7: .cfa -8 + ^ r6: .cfa -12 + ^ r5: .cfa -16 + ^ r4: .cfa -20 + ^
STACK CFI 7270 .cfa: r7 8 +
STACK CFI 7274 r11: .cfa -24 + ^ r10: .cfa -28 + ^ r9: .cfa -32 + ^ r8: .cfa -36 + ^
STACK CFI INIT 73d0 bc .cfa: sp 0 + .ra: lr
STACK CFI 73d2 .cfa: sp 16 + .ra: .cfa -4 + ^ r7: .cfa -8 + ^ r5: .cfa -12 + ^ r4: .cfa -16 + ^
STACK CFI 73d4 .cfa: r7 8 +
STACK CFI INIT 748c 98 .cfa: sp 0 + .ra: lr
STACK CFI 748e .cfa: sp 20 + .ra: .cfa -4 + ^ r7: .cfa -8 + ^ r6: .cfa -12 + ^ r5: .cfa -16 + ^ r4: .cfa -20 + ^
STACK CFI 7490 .cfa: r7 8 +
STACK CFI 7494 r11: .cfa -24 + ^
STACK CFI INIT 7524 d4 .cfa: sp 0 + .ra: lr
STACK CFI 7526 .cfa: sp 20 + .ra: .cfa -4 + ^ r7: .cfa -8 + ^ r6: .cfa -12 + ^ r5: .cfa -16 + ^ r4: .cfa -20 + ^
STACK CFI 7528 .cfa: r7 8 +
STACK CFI 752c r11: .cfa -24 + ^ r9: .cfa -28 + ^ r8: .cfa -32 + ^
STACK CFI INIT 75f8 a4 .cfa: sp 0 + .ra: lr
STACK CFI 75fa .cfa: sp 20 + .ra: .cfa -4 + ^ r7: .cfa -8 + ^ r6: .cfa -12 + ^ r5: .cfa -16 + ^ r4: .cfa -20 + ^
STACK CFI 75fc .cfa: r7 8 +
STACK CFI 7600 r11: .cfa -24 + ^
STACK CFI INIT 769c a4 .cfa: sp 0 + .ra: lr
STACK CFI 769e .cfa: sp 20 + .ra: .cfa -4 + ^ r7: .cfa -8 + ^ r6: .cfa -12 + ^ r5: .cfa -16 + ^ r4: .cfa -20 + ^
STACK CFI 76a0 .cfa: r7 8 +
STACK CFI 76a4 r11: .cfa -24 + ^
STACK CFI INIT 7740 11c .cfa: sp 0 + .ra: lr
STACK CFI 7742 .cfa: sp 20 + .ra: .cfa -4 + ^ r7: .cfa -8 + ^ r6: .cfa -12 + ^ r5: .cfa -16 + ^ r4: .cfa -20 + ^
STACK CFI 7744 .cfa: r7 8 +
STACK CFI 7748 r8: .cfa -24 + ^
STACK CFI INIT 785c a4 .cfa: sp 0 + .ra: lr
STACK CFI 785e .cfa: sp 20 + .ra: .cfa -4 + ^ r7: .cfa -8 + ^ r6: .cfa -12 + ^ r5: .cfa -16 + ^ r4: .cfa -20 + ^
STACK CFI 7860 .cfa: r7 8 +
STACK CFI 7864 r11: .cfa -24 + ^
STACK CFI INIT 7900 11c .cfa: sp 0 + .ra: lr
STACK CFI 7902 .cfa: sp 20 + .ra: .cfa -4 + ^ r7: .cfa -8 + ^ r6: .cfa -12 + ^ r5: .cfa -16 + ^ r4: .cfa -20 + ^
STACK CFI 7904 .cfa: r7 8 +
STACK CFI 7908 r8: .cfa -24 + ^
STACK CFI INIT 7a1c a4 .cfa: sp 0 + .ra: lr
STACK CFI 7a1e .cfa: sp 20 + .ra: .cfa -4 + ^ r7: .cfa -8 + ^ r6: .cfa -12 + ^ r5: .cfa -16 + ^ r4: .cfa -20 + ^
STACK CFI 7a20 .cfa: r7 8 +
STACK CFI 7a24 r11: .cfa -24 + ^
STACK CFI INIT 7ac0 214 .cfa: sp 0 + .ra: lr
STACK CFI 7ac2 .cfa: sp 20 + .ra: .cfa -4 + ^ r7: .cfa -8 + ^ r6: .cfa -12 + ^ r5: .cfa -16 + ^ r4: .cfa -20 + ^
STACK CFI 7ac4 .cfa: r7 8 +
STACK CFI 7ac8 r11: .cfa -24 + ^ r10: .cfa -28 + ^ r9: .cfa -32 + ^ r8: .cfa -36 + ^
STACK CFI INIT 7cd4 21c .cfa: sp 0 + .ra: lr
STACK CFI 7cd6 .cfa: sp 20 + .ra: .cfa -4 + ^ r7: .cfa -8 + ^ r6: .cfa -12 + ^ r5: .cfa -16 + ^ r4: .cfa -20 + ^
STACK CFI 7cd8 .cfa: r7 8 +
STACK CFI 7cdc r11: .cfa -24 + ^ r10: .cfa -28 + ^ r9: .cfa -32 + ^ r8: .cfa -36 + ^
STACK CFI INIT 0 94 .cfa: sp 0 + .ra: lr
STACK CFI 2 .cfa: sp 20 + .ra: .cfa -4 + ^ r7: .cfa -8 + ^ r6: .cfa -12 + ^ r5: .cfa -16 + ^ r4: .cfa -20 + ^
STACK CFI 4 .cfa: r7 8 +
STACK CFI 8 r11: .cfa -24 + ^
STACK CFI INIT 0 164 .cfa: sp 0 + .ra: lr
STACK CFI 2 .cfa: sp 20 + .ra: .cfa -4 + ^ r7: .cfa -8 + ^ r6: .cfa -12 + ^ r5: .cfa -16 + ^ r4: .cfa -20 + ^
STACK CFI 4 .cfa: r7 8 +
STACK CFI 8 r11: .cfa -24 + ^ r10: .cfa -28 + ^ r9: .cfa -32 + ^ r8: .cfa -36 + ^
STACK CFI INIT 0 d4 .cfa: sp 0 + .ra: lr
STACK CFI 2 .cfa: sp 20 + .ra: .cfa -4 + ^ r7: .cfa -8 + ^ r6: .cfa -12 + ^ r5: .cfa -16 + ^ r4: .cfa -20 + ^
STACK CFI 4 .cfa: r7 8 +
STACK CFI 8 r11: .cfa -24 + ^ r9: .cfa -28 + ^ r8: .cfa -32 + ^
STACK CFI INIT 7ef0 a8 .cfa: sp 0 + .ra: lr
STACK CFI 7ef2 .cfa: sp 20 + .ra: .cfa -4 + ^ r7: .cfa -8 + ^ r6: .cfa -12 + ^ r5: .cfa -16 + ^ r4: .cfa -20 + ^
STACK CFI 7ef4 .cfa: r7 8 +
STACK CFI 7ef8 r11: .cfa -24 + ^
STACK CFI INIT 0 bc .cfa: sp 0 + .ra: lr
STACK CFI 2 .cfa: sp 16 + .ra: .cfa -4 + ^ r7: .cfa -8 + ^ r5: .cfa -12 + ^ r4: .cfa -16 + ^
STACK CFI 4 .cfa: r7 8 +
STACK CFI INIT 7f98 1c .cfa: sp 0 + .ra: lr
STACK CFI 7f9a .cfa: sp 16 + .ra: .cfa -4 + ^ r7: .cfa -8 + ^ r5: .cfa -12 + ^ r4: .cfa -16 + ^
STACK CFI 7f9c .cfa: r7 8 +
STACK CFI INIT 7fb4 78 .cfa: sp 0 + .ra: lr
STACK CFI 7fb6 .cfa: sp 20 + .ra: .cfa -4 + ^ r7: .cfa -8 + ^ r6: .cfa -12 + ^ r5: .cfa -16 + ^ r4: .cfa -20 + ^
STACK CFI 7fb8 .cfa: r7 8 +
STACK CFI 7fbc r11: .cfa -24 + ^
STACK CFI INIT 802c f8 .cfa: sp 0 + .ra: lr
STACK CFI 802e .cfa: sp 20 + .ra: .cfa -4 + ^ r7: .cfa -8 + ^ r6: .cfa -12 + ^ r5: .cfa -16 + ^ r4: .cfa -20 + ^
STACK CFI 8030 .cfa: r7 8 +
STACK CFI 8034 r11: .cfa -24 + ^ r10: .cfa -28 + ^ r9: .cfa -32 + ^ r8: .cfa -36 + ^
STACK CFI INIT 8124 130 .cfa: sp 0 + .ra: lr
STACK CFI 8126 .cfa: sp 20 + .ra: .cfa -4 + ^ r7: .cfa -8 + ^ r6: .cfa -12 + ^ r5: .cfa -16 + ^ r4: .cfa -20 + ^
STACK CFI 8128 .cfa: r7 8 +
STACK CFI 812c r11: .cfa -24 + ^ r10: .cfa -28 + ^ r9: .cfa -32 + ^ r8: .cfa -36 + ^
STACK CFI INIT 8260 770 .cfa: sp 0 + .ra: lr
STACK CFI 8262 .cfa: sp 20 + .ra: .cfa -4 + ^ r7: .cfa -8 + ^ r6: .cfa -12 + ^ r5: .cfa -16 + ^ r4: .cfa -20 + ^
STACK CFI 8264 .cfa: r7 8 +
STACK CFI 8268 r11: .cfa -24 + ^ r10: .cfa -28 + ^ r9: .cfa -32 + ^ r8: .cfa -36 + ^
STACK CFI INIT 89d0 bc .cfa: sp 0 + .ra: lr
STACK CFI 89d2 .cfa: sp 20 + .ra: .cfa -4 + ^ r7: .cfa -8 + ^ r6: .cfa -12 + ^ r5: .cfa -16 + ^ r4: .cfa -20 + ^
STACK CFI 89d4 .cfa: r7 8 +
STACK CFI 89d8 r11: .cfa -24 + ^
STACK CFI INIT 8a90 130 .cfa: sp 0 + .ra: lr
STACK CFI 8a92 .cfa: sp 20 + .ra: .cfa -4 + ^ r7: .cfa -8 + ^ r6: .cfa -12 + ^ r5: .cfa -16 + ^ r4: .cfa -20 + ^
STACK CFI 8a94 .cfa: r7 8 +
STACK CFI 8a98 r11: .cfa -24 + ^ r9: .cfa -28 + ^ r8: .cfa -32 + ^
STACK CFI INIT 8bc0 10 .cfa: sp 0 + .ra: lr
STACK CFI 8bca .cfa: sp 8 + .ra: .cfa -4 + ^ r7: .cfa -8 + ^
STACK CFI 8bcc .cfa: r7 8 +
STACK CFI INIT 8bd0 c .cfa: sp 0 + .ra: lr
STACK CFI 8bd2 .cfa: sp 8 + .ra: .cfa -4 + ^ r7: .cfa -8 + ^
STACK CFI 8bd4 .cfa: r7 8 +
STACK CFI INIT 8bdc 2c .cfa: sp 0 + .ra: lr
STACK CFI 8bde .cfa: sp 16 + .ra: .cfa -4 + ^ r7: .cfa -8 + ^ r5: .cfa -12 + ^ r4: .cfa -16 + ^
STACK CFI 8be0 .cfa: r7 8 +
STACK CFI INIT 8c08 28 .cfa: sp 0 + .ra: lr
STACK CFI 8c0a .cfa: sp 16 + .ra: .cfa -4 + ^ r7: .cfa -8 + ^ r6: .cfa -12 + ^ r4: .cfa -16 + ^
STACK CFI 8c0c .cfa: r7 8 +
STACK CFI INIT 8c30 14 .cfa: sp 0 + .ra: lr
STACK CFI 8c32 .cfa: sp 8 + .ra: .cfa -4 + ^ r7: .cfa -8 + ^
STACK CFI 8c34 .cfa: r7 8 +
STACK CFI INIT 8c44 6c .cfa: sp 0 + .ra: lr
STACK CFI 8c46 .cfa: sp 16 + .ra: .cfa -4 + ^ r7: .cfa -8 + ^ r5: .cfa -12 + ^ r4: .cfa -16 + ^
STACK CFI 8c48 .cfa: r7 8 +
STACK CFI INIT 8cb0 64 .cfa: sp 0 + .ra: lr
STACK CFI 8cb2 .cfa: sp 16 + .ra: .cfa -4 + ^ r7: .cfa -8 + ^ r6: .cfa -12 + ^ r4: .cfa -16 + ^
STACK CFI 8cb4 .cfa: r7 8 +
STACK CFI INIT 8d14 28 .cfa: sp 0 + .ra: lr
STACK CFI 8d16 .cfa: sp 16 + .ra: .cfa -4 + ^ r7: .cfa -8 + ^ r6: .cfa -12 + ^ r4: .cfa -16 + ^
STACK CFI 8d18 .cfa: r7 8 +
STACK CFI INIT 8d3c 88 .cfa: sp 0 + .ra: lr
STACK CFI 8d3e .cfa: sp 20 + .ra: .cfa -4 + ^ r7: .cfa -8 + ^ r6: .cfa -12 + ^ r5: .cfa -16 + ^ r4: .cfa -20 + ^
STACK CFI 8d40 .cfa: r7 8 +
STACK CFI 8d44 r8: .cfa -24 + ^
STACK CFI INIT 8dc4 9c .cfa: sp 0 + .ra: lr
STACK CFI 8dc6 .cfa: sp 20 + .ra: .cfa -4 + ^ r7: .cfa -8 + ^ r6: .cfa -12 + ^ r5: .cfa -16 + ^ r4: .cfa -20 + ^
STACK CFI 8dc8 .cfa: r7 8 +
STACK CFI 8dcc r11: .cfa -24 + ^ r10: .cfa -28 + ^ r9: .cfa -32 + ^ r8: .cfa -36 + ^
STACK CFI INIT 8e60 a2 .cfa: sp 0 + .ra: lr
STACK CFI 8e62 .cfa: sp 20 + .ra: .cfa -4 + ^ r7: .cfa -8 + ^ r6: .cfa -12 + ^ r5: .cfa -16 + ^ r4: .cfa -20 + ^
STACK CFI 8e64 .cfa: r7 8 +
STACK CFI 8e68 r11: .cfa -24 + ^ r10: .cfa -28 + ^ r9: .cfa -32 + ^ r8: .cfa -36 + ^
STACK CFI INIT 8f02 20 .cfa: sp 0 + .ra: lr
STACK CFI 8f04 .cfa: sp 16 + .ra: .cfa -4 + ^ r7: .cfa -8 + ^ r6: .cfa -12 + ^ r4: .cfa -16 + ^
STACK CFI 8f06 .cfa: r7 8 +
STACK CFI INIT 8f22 20 .cfa: sp 0 + .ra: lr
STACK CFI 8f2a .cfa: sp 16 + .ra: .cfa -4 + ^ r7: .cfa -8 + ^ r6: .cfa -12 + ^ r4: .cfa -16 + ^
STACK CFI 8f2c .cfa: r7 8 +
STACK CFI INIT 8f42 9e .cfa: sp 0 + .ra: lr
STACK CFI 8f44 .cfa: sp 20 + .ra: .cfa -4 + ^ r7: .cfa -8 + ^ r6: .cfa -12 + ^ r5: .cfa -16 + ^ r4: .cfa -20 + ^
STACK CFI 8f46 .cfa: r7 8 +
STACK CFI 8f4a r11: .cfa -24 + ^ r10: .cfa -28 + ^ r9: .cfa -32 + ^ r8: .cfa -36 + ^
STACK CFI INIT 8fe0 a2 .cfa: sp 0 + .ra: lr
STACK CFI 8fe2 .cfa: sp 20 + .ra: .cfa -4 + ^ r7: .cfa -8 + ^ r6: .cfa -12 + ^ r5: .cfa -16 + ^ r4: .cfa -20 + ^
STACK CFI 8fe4 .cfa: r7 8 +
STACK CFI 8fe8 r11: .cfa -24 + ^ r10: .cfa -28 + ^ r9: .cfa -32 + ^ r8: .cfa -36 + ^
STACK CFI INIT 9084 10 .cfa: sp 0 + .ra: lr
STACK CFI 9086 .cfa: sp 8 + .ra: .cfa -4 + ^ r7: .cfa -8 + ^
STACK CFI 9088 .cfa: r7 8 +
STACK CFI INIT 9094 38 .cfa: sp 0 + .ra: lr
STACK CFI 9096 .cfa: sp 16 + .ra: .cfa -4 + ^ r7: .cfa -8 + ^ r5: .cfa -12 + ^ r4: .cfa -16 + ^
STACK CFI 9098 .cfa: r7 8 +
STACK CFI INIT 90cc 18 .cfa: sp 0 + .ra: lr
STACK CFI 90ce .cfa: sp 8 + .ra: .cfa -4 + ^ r7: .cfa -8 + ^
STACK CFI 90d0 .cfa: r7 8 +
STACK CFI INIT 90e4 10 .cfa: sp 0 + .ra: lr
STACK CFI 90e6 .cfa: sp 8 + .ra: .cfa -4 + ^ r7: .cfa -8 + ^
STACK CFI 90e8 .cfa: r7 8 +
STACK CFI INIT 90f4 1c .cfa: sp 0 + .ra: lr
STACK CFI 90fc .cfa: sp 16 + .ra: .cfa -4 + ^ r7: .cfa -8 + ^ r6: .cfa -12 + ^ r4: .cfa -16 + ^
STACK CFI 90fe .cfa: r7 8 +
STACK CFI INIT 9110 e .cfa: sp 0 + .ra: lr
STACK CFI 9112 .cfa: sp 8 + .ra: .cfa -4 + ^ r7: .cfa -8 + ^
STACK CFI 9114 .cfa: r7 8 +
STACK CFI INIT 0 c .cfa: sp 0 + .ra: lr
STACK CFI 2 .cfa: sp 8 + .ra: .cfa -4 + ^ r7: .cfa -8 + ^
STACK CFI 4 .cfa: r7 8 +
STACK CFI INIT 911e e .cfa: sp 0 + .ra: lr
STACK CFI 9120 .cfa: sp 8 + .ra: .cfa -4 + ^ r7: .cfa -8 + ^
STACK CFI 9122 .cfa: r7 8 +
STACK CFI INIT 912c 34 .cfa: sp 0 + .ra: lr
STACK CFI 912e .cfa: sp 8 + .ra: .cfa -4 + ^ r7: .cfa -8 + ^
STACK CFI 9130 .cfa: r7 8 +
STACK CFI INIT 9160 94 .cfa: sp 0 + .ra: lr
STACK CFI 9162 .cfa: sp 20 + .ra: .cfa -4 + ^ r7: .cfa -8 + ^ r6: .cfa -12 + ^ r5: .cfa -16 + ^ r4: .cfa -20 + ^
STACK CFI 9164 .cfa: r7 8 +
STACK CFI 9168 r8: .cfa -24 + ^
STACK CFI INIT 91f4 5a .cfa: sp 0 + .ra: lr
STACK CFI 91f6 .cfa: sp 20 + .ra: .cfa -4 + ^ r7: .cfa -8 + ^ r6: .cfa -12 + ^ r5: .cfa -16 + ^ r4: .cfa -20 + ^
STACK CFI 91f8 .cfa: r7 8 +
STACK CFI 91fc r8: .cfa -24 + ^
STACK CFI INIT 9250 1c .cfa: sp 0 + .ra: lr
STACK CFI 9252 .cfa: sp 8 + .ra: .cfa -4 + ^ r7: .cfa -8 + ^
STACK CFI 9254 .cfa: r7 8 +
STACK CFI INIT 926c 14 .cfa: sp 0 + .ra: lr
STACK CFI 926e .cfa: sp 8 + .ra: .cfa -4 + ^ r7: .cfa -8 + ^
STACK CFI 9270 .cfa: r7 8 +
STACK CFI INIT 0 c .cfa: sp 0 + .ra: lr
STACK CFI 2 .cfa: sp 8 + .ra: .cfa -4 + ^ r7: .cfa -8 + ^
STACK CFI 4 .cfa: r7 8 +
STACK CFI INIT 9280 e .cfa: sp 0 + .ra: lr
STACK CFI 9282 .cfa: sp 8 + .ra: .cfa -4 + ^ r7: .cfa -8 + ^
STACK CFI 9284 .cfa: r7 8 +
STACK CFI INIT 9290 64 .cfa: sp 0 + .ra: lr
STACK CFI 9292 .cfa: sp 20 + .ra: .cfa -4 + ^ r7: .cfa -8 + ^ r6: .cfa -12 + ^ r5: .cfa -16 + ^ r4: .cfa -20 + ^
STACK CFI 9294 .cfa: r7 8 +
STACK CFI 9298 r11: .cfa -24 + ^
STACK CFI INIT 92f4 12 .cfa: sp 0 + .ra: lr
STACK CFI 92f6 .cfa: sp 16 + .ra: .cfa -4 + ^ r7: .cfa -8 + ^ r6: .cfa -12 + ^ r4: .cfa -16 + ^
STACK CFI 92f8 .cfa: r7 8 +
STACK CFI INIT 9308 1c .cfa: sp 0 + .ra: lr
STACK CFI 930a .cfa: sp 8 + .ra: .cfa -4 + ^ r7: .cfa -8 + ^
STACK CFI 930c .cfa: r7 8 +
STACK CFI INIT 9324 e .cfa: sp 0 + .ra: lr
STACK CFI 9326 .cfa: sp 8 + .ra: .cfa -4 + ^ r7: .cfa -8 + ^
STACK CFI 9328 .cfa: r7 8 +
STACK CFI INIT 9332 14 .cfa: sp 0 + .ra: lr
STACK CFI 9334 .cfa: sp 8 + .ra: .cfa -4 + ^ r7: .cfa -8 + ^
STACK CFI 9336 .cfa: r7 8 +
STACK CFI INIT 9346 e .cfa: sp 0 + .ra: lr
STACK CFI 9348 .cfa: sp 8 + .ra: .cfa -4 + ^ r7: .cfa -8 + ^
STACK CFI 934a .cfa: r7 8 +
STACK CFI INIT 9354 38 .cfa: sp 0 + .ra: lr
STACK CFI 9356 .cfa: sp 16 + .ra: .cfa -4 + ^ r7: .cfa -8 + ^ r6: .cfa -12 + ^ r4: .cfa -16 + ^
STACK CFI 9358 .cfa: r7 8 +
STACK CFI INIT 938c 64 .cfa: sp 0 + .ra: lr
STACK CFI 938e .cfa: sp 20 + .ra: .cfa -4 + ^ r7: .cfa -8 + ^ r6: .cfa -12 + ^ r5: .cfa -16 + ^ r4: .cfa -20 + ^
STACK CFI 9390 .cfa: r7 8 +
STACK CFI 9394 r11: .cfa -24 + ^
STACK CFI INIT 93f0 1c .cfa: sp 0 + .ra: lr
STACK CFI 93f2 .cfa: sp 16 + .ra: .cfa -4 + ^ r7: .cfa -8 + ^ r6: .cfa -12 + ^ r4: .cfa -16 + ^
STACK CFI 93f4 .cfa: r7 8 +
STACK CFI INIT 940c 30 .cfa: sp 0 + .ra: lr
STACK CFI 940e .cfa: sp 16 + .ra: .cfa -4 + ^ r7: .cfa -8 + ^ r5: .cfa -12 + ^ r4: .cfa -16 + ^
STACK CFI 9410 .cfa: r7 8 +
STACK CFI INIT 943c 34 .cfa: sp 0 + .ra: lr
STACK CFI 943e .cfa: sp 16 + .ra: .cfa -4 + ^ r7: .cfa -8 + ^ r6: .cfa -12 + ^ r4: .cfa -16 + ^
STACK CFI 9440 .cfa: r7 8 +
STACK CFI INIT 9470 e .cfa: sp 0 + .ra: lr
STACK CFI 9472 .cfa: sp 8 + .ra: .cfa -4 + ^ r7: .cfa -8 + ^
STACK CFI 9474 .cfa: r7 8 +
STACK CFI INIT 9480 38 .cfa: sp 0 + .ra: lr
STACK CFI 9482 .cfa: sp 16 + .ra: .cfa -4 + ^ r7: .cfa -8 + ^ r6: .cfa -12 + ^ r4: .cfa -16 + ^
STACK CFI 9484 .cfa: r7 8 +
STACK CFI INIT 94b8 94 .cfa: sp 0 + .ra: lr
STACK CFI 94ba .cfa: sp 20 + .ra: .cfa -4 + ^ r7: .cfa -8 + ^ r6: .cfa -12 + ^ r5: .cfa -16 + ^ r4: .cfa -20 + ^
STACK CFI 94bc .cfa: r7 8 +
STACK CFI 94c0 r8: .cfa -24 + ^
STACK CFI INIT 954c 4c .cfa: sp 0 + .ra: lr
STACK CFI 954e .cfa: sp 20 + .ra: .cfa -4 + ^ r7: .cfa -8 + ^ r6: .cfa -12 + ^ r5: .cfa -16 + ^ r4: .cfa -20 + ^
STACK CFI 9550 .cfa: r7 8 +
STACK CFI 9554 r11: .cfa -24 + ^
STACK CFI INIT 9598 48 .cfa: sp 0 + .ra: lr
STACK CFI 959a .cfa: sp 16 + .ra: .cfa -4 + ^ r7: .cfa -8 + ^ r6: .cfa -12 + ^ r4: .cfa -16 + ^
STACK CFI 959c .cfa: r7 8 +
STACK CFI INIT 95e0 12 .cfa: sp 0 + .ra: lr
STACK CFI 95e2 .cfa: sp 16 + .ra: .cfa -4 + ^ r7: .cfa -8 + ^ r6: .cfa -12 + ^ r4: .cfa -16 + ^
STACK CFI 95e4 .cfa: r7 8 +
STACK CFI INIT 0 c .cfa: sp 0 + .ra: lr
STACK CFI 2 .cfa: sp 8 + .ra: .cfa -4 + ^ r7: .cfa -8 + ^
STACK CFI 4 .cfa: r7 8 +
STACK CFI INIT 95f2 12 .cfa: sp 0 + .ra: lr
STACK CFI 95f4 .cfa: sp 16 + .ra: .cfa -4 + ^ r7: .cfa -8 + ^ r6: .cfa -12 + ^ r4: .cfa -16 + ^
STACK CFI 95f6 .cfa: r7 8 +
STACK CFI INIT 0 c .cfa: sp 0 + .ra: lr
STACK CFI 2 .cfa: sp 8 + .ra: .cfa -4 + ^ r7: .cfa -8 + ^
STACK CFI 4 .cfa: r7 8 +
STACK CFI INIT 9604 10 .cfa: sp 0 + .ra: lr
STACK CFI 9606 .cfa: sp 8 + .ra: .cfa -4 + ^ r7: .cfa -8 + ^
STACK CFI 9608 .cfa: r7 8 +
STACK CFI INIT 9614 f8 .cfa: sp 0 + .ra: lr
STACK CFI 9616 .cfa: sp 16 + .ra: .cfa -4 + ^ r7: .cfa -8 + ^ r5: .cfa -12 + ^ r4: .cfa -16 + ^
STACK CFI 9618 .cfa: r7 8 +
STACK CFI INIT 970c 40 .cfa: sp 0 + .ra: lr
STACK CFI 970e .cfa: sp 8 + .ra: .cfa -4 + ^ r7: .cfa -8 + ^
STACK CFI 9710 .cfa: r7 8 +
STACK CFI INIT 974c 68 .cfa: sp 0 + .ra: lr
STACK CFI 974e .cfa: sp 16 + .ra: .cfa -4 + ^ r7: .cfa -8 + ^ r5: .cfa -12 + ^ r4: .cfa -16 + ^
STACK CFI 9750 .cfa: r7 8 +
STACK CFI INIT 97b4 c .cfa: sp 0 + .ra: lr
STACK CFI 97b6 .cfa: sp 8 + .ra: .cfa -4 + ^ r7: .cfa -8 + ^
STACK CFI 97b8 .cfa: r7 8 +
STACK CFI INIT 97c0 16 .cfa: sp 0 + .ra: lr
STACK CFI 97c2 .cfa: sp 16 + .ra: .cfa -4 + ^ r7: .cfa -8 + ^ r6: .cfa -12 + ^ r4: .cfa -16 + ^
STACK CFI 97c4 .cfa: r7 8 +
STACK CFI INIT 97d6 e .cfa: sp 0 + .ra: lr
STACK CFI 97d8 .cfa: sp 8 + .ra: .cfa -4 + ^ r7: .cfa -8 + ^
STACK CFI 97da .cfa: r7 8 +
STACK CFI INIT 97e4 58 .cfa: sp 0 + .ra: lr
STACK CFI 97e6 .cfa: sp 20 + .ra: .cfa -4 + ^ r7: .cfa -8 + ^ r6: .cfa -12 + ^ r5: .cfa -16 + ^ r4: .cfa -20 + ^
STACK CFI 97e8 .cfa: r7 8 +
STACK CFI 97ec r11: .cfa -24 + ^
STACK CFI INIT 983c 74 .cfa: sp 0 + .ra: lr
STACK CFI 983e .cfa: sp 16 + .ra: .cfa -4 + ^ r7: .cfa -8 + ^ r5: .cfa -12 + ^ r4: .cfa -16 + ^
STACK CFI 9840 .cfa: r7 8 +
STACK CFI INIT 98b0 60 .cfa: sp 0 + .ra: lr
STACK CFI 98b2 .cfa: sp 20 + .ra: .cfa -4 + ^ r7: .cfa -8 + ^ r6: .cfa -12 + ^ r5: .cfa -16 + ^ r4: .cfa -20 + ^
STACK CFI 98b4 .cfa: r7 8 +
STACK CFI 98b8 r11: .cfa -24 + ^
STACK CFI INIT 9910 66 .cfa: sp 0 + .ra: lr
STACK CFI 9912 .cfa: sp 20 + .ra: .cfa -4 + ^ r7: .cfa -8 + ^ r6: .cfa -12 + ^ r5: .cfa -16 + ^ r4: .cfa -20 + ^
STACK CFI 9914 .cfa: r7 8 +
STACK CFI 9918 r11: .cfa -24 + ^ r9: .cfa -28 + ^ r8: .cfa -32 + ^
STACK CFI INIT 9976 66 .cfa: sp 0 + .ra: lr
STACK CFI 9978 .cfa: sp 20 + .ra: .cfa -4 + ^ r7: .cfa -8 + ^ r6: .cfa -12 + ^ r5: .cfa -16 + ^ r4: .cfa -20 + ^
STACK CFI 997a .cfa: r7 8 +
STACK CFI 997e r11: .cfa -24 + ^ r9: .cfa -28 + ^ r8: .cfa -32 + ^
STACK CFI INIT 99dc 2a .cfa: sp 0 + .ra: lr
STACK CFI 99de .cfa: sp 16 + .ra: .cfa -4 + ^ r7: .cfa -8 + ^ r5: .cfa -12 + ^ r4: .cfa -16 + ^
STACK CFI 99e0 .cfa: r7 8 +
STACK CFI INIT 9a06 a2 .cfa: sp 0 + .ra: lr
STACK CFI 9a08 .cfa: sp 20 + .ra: .cfa -4 + ^ r7: .cfa -8 + ^ r6: .cfa -12 + ^ r5: .cfa -16 + ^ r4: .cfa -20 + ^
STACK CFI 9a0a .cfa: r7 8 +
STACK CFI 9a0e r11: .cfa -24 + ^
STACK CFI INIT 9aa8 60 .cfa: sp 0 + .ra: lr
STACK CFI 9aaa .cfa: sp 20 + .ra: .cfa -4 + ^ r7: .cfa -8 + ^ r6: .cfa -12 + ^ r5: .cfa -16 + ^ r4: .cfa -20 + ^
STACK CFI 9aac .cfa: r7 8 +
STACK CFI 9ab0 r11: .cfa -24 + ^
STACK CFI INIT 9b08 70 .cfa: sp 0 + .ra: lr
STACK CFI 9b0a .cfa: sp 20 + .ra: .cfa -4 + ^ r7: .cfa -8 + ^ r6: .cfa -12 + ^ r5: .cfa -16 + ^ r4: .cfa -20 + ^
STACK CFI 9b0c .cfa: r7 8 +
STACK CFI 9b10 r11: .cfa -24 + ^
STACK CFI INIT 9b78 a .cfa: sp 0 + .ra: lr
STACK CFI 9b7a .cfa: sp 8 + .ra: .cfa -4 + ^ r7: .cfa -8 + ^
STACK CFI 9b7c .cfa: r7 8 +
STACK CFI INIT 9b82 52 .cfa: sp 0 + .ra: lr
STACK CFI 9b84 .cfa: sp 20 + .ra: .cfa -4 + ^ r7: .cfa -8 + ^ r6: .cfa -12 + ^ r5: .cfa -16 + ^ r4: .cfa -20 + ^
STACK CFI 9b86 .cfa: r7 8 +
STACK CFI 9b8a r11: .cfa -24 + ^
STACK CFI INIT 9bd4 46 .cfa: sp 0 + .ra: lr
STACK CFI 9be2 .cfa: sp 16 + .ra: .cfa -4 + ^ r7: .cfa -8 + ^ r6: .cfa -12 + ^ r4: .cfa -16 + ^
STACK CFI 9be4 .cfa: r7 8 +
STACK CFI INIT 9c1a 62 .cfa: sp 0 + .ra: lr
STACK CFI 9c1c .cfa: sp 16 + .ra: .cfa -4 + ^ r7: .cfa -8 + ^ r6: .cfa -12 + ^ r4: .cfa -16 + ^
STACK CFI 9c1e .cfa: r7 8 +
STACK CFI INIT 9c7c 30 .cfa: sp 0 + .ra: lr
STACK CFI 9c7e .cfa: sp 16 + .ra: .cfa -4 + ^ r7: .cfa -8 + ^ r6: .cfa -12 + ^ r4: .cfa -16 + ^
STACK CFI 9c80 .cfa: r7 8 +
STACK CFI INIT 9cac 118 .cfa: sp 0 + .ra: lr
STACK CFI 9cae .cfa: sp 20 + .ra: .cfa -4 + ^ r7: .cfa -8 + ^ r6: .cfa -12 + ^ r5: .cfa -16 + ^ r4: .cfa -20 + ^
STACK CFI 9cb0 .cfa: r7 8 +
STACK CFI 9cb4 r8: .cfa -24 + ^
STACK CFI INIT 0 c .cfa: sp 0 + .ra: lr
STACK CFI 2 .cfa: sp 8 + .ra: .cfa -4 + ^ r7: .cfa -8 + ^
STACK CFI 4 .cfa: r7 8 +
STACK CFI INIT 9dc4 14 .cfa: sp 0 + .ra: lr
STACK CFI 9dc6 .cfa: sp 8 + .ra: .cfa -4 + ^ r7: .cfa -8 + ^
STACK CFI 9dc8 .cfa: r7 8 +
STACK CFI INIT 9dd8 14 .cfa: sp 0 + .ra: lr
STACK CFI 9de4 .cfa: sp 8 + .ra: .cfa -4 + ^ r7: .cfa -8 + ^
STACK CFI 9de6 .cfa: r7 8 +
STACK CFI INIT 9dec 34 .cfa: sp 0 + .ra: lr
STACK CFI 9dee .cfa: sp 16 + .ra: .cfa -4 + ^ r7: .cfa -8 + ^ r5: .cfa -12 + ^ r4: .cfa -16 + ^
STACK CFI 9df0 .cfa: r7 8 +
STACK CFI INIT 9e20 14 .cfa: sp 0 + .ra: lr
STACK CFI 9e2c .cfa: sp 8 + .ra: .cfa -4 + ^ r7: .cfa -8 + ^
STACK CFI 9e2e .cfa: r7 8 +
STACK CFI INIT 9e34 34 .cfa: sp 0 + .ra: lr
STACK CFI 9e36 .cfa: sp 16 + .ra: .cfa -4 + ^ r7: .cfa -8 + ^ r5: .cfa -12 + ^ r4: .cfa -16 + ^
STACK CFI 9e38 .cfa: r7 8 +
STACK CFI INIT 9e68 46 .cfa: sp 0 + .ra: lr
STACK CFI 9e76 .cfa: sp 16 + .ra: .cfa -4 + ^ r7: .cfa -8 + ^ r6: .cfa -12 + ^ r4: .cfa -16 + ^
STACK CFI 9e78 .cfa: r7 8 +
STACK CFI INIT 9eae 56 .cfa: sp 0 + .ra: lr
STACK CFI 9eb0 .cfa: sp 16 + .ra: .cfa -4 + ^ r7: .cfa -8 + ^ r5: .cfa -12 + ^ r4: .cfa -16 + ^
STACK CFI 9eb2 .cfa: r7 8 +
STACK CFI INIT 9f04 38 .cfa: sp 0 + .ra: lr
STACK CFI 9f06 .cfa: sp 16 + .ra: .cfa -4 + ^ r7: .cfa -8 + ^ r5: .cfa -12 + ^ r4: .cfa -16 + ^
STACK CFI 9f08 .cfa: r7 8 +
STACK CFI INIT 9f3c 40 .cfa: sp 0 + .ra: lr
STACK CFI 9f3e .cfa: sp 16 + .ra: .cfa -4 + ^ r7: .cfa -8 + ^ r5: .cfa -12 + ^ r4: .cfa -16 + ^
STACK CFI 9f40 .cfa: r7 8 +
STACK CFI INIT 9f7c 12 .cfa: sp 0 + .ra: lr
STACK CFI 9f7e .cfa: sp 8 + .ra: .cfa -4 + ^ r7: .cfa -8 + ^
STACK CFI 9f80 .cfa: r7 8 +
STACK CFI INIT 9f8e e .cfa: sp 0 + .ra: lr
STACK CFI 9f90 .cfa: sp 8 + .ra: .cfa -4 + ^ r7: .cfa -8 + ^
STACK CFI 9f92 .cfa: r7 8 +
STACK CFI INIT 9f9c b0 .cfa: sp 0 + .ra: lr
STACK CFI 9f9e .cfa: sp 20 + .ra: .cfa -4 + ^ r7: .cfa -8 + ^ r6: .cfa -12 + ^ r5: .cfa -16 + ^ r4: .cfa -20 + ^
STACK CFI 9fa0 .cfa: r7 8 +
STACK CFI 9fa4 r10: .cfa -24 + ^ r9: .cfa -28 + ^ r8: .cfa -32 + ^
STACK CFI INIT a04c 10 .cfa: sp 0 + .ra: lr
STACK CFI a04e .cfa: sp 8 + .ra: .cfa -4 + ^ r7: .cfa -8 + ^
STACK CFI a050 .cfa: r7 8 +
STACK CFI INIT a05c 48 .cfa: sp 0 + .ra: lr
STACK CFI a068 .cfa: sp 16 + .ra: .cfa -4 + ^ r7: .cfa -8 + ^ r6: .cfa -12 + ^ r4: .cfa -16 + ^
STACK CFI a06a .cfa: r7 8 +
STACK CFI INIT a0a4 40 .cfa: sp 0 + .ra: lr
STACK CFI a0a6 .cfa: sp 8 + .ra: .cfa -4 + ^ r7: .cfa -8 + ^
STACK CFI a0a8 .cfa: r7 8 +
STACK CFI INIT a0e4 10 .cfa: sp 0 + .ra: lr
STACK CFI a0e6 .cfa: sp 8 + .ra: .cfa -4 + ^ r7: .cfa -8 + ^
STACK CFI a0e8 .cfa: r7 8 +
STACK CFI INIT a0f4 40 .cfa: sp 0 + .ra: lr
STACK CFI a100 .cfa: sp 16 + .ra: .cfa -4 + ^ r7: .cfa -8 + ^ r6: .cfa -12 + ^ r4: .cfa -16 + ^
STACK CFI a102 .cfa: r7 8 +
STACK CFI INIT a134 24 .cfa: sp 0 + .ra: lr
STACK CFI a136 .cfa: sp 8 + .ra: .cfa -4 + ^ r7: .cfa -8 + ^
STACK CFI a138 .cfa: r7 8 +
STACK CFI INIT a158 40 .cfa: sp 0 + .ra: lr
STACK CFI a15a .cfa: sp 8 + .ra: .cfa -4 + ^ r7: .cfa -8 + ^
STACK CFI a15c .cfa: r7 8 +
STACK CFI INIT a198 12 .cfa: sp 0 + .ra: lr
STACK CFI a19a .cfa: sp 8 + .ra: .cfa -4 + ^ r7: .cfa -8 + ^
STACK CFI a19c .cfa: r7 8 +
STACK CFI INIT a1aa 12 .cfa: sp 0 + .ra: lr
STACK CFI a1ac .cfa: sp 8 + .ra: .cfa -4 + ^ r7: .cfa -8 + ^
STACK CFI a1ae .cfa: r7 8 +
STACK CFI INIT a1bc b0 .cfa: sp 0 + .ra: lr
STACK CFI a1be .cfa: sp 16 + .ra: .cfa -4 + ^ r7: .cfa -8 + ^ r6: .cfa -12 + ^ r4: .cfa -16 + ^
STACK CFI a1c0 .cfa: r7 8 +
STACK CFI INIT a26c 9c .cfa: sp 0 + .ra: lr
STACK CFI a26e .cfa: sp 20 + .ra: .cfa -4 + ^ r7: .cfa -8 + ^ r6: .cfa -12 + ^ r5: .cfa -16 + ^ r4: .cfa -20 + ^
STACK CFI a270 .cfa: r7 8 +
STACK CFI a274 r11: .cfa -24 + ^
STACK CFI INIT a308 e4 .cfa: sp 0 + .ra: lr
STACK CFI a30a .cfa: sp 20 + .ra: .cfa -4 + ^ r7: .cfa -8 + ^ r6: .cfa -12 + ^ r5: .cfa -16 + ^ r4: .cfa -20 + ^
STACK CFI a30c .cfa: r7 8 +
STACK CFI a310 r11: .cfa -24 + ^ r9: .cfa -28 + ^ r8: .cfa -32 + ^
STACK CFI INIT a3ec 78 .cfa: sp 0 + .ra: lr
STACK CFI a3ee .cfa: sp 20 + .ra: .cfa -4 + ^ r7: .cfa -8 + ^ r6: .cfa -12 + ^ r5: .cfa -16 + ^ r4: .cfa -20 + ^
STACK CFI a3f0 .cfa: r7 8 +
STACK CFI a3f4 r11: .cfa -24 + ^
STACK CFI INIT a464 b8 .cfa: sp 0 + .ra: lr
STACK CFI a466 .cfa: sp 20 + .ra: .cfa -4 + ^ r7: .cfa -8 + ^ r6: .cfa -12 + ^ r5: .cfa -16 + ^ r4: .cfa -20 + ^
STACK CFI a468 .cfa: r7 8 +
STACK CFI a46c r11: .cfa -24 + ^
STACK CFI INIT a51c e4 .cfa: sp 0 + .ra: lr
STACK CFI a51e .cfa: sp 20 + .ra: .cfa -4 + ^ r7: .cfa -8 + ^ r6: .cfa -12 + ^ r5: .cfa -16 + ^ r4: .cfa -20 + ^
STACK CFI a520 .cfa: r7 8 +
STACK CFI a524 r11: .cfa -24 + ^ r10: .cfa -28 + ^ r9: .cfa -32 + ^ r8: .cfa -36 + ^
STACK CFI INIT a600 78 .cfa: sp 0 + .ra: lr
STACK CFI a602 .cfa: sp 20 + .ra: .cfa -4 + ^ r7: .cfa -8 + ^ r6: .cfa -12 + ^ r5: .cfa -16 + ^ r4: .cfa -20 + ^
STACK CFI a604 .cfa: r7 8 +
STACK CFI a608 r11: .cfa -24 + ^
STACK CFI INIT a678 c .cfa: sp 0 + .ra: lr
STACK CFI a67a .cfa: sp 8 + .ra: .cfa -4 + ^ r7: .cfa -8 + ^
STACK CFI a67c .cfa: r7 8 +
STACK CFI INIT a684 16 .cfa: sp 0 + .ra: lr
STACK CFI a686 .cfa: sp 16 + .ra: .cfa -4 + ^ r7: .cfa -8 + ^ r6: .cfa -12 + ^ r4: .cfa -16 + ^
STACK CFI a688 .cfa: r7 8 +
STACK CFI INIT a69c 14 .cfa: sp 0 + .ra: lr
STACK CFI a69e .cfa: sp 8 + .ra: .cfa -4 + ^ r7: .cfa -8 + ^
STACK CFI a6a0 .cfa: r7 8 +
STACK CFI INIT a6b0 44 .cfa: sp 0 + .ra: lr
STACK CFI a6b2 .cfa: sp 20 + .ra: .cfa -4 + ^ r7: .cfa -8 + ^ r6: .cfa -12 + ^ r5: .cfa -16 + ^ r4: .cfa -20 + ^
STACK CFI a6b4 .cfa: r7 8 +
STACK CFI a6b8 r8: .cfa -24 + ^
STACK CFI INIT a6f4 6 .cfa: sp 0 + .ra: lr
STACK CFI a6f6 .cfa: sp 8 + .ra: .cfa -4 + ^ r7: .cfa -8 + ^
STACK CFI a6f8 .cfa: r7 8 +
STACK CFI INIT a6fa 12 .cfa: sp 0 + .ra: lr
STACK CFI a6fc .cfa: sp 8 + .ra: .cfa -4 + ^ r7: .cfa -8 + ^
STACK CFI a6fe .cfa: r7 8 +
STACK CFI INIT a70c 12 .cfa: sp 0 + .ra: lr
STACK CFI a70e .cfa: sp 8 + .ra: .cfa -4 + ^ r7: .cfa -8 + ^
STACK CFI a710 .cfa: r7 8 +
STACK CFI INIT a720 10 .cfa: sp 0 + .ra: lr
STACK CFI a722 .cfa: sp 8 + .ra: .cfa -4 + ^ r7: .cfa -8 + ^
STACK CFI a724 .cfa: r7 8 +
STACK CFI INIT 0 38 .cfa: sp 0 + .ra: lr
STACK CFI 2 .cfa: sp 16 + .ra: .cfa -4 + ^ r7: .cfa -8 + ^ r5: .cfa -12 + ^ r4: .cfa -16 + ^
STACK CFI 4 .cfa: r7 8 +
STACK CFI INIT 0 18 .cfa: sp 0 + .ra: lr
STACK CFI 2 .cfa: sp 8 + .ra: .cfa -4 + ^ r7: .cfa -8 + ^
STACK CFI 4 .cfa: r7 8 +
STACK CFI INIT 0 44 .cfa: sp 0 + .ra: lr
STACK CFI 2 .cfa: sp 20 + .ra: .cfa -4 + ^ r7: .cfa -8 + ^ r6: .cfa -12 + ^ r5: .cfa -16 + ^ r4: .cfa -20 + ^
STACK CFI 4 .cfa: r7 8 +
STACK CFI 8 r8: .cfa -24 + ^
STACK CFI INIT a730 12 .cfa: sp 0 + .ra: lr
STACK CFI a732 .cfa: sp 8 + .ra: .cfa -4 + ^ r7: .cfa -8 + ^
STACK CFI a734 .cfa: r7 8 +
STACK CFI INIT a744 40 .cfa: sp 0 + .ra: lr
STACK CFI a746 .cfa: sp 16 + .ra: .cfa -4 + ^ r7: .cfa -8 + ^ r6: .cfa -12 + ^ r4: .cfa -16 + ^
STACK CFI a748 .cfa: r7 8 +
STACK CFI INIT a784 27c .cfa: sp 0 + .ra: lr
STACK CFI a786 .cfa: sp 20 + .ra: .cfa -4 + ^ r7: .cfa -8 + ^ r6: .cfa -12 + ^ r5: .cfa -16 + ^ r4: .cfa -20 + ^
STACK CFI a788 .cfa: r7 8 +
STACK CFI a78c r11: .cfa -24 + ^ r10: .cfa -28 + ^ r9: .cfa -32 + ^ r8: .cfa -36 + ^
STACK CFI INIT aa00 d8 .cfa: sp 0 + .ra: lr
STACK CFI aa02 .cfa: sp 20 + .ra: .cfa -4 + ^ r7: .cfa -8 + ^ r6: .cfa -12 + ^ r5: .cfa -16 + ^ r4: .cfa -20 + ^
STACK CFI aa04 .cfa: r7 8 +
STACK CFI aa08 r11: .cfa -24 + ^ r10: .cfa -28 + ^ r9: .cfa -32 + ^ r8: .cfa -36 + ^
STACK CFI INIT aad8 d8 .cfa: sp 0 + .ra: lr
STACK CFI aada .cfa: sp 20 + .ra: .cfa -4 + ^ r7: .cfa -8 + ^ r6: .cfa -12 + ^ r5: .cfa -16 + ^ r4: .cfa -20 + ^
STACK CFI aadc .cfa: r7 8 +
STACK CFI aae0 r11: .cfa -24 + ^ r10: .cfa -28 + ^ r9: .cfa -32 + ^ r8: .cfa -36 + ^
STACK CFI INIT abb0 48 .cfa: sp 0 + .ra: lr
STACK CFI abb2 .cfa: sp 16 + .ra: .cfa -4 + ^ r7: .cfa -8 + ^ r6: .cfa -12 + ^ r4: .cfa -16 + ^
STACK CFI abb4 .cfa: r7 8 +
STACK CFI INIT 0 c .cfa: sp 0 + .ra: lr
STACK CFI 2 .cfa: sp 8 + .ra: .cfa -4 + ^ r7: .cfa -8 + ^
STACK CFI 4 .cfa: r7 8 +
STACK CFI INIT abf8 78 .cfa: sp 0 + .ra: lr
STACK CFI abfa .cfa: sp 16 + .ra: .cfa -4 + ^ r7: .cfa -8 + ^ r6: .cfa -12 + ^ r4: .cfa -16 + ^
STACK CFI abfc .cfa: r7 8 +
STACK CFI INIT ac70 6 .cfa: sp 0 + .ra: lr
STACK CFI ac72 .cfa: sp 8 + .ra: .cfa -4 + ^ r7: .cfa -8 + ^
STACK CFI ac74 .cfa: r7 8 +
STACK CFI INIT ac78 2c .cfa: sp 0 + .ra: lr
STACK CFI ac7a .cfa: sp 16 + .ra: .cfa -4 + ^ r7: .cfa -8 + ^ r6: .cfa -12 + ^ r4: .cfa -16 + ^
STACK CFI ac7c .cfa: r7 8 +
STACK CFI INIT aca4 44 .cfa: sp 0 + .ra: lr
STACK CFI aca6 .cfa: sp 16 + .ra: .cfa -4 + ^ r7: .cfa -8 + ^ r6: .cfa -12 + ^ r4: .cfa -16 + ^
STACK CFI aca8 .cfa: r7 8 +
STACK CFI INIT ace8 e .cfa: sp 0 + .ra: lr
STACK CFI acea .cfa: sp 8 + .ra: .cfa -4 + ^ r7: .cfa -8 + ^
STACK CFI acec .cfa: r7 8 +
STACK CFI INIT acf6 e .cfa: sp 0 + .ra: lr
STACK CFI acf8 .cfa: sp 8 + .ra: .cfa -4 + ^ r7: .cfa -8 + ^
STACK CFI acfa .cfa: r7 8 +
STACK CFI INIT ad04 b6 .cfa: sp 0 + .ra: lr
STACK CFI ad06 .cfa: sp 20 + .ra: .cfa -4 + ^ r7: .cfa -8 + ^ r6: .cfa -12 + ^ r5: .cfa -16 + ^ r4: .cfa -20 + ^
STACK CFI ad08 .cfa: r7 8 +
STACK CFI ad0c r11: .cfa -24 + ^
STACK CFI INIT adba 106 .cfa: sp 0 + .ra: lr
STACK CFI adbc .cfa: sp 20 + .ra: .cfa -4 + ^ r7: .cfa -8 + ^ r6: .cfa -12 + ^ r5: .cfa -16 + ^ r4: .cfa -20 + ^
STACK CFI adbe .cfa: r7 8 +
STACK CFI adc2 r11: .cfa -24 + ^ r10: .cfa -28 + ^ r9: .cfa -32 + ^ r8: .cfa -36 + ^
STACK CFI INIT aec0 98 .cfa: sp 0 + .ra: lr
STACK CFI aec2 .cfa: sp 20 + .ra: .cfa -4 + ^ r7: .cfa -8 + ^ r6: .cfa -12 + ^ r5: .cfa -16 + ^ r4: .cfa -20 + ^
STACK CFI aec4 .cfa: r7 8 +
STACK CFI aec8 r11: .cfa -24 + ^ r9: .cfa -28 + ^ r8: .cfa -32 + ^
STACK CFI INIT af58 2c .cfa: sp 0 + .ra: lr
STACK CFI af5a .cfa: sp 16 + .ra: .cfa -4 + ^ r7: .cfa -8 + ^ r6: .cfa -12 + ^ r4: .cfa -16 + ^
STACK CFI af5c .cfa: r7 8 +
STACK CFI INIT af84 30 .cfa: sp 0 + .ra: lr
STACK CFI af86 .cfa: sp 16 + .ra: .cfa -4 + ^ r7: .cfa -8 + ^ r5: .cfa -12 + ^ r4: .cfa -16 + ^
STACK CFI af88 .cfa: r7 8 +
STACK CFI INIT afb4 66 .cfa: sp 0 + .ra: lr
STACK CFI afb6 .cfa: sp 20 + .ra: .cfa -4 + ^ r7: .cfa -8 + ^ r6: .cfa -12 + ^ r5: .cfa -16 + ^ r4: .cfa -20 + ^
STACK CFI afb8 .cfa: r7 8 +
STACK CFI afbc r10: .cfa -24 + ^ r9: .cfa -28 + ^ r8: .cfa -32 + ^
STACK CFI INIT b01a 4e .cfa: sp 0 + .ra: lr
STACK CFI b01c .cfa: sp 20 + .ra: .cfa -4 + ^ r7: .cfa -8 + ^ r6: .cfa -12 + ^ r5: .cfa -16 + ^ r4: .cfa -20 + ^
STACK CFI b01e .cfa: r7 8 +
STACK CFI b022 r8: .cfa -24 + ^
STACK CFI INIT b068 b0 .cfa: sp 0 + .ra: lr
STACK CFI b06a .cfa: sp 20 + .ra: .cfa -4 + ^ r7: .cfa -8 + ^ r6: .cfa -12 + ^ r5: .cfa -16 + ^ r4: .cfa -20 + ^
STACK CFI b06c .cfa: r7 8 +
STACK CFI b070 r11: .cfa -24 + ^ r10: .cfa -28 + ^ r9: .cfa -32 + ^ r8: .cfa -36 + ^
STACK CFI INIT b118 2c .cfa: sp 0 + .ra: lr
STACK CFI b11a .cfa: sp 16 + .ra: .cfa -4 + ^ r7: .cfa -8 + ^ r6: .cfa -12 + ^ r4: .cfa -16 + ^
STACK CFI b11c .cfa: r7 8 +
STACK CFI INIT b144 44 .cfa: sp 0 + .ra: lr
STACK CFI b146 .cfa: sp 16 + .ra: .cfa -4 + ^ r7: .cfa -8 + ^ r6: .cfa -12 + ^ r4: .cfa -16 + ^
STACK CFI b148 .cfa: r7 8 +
STACK CFI INIT b188 e .cfa: sp 0 + .ra: lr
STACK CFI b18a .cfa: sp 8 + .ra: .cfa -4 + ^ r7: .cfa -8 + ^
STACK CFI b18c .cfa: r7 8 +
STACK CFI INIT b196 e .cfa: sp 0 + .ra: lr
STACK CFI b198 .cfa: sp 8 + .ra: .cfa -4 + ^ r7: .cfa -8 + ^
STACK CFI b19a .cfa: r7 8 +
STACK CFI INIT b1a4 b2 .cfa: sp 0 + .ra: lr
STACK CFI b1a6 .cfa: sp 20 + .ra: .cfa -4 + ^ r7: .cfa -8 + ^ r6: .cfa -12 + ^ r5: .cfa -16 + ^ r4: .cfa -20 + ^
STACK CFI b1a8 .cfa: r7 8 +
STACK CFI b1ac r11: .cfa -24 + ^
STACK CFI INIT b256 fe .cfa: sp 0 + .ra: lr
STACK CFI b258 .cfa: sp 20 + .ra: .cfa -4 + ^ r7: .cfa -8 + ^ r6: .cfa -12 + ^ r5: .cfa -16 + ^ r4: .cfa -20 + ^
STACK CFI b25a .cfa: r7 8 +
STACK CFI b25e r11: .cfa -24 + ^ r10: .cfa -28 + ^ r9: .cfa -32 + ^ r8: .cfa -36 + ^
STACK CFI INIT b354 98 .cfa: sp 0 + .ra: lr
STACK CFI b356 .cfa: sp 20 + .ra: .cfa -4 + ^ r7: .cfa -8 + ^ r6: .cfa -12 + ^ r5: .cfa -16 + ^ r4: .cfa -20 + ^
STACK CFI b358 .cfa: r7 8 +
STACK CFI b35c r11: .cfa -24 + ^ r9: .cfa -28 + ^ r8: .cfa -32 + ^
STACK CFI INIT b3ec 2c .cfa: sp 0 + .ra: lr
STACK CFI b3ee .cfa: sp 16 + .ra: .cfa -4 + ^ r7: .cfa -8 + ^ r6: .cfa -12 + ^ r4: .cfa -16 + ^
STACK CFI b3f0 .cfa: r7 8 +
STACK CFI INIT b418 30 .cfa: sp 0 + .ra: lr
STACK CFI b41a .cfa: sp 16 + .ra: .cfa -4 + ^ r7: .cfa -8 + ^ r5: .cfa -12 + ^ r4: .cfa -16 + ^
STACK CFI b41c .cfa: r7 8 +
STACK CFI INIT b448 66 .cfa: sp 0 + .ra: lr
STACK CFI b44a .cfa: sp 20 + .ra: .cfa -4 + ^ r7: .cfa -8 + ^ r6: .cfa -12 + ^ r5: .cfa -16 + ^ r4: .cfa -20 + ^
STACK CFI b44c .cfa: r7 8 +
STACK CFI b450 r10: .cfa -24 + ^ r9: .cfa -28 + ^ r8: .cfa -32 + ^
STACK CFI INIT b4ae 4e .cfa: sp 0 + .ra: lr
STACK CFI b4b0 .cfa: sp 20 + .ra: .cfa -4 + ^ r7: .cfa -8 + ^ r6: .cfa -12 + ^ r5: .cfa -16 + ^ r4: .cfa -20 + ^
STACK CFI b4b2 .cfa: r7 8 +
STACK CFI b4b6 r8: .cfa -24 + ^
STACK CFI INIT b4fc ae .cfa: sp 0 + .ra: lr
STACK CFI b4fe .cfa: sp 20 + .ra: .cfa -4 + ^ r7: .cfa -8 + ^ r6: .cfa -12 + ^ r5: .cfa -16 + ^ r4: .cfa -20 + ^
STACK CFI b500 .cfa: r7 8 +
STACK CFI b504 r11: .cfa -24 + ^ r10: .cfa -28 + ^ r9: .cfa -32 + ^ r8: .cfa -36 + ^
STACK CFI INIT b5ac 30 .cfa: sp 0 + .ra: lr
STACK CFI b5ae .cfa: sp 16 + .ra: .cfa -4 + ^ r7: .cfa -8 + ^ r6: .cfa -12 + ^ r4: .cfa -16 + ^
STACK CFI b5b0 .cfa: r7 8 +
