MODULE Linux arm 4BB33E202DD8D3B1CCBBADE123812DE10 TestMaybe
INFO CODE_ID 203EB34BD82DB1D3CCBBADE123812DE1982F9A72
INFO GENERATOR mozilla/dump_syms 2.3.6
PUBLIC 520 0 _start
PUBLIC 530 0 _start_main
PUBLIC 59c 0 __atexit_handler_wrapper
PUBLIC 5b4 0 atexit
PUBLIC 5e0 0 pthread_atfork
PUBLIC 5fc 0 call_fini_array
FUNC 640 40 0 main
FUNC 680 3c 0 MOZ_ReportAssertionFailure(char const*, char const*, int)
PUBLIC 6c0 0 <.plt ELF section in TestMaybe>
STACK CFI INIT 640 40 .cfa: sp 0 + .ra: lr
STACK CFI 654 .cfa: sp 16 + .ra: .cfa -4 + ^ r7: .cfa -8 + ^ r6: .cfa -12 + ^ r4: .cfa -16 + ^
STACK CFI 656 .cfa: r7 8 +
STACK CFI INIT 680 3c .cfa: sp 0 + .ra: lr
STACK CFI 682 .cfa: sp 20 + .ra: .cfa -4 + ^ r7: .cfa -8 + ^ r6: .cfa -12 + ^ r5: .cfa -16 + ^ r4: .cfa -20 + ^
STACK CFI 684 .cfa: r7 8 +
STACK CFI 688 r11: .cfa -24 + ^
