MODULE Linux arm 59E99672CAD5DDCBA231718BBC1E3CDA0 TestCheckedInt
INFO CODE_ID 7296E959D5CACBDDA231718BBC1E3CDA0C2C61C0
INFO GENERATOR mozilla/dump_syms 2.3.6
PUBLIC 22d8 0 _start
PUBLIC 22e8 0 _start_main
PUBLIC 2354 0 __atexit_handler_wrapper
PUBLIC 236c 0 atexit
PUBLIC 2398 0 pthread_atfork
PUBLIC 23b4 0 call_fini_array
FUNC 23f8 13c 0 verifyImplFunction(bool, bool, char const*, int, int, bool)
FUNC 2534 1e8 0 main
FUNC 271c 20b4 0 test<signed char>()
FUNC 47d0 1c8c 0 test<unsigned char>()
FUNC 645c 20b0 0 test<short>()
FUNC 850c 1c7c 0 test<unsigned short>()
FUNC a188 1f10 0 test<int>()
FUNC c098 1adc 0 test<unsigned int>()
FUNC db74 1e80 0 test<long long>()
FUNC f9f4 1a4c 0 test<unsigned long long>()
FUNC 11440 1c8c 0 test<char>()
FUNC 130cc 1f10 0 test<long>()
FUNC 14fdc 1adc 0 test<unsigned long>()
FUNC 16ab8 f8 0 std::__ndk1::__put_character_sequence[abi:dn210000]<char, std::__ndk1::char_traits<char> >(std::__ndk1::basic_ostream<char, std::__ndk1::char_traits<char> >, std::__ndk1::basic_ostream const*, unsigned int)
FUNC 16bb0 130 0 std::__ndk1::__pad_and_output[abi:dn210000]<char, std::__ndk1::char_traits<char> >(std::__ndk1::char_traits<char>, std::__ndk1::ostreambuf_iterator const*, std::__ndk1::ostreambuf_iterator const, std::__ndk1::ostreambuf_iterator const, std::__ndk1::ios_base&, std::__ndk1::ostreambuf_iterator)
FUNC 16ce0 27c 0 std::__ndk1::DoIOSInit::DoIOSInit()
FUNC 16f5c d8 0 std::__ndk1::stream_data<std::__ndk1::basic_istream<char, std::__ndk1::char_traits<char> >, std::__ndk1::__stdinbuf<char> >::init(__sFILE*)
FUNC 17034 d8 0 std::__ndk1::stream_data<std::__ndk1::basic_istream<wchar_t, std::__ndk1::char_traits<wchar_t> >, std::__ndk1::__stdinbuf<wchar_t> >::init(__sFILE*)
FUNC 1710c 48 0 std::__ndk1::DoIOSInit::~DoIOSInit()
PUBLIC 17155 0 __clang_call_terminate
FUNC 17160 78 0 std::__ndk1::ios_base::Init::Init()
FUNC 171d8 6 0 std::__ndk1::ios_base::Init::~Init()
FUNC 171e0 2c 0 std::__ndk1::__stdinbuf<char>::~__stdinbuf()
FUNC 1720c 44 0 std::__ndk1::__stdinbuf<char>::imbue(std::__ndk1::locale const&)
FUNC 17250 e 0 std::__ndk1::__stdinbuf<char>::underflow()
FUNC 1725e e 0 std::__ndk1::__stdinbuf<char>::uflow()
FUNC 1726c b6 0 std::__ndk1::__stdinbuf<char>::pbackfail(int)
FUNC 17322 106 0 std::__ndk1::__stdinbuf<char>::__getchar(bool)
FUNC 17428 98 0 std::__ndk1::__stdoutbuf<char>::__stdoutbuf(__sFILE*, mbstate_t*)
FUNC 174c0 2c 0 std::__ndk1::__stdoutbuf<char>::~__stdoutbuf()
FUNC 174ec 30 0 std::__ndk1::__stdoutbuf<char>::imbue(std::__ndk1::locale const&)
FUNC 1751c 66 0 std::__ndk1::__stdoutbuf<char>::sync()
FUNC 17582 4e 0 std::__ndk1::__stdoutbuf<char>::xsputn(char const*, int)
FUNC 175d0 b0 0 std::__ndk1::__stdoutbuf<char>::overflow(int)
FUNC 17680 2c 0 std::__ndk1::__stdinbuf<wchar_t>::~__stdinbuf()
FUNC 176ac 44 0 std::__ndk1::__stdinbuf<wchar_t>::imbue(std::__ndk1::locale const&)
FUNC 176f0 e 0 std::__ndk1::__stdinbuf<wchar_t>::underflow()
FUNC 176fe e 0 std::__ndk1::__stdinbuf<wchar_t>::uflow()
FUNC 1770c b2 0 std::__ndk1::__stdinbuf<wchar_t>::pbackfail(unsigned int)
FUNC 177be fe 0 std::__ndk1::__stdinbuf<wchar_t>::__getchar(bool)
FUNC 178bc 98 0 std::__ndk1::__stdoutbuf<wchar_t>::__stdoutbuf(__sFILE*, mbstate_t*)
FUNC 17954 2c 0 std::__ndk1::__stdoutbuf<wchar_t>::~__stdoutbuf()
FUNC 17980 30 0 std::__ndk1::__stdoutbuf<wchar_t>::imbue(std::__ndk1::locale const&)
FUNC 179b0 66 0 std::__ndk1::__stdoutbuf<wchar_t>::sync()
FUNC 17a16 4e 0 std::__ndk1::__stdoutbuf<wchar_t>::xsputn(wchar_t const*, int)
FUNC 17a64 ae 0 std::__ndk1::__stdoutbuf<wchar_t>::overflow(unsigned int)
FUNC 17b14 30 0 _GLOBAL__I_000100
PUBLIC m 17b44 0 __aeabi_memset
PUBLIC m 17b54 0 __aeabi_memclr
PUBLIC 17b61 0 __ThumbV7PILongThunk__ZdlPvj
PUBLIC 17b6d 0 __ThumbV7PILongThunk_fwrite
PUBLIC 17b79 0 __ThumbV7PILongThunk___cxa_atexit
PUBLIC 17b90 0 <.plt ELF section in TestCheckedInt>
STACK CFI INIT 23f8 13c .cfa: sp 0 + .ra: lr
STACK CFI 23fa .cfa: sp 20 + .ra: .cfa -4 + ^ r7: .cfa -8 + ^ r6: .cfa -12 + ^ r5: .cfa -16 + ^ r4: .cfa -20 + ^
STACK CFI 23fc .cfa: r7 8 +
STACK CFI 2400 r10: .cfa -24 + ^ r9: .cfa -28 + ^ r8: .cfa -32 + ^
STACK CFI INIT 2534 1e8 .cfa: sp 0 + .ra: lr
STACK CFI 2536 .cfa: sp 20 + .ra: .cfa -4 + ^ r7: .cfa -8 + ^ r6: .cfa -12 + ^ r5: .cfa -16 + ^ r4: .cfa -20 + ^
STACK CFI 2538 .cfa: r7 8 +
STACK CFI 253c r11: .cfa -24 + ^ r10: .cfa -28 + ^ r9: .cfa -32 + ^ r8: .cfa -36 + ^
STACK CFI INIT 271c 20b4 .cfa: sp 0 + .ra: lr
STACK CFI 2732 .cfa: sp 16 + .ra: .cfa -4 + ^ r7: .cfa -8 + ^ r5: .cfa -12 + ^ r4: .cfa -16 + ^
STACK CFI 2734 .cfa: r7 8 +
STACK CFI INIT 47d0 1c8c .cfa: sp 0 + .ra: lr
STACK CFI 47e6 .cfa: sp 20 + .ra: .cfa -4 + ^ r7: .cfa -8 + ^ r6: .cfa -12 + ^ r5: .cfa -16 + ^ r4: .cfa -20 + ^
STACK CFI 47e8 .cfa: r7 8 +
STACK CFI 47ec r11: .cfa -24 + ^
STACK CFI INIT 645c 20b0 .cfa: sp 0 + .ra: lr
STACK CFI 6472 .cfa: sp 20 + .ra: .cfa -4 + ^ r7: .cfa -8 + ^ r6: .cfa -12 + ^ r5: .cfa -16 + ^ r4: .cfa -20 + ^
STACK CFI 6474 .cfa: r7 8 +
STACK CFI 6478 r11: .cfa -24 + ^
STACK CFI INIT 850c 1c7c .cfa: sp 0 + .ra: lr
STACK CFI 8522 .cfa: sp 20 + .ra: .cfa -4 + ^ r7: .cfa -8 + ^ r6: .cfa -12 + ^ r5: .cfa -16 + ^ r4: .cfa -20 + ^
STACK CFI 8524 .cfa: r7 8 +
STACK CFI 8528 r11: .cfa -24 + ^
STACK CFI INIT a188 1f10 .cfa: sp 0 + .ra: lr
STACK CFI a19e .cfa: sp 20 + .ra: .cfa -4 + ^ r7: .cfa -8 + ^ r6: .cfa -12 + ^ r5: .cfa -16 + ^ r4: .cfa -20 + ^
STACK CFI a1a0 .cfa: r7 8 +
STACK CFI a1a4 r8: .cfa -24 + ^
STACK CFI INIT c098 1adc .cfa: sp 0 + .ra: lr
STACK CFI c0ae .cfa: sp 20 + .ra: .cfa -4 + ^ r7: .cfa -8 + ^ r6: .cfa -12 + ^ r5: .cfa -16 + ^ r4: .cfa -20 + ^
STACK CFI c0b0 .cfa: r7 8 +
STACK CFI c0b4 r8: .cfa -24 + ^
STACK CFI INIT db74 1e80 .cfa: sp 0 + .ra: lr
STACK CFI db8a .cfa: sp 20 + .ra: .cfa -4 + ^ r7: .cfa -8 + ^ r6: .cfa -12 + ^ r5: .cfa -16 + ^ r4: .cfa -20 + ^
STACK CFI db8c .cfa: r7 8 +
STACK CFI db90 r8: .cfa -24 + ^
STACK CFI INIT f9f4 1a4c .cfa: sp 0 + .ra: lr
STACK CFI fa0a .cfa: sp 20 + .ra: .cfa -4 + ^ r7: .cfa -8 + ^ r6: .cfa -12 + ^ r5: .cfa -16 + ^ r4: .cfa -20 + ^
STACK CFI fa0c .cfa: r7 8 +
STACK CFI fa10 r8: .cfa -24 + ^
STACK CFI INIT 11440 1c8c .cfa: sp 0 + .ra: lr
STACK CFI 11456 .cfa: sp 20 + .ra: .cfa -4 + ^ r7: .cfa -8 + ^ r6: .cfa -12 + ^ r5: .cfa -16 + ^ r4: .cfa -20 + ^
STACK CFI 11458 .cfa: r7 8 +
STACK CFI 1145c r11: .cfa -24 + ^
STACK CFI INIT 130cc 1f10 .cfa: sp 0 + .ra: lr
STACK CFI 130e2 .cfa: sp 20 + .ra: .cfa -4 + ^ r7: .cfa -8 + ^ r6: .cfa -12 + ^ r5: .cfa -16 + ^ r4: .cfa -20 + ^
STACK CFI 130e4 .cfa: r7 8 +
STACK CFI 130e8 r8: .cfa -24 + ^
STACK CFI INIT 14fdc 1adc .cfa: sp 0 + .ra: lr
STACK CFI 14ff2 .cfa: sp 20 + .ra: .cfa -4 + ^ r7: .cfa -8 + ^ r6: .cfa -12 + ^ r5: .cfa -16 + ^ r4: .cfa -20 + ^
STACK CFI 14ff4 .cfa: r7 8 +
STACK CFI 14ff8 r8: .cfa -24 + ^
STACK CFI INIT 16ab8 f8 .cfa: sp 0 + .ra: lr
STACK CFI 16aba .cfa: sp 20 + .ra: .cfa -4 + ^ r7: .cfa -8 + ^ r6: .cfa -12 + ^ r5: .cfa -16 + ^ r4: .cfa -20 + ^
STACK CFI 16abc .cfa: r7 8 +
STACK CFI 16ac0 r11: .cfa -24 + ^ r10: .cfa -28 + ^ r9: .cfa -32 + ^ r8: .cfa -36 + ^
STACK CFI INIT 16bb0 130 .cfa: sp 0 + .ra: lr
STACK CFI 16bb2 .cfa: sp 20 + .ra: .cfa -4 + ^ r7: .cfa -8 + ^ r6: .cfa -12 + ^ r5: .cfa -16 + ^ r4: .cfa -20 + ^
STACK CFI 16bb4 .cfa: r7 8 +
STACK CFI 16bb8 r11: .cfa -24 + ^ r10: .cfa -28 + ^ r9: .cfa -32 + ^ r8: .cfa -36 + ^
STACK CFI INIT 16ce0 27c .cfa: sp 0 + .ra: lr
STACK CFI 16ce2 .cfa: sp 20 + .ra: .cfa -4 + ^ r7: .cfa -8 + ^ r6: .cfa -12 + ^ r5: .cfa -16 + ^ r4: .cfa -20 + ^
STACK CFI 16ce4 .cfa: r7 8 +
STACK CFI 16ce8 r11: .cfa -24 + ^ r10: .cfa -28 + ^ r9: .cfa -32 + ^ r8: .cfa -36 + ^
STACK CFI INIT 16f5c d8 .cfa: sp 0 + .ra: lr
STACK CFI 16f5e .cfa: sp 20 + .ra: .cfa -4 + ^ r7: .cfa -8 + ^ r6: .cfa -12 + ^ r5: .cfa -16 + ^ r4: .cfa -20 + ^
STACK CFI 16f60 .cfa: r7 8 +
STACK CFI 16f64 r11: .cfa -24 + ^ r10: .cfa -28 + ^ r9: .cfa -32 + ^ r8: .cfa -36 + ^
STACK CFI INIT 17034 d8 .cfa: sp 0 + .ra: lr
STACK CFI 17036 .cfa: sp 20 + .ra: .cfa -4 + ^ r7: .cfa -8 + ^ r6: .cfa -12 + ^ r5: .cfa -16 + ^ r4: .cfa -20 + ^
STACK CFI 17038 .cfa: r7 8 +
STACK CFI 1703c r11: .cfa -24 + ^ r10: .cfa -28 + ^ r9: .cfa -32 + ^ r8: .cfa -36 + ^
STACK CFI INIT 1710c 48 .cfa: sp 0 + .ra: lr
STACK CFI 1710e .cfa: sp 16 + .ra: .cfa -4 + ^ r7: .cfa -8 + ^ r6: .cfa -12 + ^ r4: .cfa -16 + ^
STACK CFI 17110 .cfa: r7 8 +
STACK CFI INIT 17154 c .cfa: sp 0 + .ra: lr
STACK CFI 17156 .cfa: sp 8 + .ra: .cfa -4 + ^ r7: .cfa -8 + ^
STACK CFI 17158 .cfa: r7 8 +
STACK CFI INIT 17160 78 .cfa: sp 0 + .ra: lr
STACK CFI 17162 .cfa: sp 16 + .ra: .cfa -4 + ^ r7: .cfa -8 + ^ r6: .cfa -12 + ^ r4: .cfa -16 + ^
STACK CFI 17164 .cfa: r7 8 +
STACK CFI INIT 171d8 6 .cfa: sp 0 + .ra: lr
STACK CFI 171da .cfa: sp 8 + .ra: .cfa -4 + ^ r7: .cfa -8 + ^
STACK CFI 171dc .cfa: r7 8 +
STACK CFI INIT 171e0 2c .cfa: sp 0 + .ra: lr
STACK CFI 171e2 .cfa: sp 16 + .ra: .cfa -4 + ^ r7: .cfa -8 + ^ r6: .cfa -12 + ^ r4: .cfa -16 + ^
STACK CFI 171e4 .cfa: r7 8 +
STACK CFI INIT 1720c 44 .cfa: sp 0 + .ra: lr
STACK CFI 1720e .cfa: sp 16 + .ra: .cfa -4 + ^ r7: .cfa -8 + ^ r6: .cfa -12 + ^ r4: .cfa -16 + ^
STACK CFI 17210 .cfa: r7 8 +
STACK CFI INIT 17250 e .cfa: sp 0 + .ra: lr
STACK CFI 17252 .cfa: sp 8 + .ra: .cfa -4 + ^ r7: .cfa -8 + ^
STACK CFI 17254 .cfa: r7 8 +
STACK CFI INIT 1725e e .cfa: sp 0 + .ra: lr
STACK CFI 17260 .cfa: sp 8 + .ra: .cfa -4 + ^ r7: .cfa -8 + ^
STACK CFI 17262 .cfa: r7 8 +
STACK CFI INIT 1726c b6 .cfa: sp 0 + .ra: lr
STACK CFI 1726e .cfa: sp 20 + .ra: .cfa -4 + ^ r7: .cfa -8 + ^ r6: .cfa -12 + ^ r5: .cfa -16 + ^ r4: .cfa -20 + ^
STACK CFI 17270 .cfa: r7 8 +
STACK CFI 17274 r11: .cfa -24 + ^
STACK CFI INIT 17322 106 .cfa: sp 0 + .ra: lr
STACK CFI 17324 .cfa: sp 20 + .ra: .cfa -4 + ^ r7: .cfa -8 + ^ r6: .cfa -12 + ^ r5: .cfa -16 + ^ r4: .cfa -20 + ^
STACK CFI 17326 .cfa: r7 8 +
STACK CFI 1732a r11: .cfa -24 + ^ r10: .cfa -28 + ^ r9: .cfa -32 + ^ r8: .cfa -36 + ^
STACK CFI INIT 17428 98 .cfa: sp 0 + .ra: lr
STACK CFI 1742a .cfa: sp 20 + .ra: .cfa -4 + ^ r7: .cfa -8 + ^ r6: .cfa -12 + ^ r5: .cfa -16 + ^ r4: .cfa -20 + ^
STACK CFI 1742c .cfa: r7 8 +
STACK CFI 17430 r11: .cfa -24 + ^ r9: .cfa -28 + ^ r8: .cfa -32 + ^
STACK CFI INIT 174c0 2c .cfa: sp 0 + .ra: lr
STACK CFI 174c2 .cfa: sp 16 + .ra: .cfa -4 + ^ r7: .cfa -8 + ^ r6: .cfa -12 + ^ r4: .cfa -16 + ^
STACK CFI 174c4 .cfa: r7 8 +
STACK CFI INIT 174ec 30 .cfa: sp 0 + .ra: lr
STACK CFI 174ee .cfa: sp 16 + .ra: .cfa -4 + ^ r7: .cfa -8 + ^ r5: .cfa -12 + ^ r4: .cfa -16 + ^
STACK CFI 174f0 .cfa: r7 8 +
STACK CFI INIT 1751c 66 .cfa: sp 0 + .ra: lr
STACK CFI 1751e .cfa: sp 20 + .ra: .cfa -4 + ^ r7: .cfa -8 + ^ r6: .cfa -12 + ^ r5: .cfa -16 + ^ r4: .cfa -20 + ^
STACK CFI 17520 .cfa: r7 8 +
STACK CFI 17524 r10: .cfa -24 + ^ r9: .cfa -28 + ^ r8: .cfa -32 + ^
STACK CFI INIT 17582 4e .cfa: sp 0 + .ra: lr
STACK CFI 17584 .cfa: sp 20 + .ra: .cfa -4 + ^ r7: .cfa -8 + ^ r6: .cfa -12 + ^ r5: .cfa -16 + ^ r4: .cfa -20 + ^
STACK CFI 17586 .cfa: r7 8 +
STACK CFI 1758a r8: .cfa -24 + ^
STACK CFI INIT 175d0 b0 .cfa: sp 0 + .ra: lr
STACK CFI 175d2 .cfa: sp 20 + .ra: .cfa -4 + ^ r7: .cfa -8 + ^ r6: .cfa -12 + ^ r5: .cfa -16 + ^ r4: .cfa -20 + ^
STACK CFI 175d4 .cfa: r7 8 +
STACK CFI 175d8 r11: .cfa -24 + ^ r10: .cfa -28 + ^ r9: .cfa -32 + ^ r8: .cfa -36 + ^
STACK CFI INIT 17680 2c .cfa: sp 0 + .ra: lr
STACK CFI 17682 .cfa: sp 16 + .ra: .cfa -4 + ^ r7: .cfa -8 + ^ r6: .cfa -12 + ^ r4: .cfa -16 + ^
STACK CFI 17684 .cfa: r7 8 +
STACK CFI INIT 176ac 44 .cfa: sp 0 + .ra: lr
STACK CFI 176ae .cfa: sp 16 + .ra: .cfa -4 + ^ r7: .cfa -8 + ^ r6: .cfa -12 + ^ r4: .cfa -16 + ^
STACK CFI 176b0 .cfa: r7 8 +
STACK CFI INIT 176f0 e .cfa: sp 0 + .ra: lr
STACK CFI 176f2 .cfa: sp 8 + .ra: .cfa -4 + ^ r7: .cfa -8 + ^
STACK CFI 176f4 .cfa: r7 8 +
STACK CFI INIT 176fe e .cfa: sp 0 + .ra: lr
STACK CFI 17700 .cfa: sp 8 + .ra: .cfa -4 + ^ r7: .cfa -8 + ^
STACK CFI 17702 .cfa: r7 8 +
STACK CFI INIT 1770c b2 .cfa: sp 0 + .ra: lr
STACK CFI 1770e .cfa: sp 20 + .ra: .cfa -4 + ^ r7: .cfa -8 + ^ r6: .cfa -12 + ^ r5: .cfa -16 + ^ r4: .cfa -20 + ^
STACK CFI 17710 .cfa: r7 8 +
STACK CFI 17714 r11: .cfa -24 + ^
STACK CFI INIT 177be fe .cfa: sp 0 + .ra: lr
STACK CFI 177c0 .cfa: sp 20 + .ra: .cfa -4 + ^ r7: .cfa -8 + ^ r6: .cfa -12 + ^ r5: .cfa -16 + ^ r4: .cfa -20 + ^
STACK CFI 177c2 .cfa: r7 8 +
STACK CFI 177c6 r11: .cfa -24 + ^ r10: .cfa -28 + ^ r9: .cfa -32 + ^ r8: .cfa -36 + ^
STACK CFI INIT 178bc 98 .cfa: sp 0 + .ra: lr
STACK CFI 178be .cfa: sp 20 + .ra: .cfa -4 + ^ r7: .cfa -8 + ^ r6: .cfa -12 + ^ r5: .cfa -16 + ^ r4: .cfa -20 + ^
STACK CFI 178c0 .cfa: r7 8 +
STACK CFI 178c4 r11: .cfa -24 + ^ r9: .cfa -28 + ^ r8: .cfa -32 + ^
STACK CFI INIT 17954 2c .cfa: sp 0 + .ra: lr
STACK CFI 17956 .cfa: sp 16 + .ra: .cfa -4 + ^ r7: .cfa -8 + ^ r6: .cfa -12 + ^ r4: .cfa -16 + ^
STACK CFI 17958 .cfa: r7 8 +
STACK CFI INIT 17980 30 .cfa: sp 0 + .ra: lr
STACK CFI 17982 .cfa: sp 16 + .ra: .cfa -4 + ^ r7: .cfa -8 + ^ r5: .cfa -12 + ^ r4: .cfa -16 + ^
STACK CFI 17984 .cfa: r7 8 +
STACK CFI INIT 179b0 66 .cfa: sp 0 + .ra: lr
STACK CFI 179b2 .cfa: sp 20 + .ra: .cfa -4 + ^ r7: .cfa -8 + ^ r6: .cfa -12 + ^ r5: .cfa -16 + ^ r4: .cfa -20 + ^
STACK CFI 179b4 .cfa: r7 8 +
STACK CFI 179b8 r10: .cfa -24 + ^ r9: .cfa -28 + ^ r8: .cfa -32 + ^
STACK CFI INIT 17a16 4e .cfa: sp 0 + .ra: lr
STACK CFI 17a18 .cfa: sp 20 + .ra: .cfa -4 + ^ r7: .cfa -8 + ^ r6: .cfa -12 + ^ r5: .cfa -16 + ^ r4: .cfa -20 + ^
STACK CFI 17a1a .cfa: r7 8 +
STACK CFI 17a1e r8: .cfa -24 + ^
STACK CFI INIT 17a64 ae .cfa: sp 0 + .ra: lr
STACK CFI 17a66 .cfa: sp 20 + .ra: .cfa -4 + ^ r7: .cfa -8 + ^ r6: .cfa -12 + ^ r5: .cfa -16 + ^ r4: .cfa -20 + ^
STACK CFI 17a68 .cfa: r7 8 +
STACK CFI 17a6c r11: .cfa -24 + ^ r10: .cfa -28 + ^ r9: .cfa -32 + ^ r8: .cfa -36 + ^
STACK CFI INIT 17b14 30 .cfa: sp 0 + .ra: lr
STACK CFI 17b16 .cfa: sp 16 + .ra: .cfa -4 + ^ r7: .cfa -8 + ^ r6: .cfa -12 + ^ r4: .cfa -16 + ^
STACK CFI 17b18 .cfa: r7 8 +
