MODULE Linux arm 88A956E71048B966640F23D163C12FF00 TestPoisonArea
INFO CODE_ID E756A988481066B9640F23D163C12FF0216E5DA6
INFO GENERATOR mozilla/dump_syms 2.3.6
PUBLIC 9b0 0 _start
PUBLIC 9c0 0 _start_main
PUBLIC a2c 0 __atexit_handler_wrapper
PUBLIC a44 0 atexit
PUBLIC a70 0 pthread_atfork
PUBLIC a8c 0 call_fini_array
FUNC ad0 238 0 main
FUNC d08 378 0 TestPage(char const*, unsigned int, int)
PUBLIC 1080 0 <.plt ELF section in TestPoisonArea>
STACK CFI INIT ad0 238 .cfa: sp 0 + .ra: lr
STACK CFI ad2 .cfa: sp 20 + .ra: .cfa -4 + ^ r7: .cfa -8 + ^ r6: .cfa -12 + ^ r5: .cfa -16 + ^ r4: .cfa -20 + ^
STACK CFI ad4 .cfa: r7 8 +
STACK CFI ad8 r11: .cfa -24 + ^ r9: .cfa -28 + ^ r8: .cfa -32 + ^
STACK CFI INIT d08 378 .cfa: sp 0 + .ra: lr
STACK CFI d0a .cfa: sp 20 + .ra: .cfa -4 + ^ r7: .cfa -8 + ^ r6: .cfa -12 + ^ r5: .cfa -16 + ^ r4: .cfa -20 + ^
STACK CFI d0c .cfa: r7 8 +
STACK CFI d10 r11: .cfa -24 + ^ r10: .cfa -28 + ^ r9: .cfa -32 + ^ r8: .cfa -36 + ^
