MODULE Linux arm C030316957889DBC17901AF935F93E860 TestSIMD
INFO CODE_ID 693130C08857BC9D17901AF935F93E86A34AE2B0
INFO GENERATOR mozilla/dump_syms 2.3.6
PUBLIC 3ef0 0 _start
PUBLIC 3f00 0 _start_main
PUBLIC 3f6c 0 __atexit_handler_wrapper
PUBLIC 3f84 0 atexit
PUBLIC 3fb0 0 pthread_atfork
PUBLIC 3fcc 0 call_fini_array
FUNC 4010 150 0 TestTinyString()
FUNC 4160 38 0 MOZ_ReportAssertionFailure(char const*, char const*, int)
FUNC 4198 3a0 0 TestShortString()
FUNC 4538 598 0 TestMediumString()
FUNC 4ad0 264 0 TestLongString()
FUNC 4d40 280 0 TestGauntlet()
FUNC 4fc0 150 0 TestTinyString16()
FUNC 5110 3a8 0 TestShortString16()
FUNC 54b8 5a0 0 TestMediumString16()
FUNC 5a60 438 0 TestLongString16()
FUNC 5ea0 430 0 TestGauntlet16()
FUNC 62d0 128 0 TestTinyString64()
FUNC 63f8 39c 0 TestShortString64()
FUNC 6794 6c0 0 TestMediumString64()
FUNC 6e58 f0 0 TestLongString64()
FUNC 6f48 144 0 TestGauntlet64()
FUNC 708c 100 0 TestTinyString2x8()
FUNC 718c 1ec 0 TestShortString2x8()
FUNC 7378 31c 0 TestMediumString2x8()
FUNC 76a0 250 0 TestLongString2x8()
FUNC 78f0 100 0 TestTinyString2x16()
FUNC 79f0 22c 0 TestShortString2x16()
FUNC 7c1c 358 0 TestMediumString2x16()
FUNC 7f80 400 0 TestLongString2x16()
FUNC 8380 460 0 TestGauntlet2x8()
FUNC 87e0 1a0 0 TestGauntlet2x16()
FUNC 8980 c8 0 TestSpecialCases()
FUNC 8a48 68 0 main
PUBLIC m 8ab0 0 __aeabi_memcpy8
PUBLIC m 8ab4 0 __aeabi_memset8
PUBLIC m 8ac4 0 __aeabi_memclr
PUBLIC 8ad0 0 <.plt ELF section in TestSIMD>
STACK CFI INIT 4010 150 .cfa: sp 0 + .ra: lr
STACK CFI 4012 .cfa: sp 16 + .ra: .cfa -4 + ^ r7: .cfa -8 + ^ r5: .cfa -12 + ^ r4: .cfa -16 + ^
STACK CFI 4014 .cfa: r7 8 +
STACK CFI INIT 4160 38 .cfa: sp 0 + .ra: lr
STACK CFI 4162 .cfa: sp 16 + .ra: .cfa -4 + ^ r7: .cfa -8 + ^ r5: .cfa -12 + ^ r4: .cfa -16 + ^
STACK CFI 4164 .cfa: r7 8 +
STACK CFI INIT 4198 3a0 .cfa: sp 0 + .ra: lr
STACK CFI 419a .cfa: sp 16 + .ra: .cfa -4 + ^ r7: .cfa -8 + ^ r5: .cfa -12 + ^ r4: .cfa -16 + ^
STACK CFI 419c .cfa: r7 8 +
STACK CFI INIT 4538 598 .cfa: sp 0 + .ra: lr
STACK CFI 453a .cfa: sp 16 + .ra: .cfa -4 + ^ r7: .cfa -8 + ^ r5: .cfa -12 + ^ r4: .cfa -16 + ^
STACK CFI 453c .cfa: r7 8 +
STACK CFI INIT 4ad0 264 .cfa: sp 0 + .ra: lr
STACK CFI 4ad2 .cfa: sp 20 + .ra: .cfa -4 + ^ r7: .cfa -8 + ^ r6: .cfa -12 + ^ r5: .cfa -16 + ^ r4: .cfa -20 + ^
STACK CFI 4ad4 .cfa: r7 8 +
STACK CFI 4ad8 r11: .cfa -24 + ^
STACK CFI INIT 4d40 280 .cfa: sp 0 + .ra: lr
STACK CFI 4d42 .cfa: sp 20 + .ra: .cfa -4 + ^ r7: .cfa -8 + ^ r6: .cfa -12 + ^ r5: .cfa -16 + ^ r4: .cfa -20 + ^
STACK CFI 4d44 .cfa: r7 8 +
STACK CFI 4d48 r11: .cfa -24 + ^ r10: .cfa -28 + ^ r9: .cfa -32 + ^ r8: .cfa -36 + ^
STACK CFI INIT 4fc0 150 .cfa: sp 0 + .ra: lr
STACK CFI 4fc2 .cfa: sp 16 + .ra: .cfa -4 + ^ r7: .cfa -8 + ^ r5: .cfa -12 + ^ r4: .cfa -16 + ^
STACK CFI 4fc4 .cfa: r7 8 +
STACK CFI INIT 5110 3a8 .cfa: sp 0 + .ra: lr
STACK CFI 5112 .cfa: sp 16 + .ra: .cfa -4 + ^ r7: .cfa -8 + ^ r5: .cfa -12 + ^ r4: .cfa -16 + ^
STACK CFI 5114 .cfa: r7 8 +
STACK CFI INIT 54b8 5a0 .cfa: sp 0 + .ra: lr
STACK CFI 54ba .cfa: sp 16 + .ra: .cfa -4 + ^ r7: .cfa -8 + ^ r5: .cfa -12 + ^ r4: .cfa -16 + ^
STACK CFI 54bc .cfa: r7 8 +
STACK CFI INIT 5a60 438 .cfa: sp 0 + .ra: lr
STACK CFI 5a62 .cfa: sp 20 + .ra: .cfa -4 + ^ r7: .cfa -8 + ^ r6: .cfa -12 + ^ r5: .cfa -16 + ^ r4: .cfa -20 + ^
STACK CFI 5a64 .cfa: r7 8 +
STACK CFI 5a68 r8: .cfa -24 + ^
STACK CFI INIT 5ea0 430 .cfa: sp 0 + .ra: lr
STACK CFI 5ea2 .cfa: sp 20 + .ra: .cfa -4 + ^ r7: .cfa -8 + ^ r6: .cfa -12 + ^ r5: .cfa -16 + ^ r4: .cfa -20 + ^
STACK CFI 5ea4 .cfa: r7 8 +
STACK CFI 5ea8 r11: .cfa -24 + ^ r10: .cfa -28 + ^ r9: .cfa -32 + ^ r8: .cfa -36 + ^
STACK CFI INIT 62d0 128 .cfa: sp 0 + .ra: lr
STACK CFI 62d2 .cfa: sp 20 + .ra: .cfa -4 + ^ r7: .cfa -8 + ^ r6: .cfa -12 + ^ r5: .cfa -16 + ^ r4: .cfa -20 + ^
STACK CFI 62d4 .cfa: r7 8 +
STACK CFI 62d8 r11: .cfa -24 + ^
STACK CFI INIT 63f8 39c .cfa: sp 0 + .ra: lr
STACK CFI 63fa .cfa: sp 20 + .ra: .cfa -4 + ^ r7: .cfa -8 + ^ r6: .cfa -12 + ^ r5: .cfa -16 + ^ r4: .cfa -20 + ^
STACK CFI 63fc .cfa: r7 8 +
STACK CFI 6400 r11: .cfa -24 + ^
STACK CFI INIT 6794 6c0 .cfa: sp 0 + .ra: lr
STACK CFI 6796 .cfa: sp 20 + .ra: .cfa -4 + ^ r7: .cfa -8 + ^ r6: .cfa -12 + ^ r5: .cfa -16 + ^ r4: .cfa -20 + ^
STACK CFI 6798 .cfa: r7 8 +
STACK CFI 679c r11: .cfa -24 + ^
STACK CFI INIT 6e58 f0 .cfa: sp 0 + .ra: lr
STACK CFI 6e5a .cfa: sp 20 + .ra: .cfa -4 + ^ r7: .cfa -8 + ^ r6: .cfa -12 + ^ r5: .cfa -16 + ^ r4: .cfa -20 + ^
STACK CFI 6e5c .cfa: r7 8 +
STACK CFI 6e60 r8: .cfa -24 + ^
STACK CFI INIT 6f48 144 .cfa: sp 0 + .ra: lr
STACK CFI 6f4a .cfa: sp 20 + .ra: .cfa -4 + ^ r7: .cfa -8 + ^ r6: .cfa -12 + ^ r5: .cfa -16 + ^ r4: .cfa -20 + ^
STACK CFI 6f4c .cfa: r7 8 +
STACK CFI 6f50 r11: .cfa -24 + ^ r10: .cfa -28 + ^ r9: .cfa -32 + ^ r8: .cfa -36 + ^
STACK CFI INIT 708c 100 .cfa: sp 0 + .ra: lr
STACK CFI 708e .cfa: sp 16 + .ra: .cfa -4 + ^ r7: .cfa -8 + ^ r6: .cfa -12 + ^ r4: .cfa -16 + ^
STACK CFI 7090 .cfa: r7 8 +
STACK CFI INIT 718c 1ec .cfa: sp 0 + .ra: lr
STACK CFI 718e .cfa: sp 16 + .ra: .cfa -4 + ^ r7: .cfa -8 + ^ r6: .cfa -12 + ^ r4: .cfa -16 + ^
STACK CFI 7190 .cfa: r7 8 +
STACK CFI INIT 7378 31c .cfa: sp 0 + .ra: lr
STACK CFI 737a .cfa: sp 16 + .ra: .cfa -4 + ^ r7: .cfa -8 + ^ r6: .cfa -12 + ^ r4: .cfa -16 + ^
STACK CFI 737c .cfa: r7 8 +
STACK CFI INIT 76a0 250 .cfa: sp 0 + .ra: lr
STACK CFI 76a2 .cfa: sp 16 + .ra: .cfa -4 + ^ r7: .cfa -8 + ^ r5: .cfa -12 + ^ r4: .cfa -16 + ^
STACK CFI 76a4 .cfa: r7 8 +
STACK CFI INIT 78f0 100 .cfa: sp 0 + .ra: lr
STACK CFI 78f2 .cfa: sp 16 + .ra: .cfa -4 + ^ r7: .cfa -8 + ^ r6: .cfa -12 + ^ r4: .cfa -16 + ^
STACK CFI 78f4 .cfa: r7 8 +
STACK CFI INIT 79f0 22c .cfa: sp 0 + .ra: lr
STACK CFI 79f2 .cfa: sp 16 + .ra: .cfa -4 + ^ r7: .cfa -8 + ^ r6: .cfa -12 + ^ r4: .cfa -16 + ^
STACK CFI 79f4 .cfa: r7 8 +
STACK CFI INIT 7c1c 358 .cfa: sp 0 + .ra: lr
STACK CFI 7c1e .cfa: sp 16 + .ra: .cfa -4 + ^ r7: .cfa -8 + ^ r6: .cfa -12 + ^ r4: .cfa -16 + ^
STACK CFI 7c20 .cfa: r7 8 +
STACK CFI INIT 7f80 400 .cfa: sp 0 + .ra: lr
STACK CFI 7f82 .cfa: sp 20 + .ra: .cfa -4 + ^ r7: .cfa -8 + ^ r6: .cfa -12 + ^ r5: .cfa -16 + ^ r4: .cfa -20 + ^
STACK CFI 7f84 .cfa: r7 8 +
STACK CFI 7f88 r11: .cfa -24 + ^
STACK CFI INIT 8380 460 .cfa: sp 0 + .ra: lr
STACK CFI 8382 .cfa: sp 20 + .ra: .cfa -4 + ^ r7: .cfa -8 + ^ r6: .cfa -12 + ^ r5: .cfa -16 + ^ r4: .cfa -20 + ^
STACK CFI 8384 .cfa: r7 8 +
STACK CFI 8388 r11: .cfa -24 + ^ r10: .cfa -28 + ^ r9: .cfa -32 + ^ r8: .cfa -36 + ^
STACK CFI INIT 87e0 1a0 .cfa: sp 0 + .ra: lr
STACK CFI 87e2 .cfa: sp 20 + .ra: .cfa -4 + ^ r7: .cfa -8 + ^ r6: .cfa -12 + ^ r5: .cfa -16 + ^ r4: .cfa -20 + ^
STACK CFI 87e4 .cfa: r7 8 +
STACK CFI 87e8 r11: .cfa -24 + ^ r10: .cfa -28 + ^ r9: .cfa -32 + ^ r8: .cfa -36 + ^
STACK CFI INIT 8980 c8 .cfa: sp 0 + .ra: lr
STACK CFI 8982 .cfa: sp 16 + .ra: .cfa -4 + ^ r7: .cfa -8 + ^ r6: .cfa -12 + ^ r4: .cfa -16 + ^
STACK CFI 8984 .cfa: r7 8 +
STACK CFI INIT 8a48 68 .cfa: sp 0 + .ra: lr
STACK CFI 8a4a .cfa: sp 8 + .ra: .cfa -4 + ^ r7: .cfa -8 + ^
STACK CFI 8a4c .cfa: r7 8 +
