MODULE Linux arm 8E0E35A62916004A5764DB5D5C1994420 TestBinarySearch
INFO CODE_ID A6350E8E16294A005764DB5D5C199442CB0FC844
INFO GENERATOR mozilla/dump_syms 2.3.6
PUBLIC 1190 0 _start
PUBLIC 11a0 0 _start_main
PUBLIC 120c 0 __atexit_handler_wrapper
PUBLIC 1224 0 atexit
PUBLIC 1250 0 pthread_atfork
PUBLIC 126c 0 call_fini_array
FUNC 12b0 f34 0 main
FUNC 21e4 118 0 mozilla::Vector<int, (unsigned int)0, mozilla::MallocAllocPolicy>::append<int>(int&&)
FUNC 22fc 3c 0 MOZ_ReportAssertionFailure(char const*, char const*, int)
FUNC 2338 120 0 mozilla::Vector<Person, (unsigned int)0, mozilla::MallocAllocPolicy>::append<Person>(Person&&)
FUNC 2458 c8 0 mozilla::Vector<Person, (unsigned int)0, mozilla::MallocAllocPolicy>::~Vector()
FUNC 2520 c8 0 mozilla::Vector<int, (unsigned int)0, mozilla::MallocAllocPolicy>::~Vector()
FUNC 25e8 c0 0 mozilla::Vector<int, (unsigned int)0, mozilla::MallocAllocPolicy>::growStorageBy(unsigned int)
FUNC 26a8 12c 0 mozilla::Vector<int, (unsigned int)0, mozilla::MallocAllocPolicy>::convertToHeapStorage(unsigned int)
FUNC 27d4 b8 0 mozilla::detail::VectorImpl<int, (unsigned int)0, mozilla::MallocAllocPolicy, true>::growTo(mozilla::Vector<int, (unsigned int)0, mozilla::MallocAllocPolicy>&, unsigned int)
FUNC 288c a4 0 mozilla::BinarySearchIf<mozilla::Vector<int, (unsigned int)0, mozilla::MallocAllocPolicy>, mozilla::detail::BinarySearchDefaultComparator<int> >(mozilla::Vector<int, (unsigned int)0, mozilla::MallocAllocPolicy> const&, unsigned int, unsigned int, mozilla::detail::BinarySearchDefaultComparator<int> const&, unsigned int*)
FUNC 2930 c0 0 mozilla::Vector<Person, (unsigned int)0, mozilla::MallocAllocPolicy>::growStorageBy(unsigned int)
FUNC 29f0 124 0 mozilla::Vector<Person, (unsigned int)0, mozilla::MallocAllocPolicy>::convertToHeapStorage(unsigned int)
FUNC 2b14 124 0 mozilla::detail::VectorImpl<Person, (unsigned int)0, mozilla::MallocAllocPolicy, false>::growTo(mozilla::Vector<Person, (unsigned int)0, mozilla::MallocAllocPolicy>&, unsigned int)
FUNC 2c38 b0 0 mozilla::BinarySearchIf<GetAge, mozilla::detail::BinarySearchDefaultComparator<int> >(GetAge const&, unsigned int, unsigned int, mozilla::detail::BinarySearchDefaultComparator<int> const&, unsigned int*)
FUNC 2ce8 130 0 mozilla::Vector<int, (unsigned int)0, mozilla::MallocAllocPolicy>::reserve(unsigned int)
FUNC 2e18 164 0 mozilla::Vector<int, (unsigned int)0, mozilla::MallocAllocPolicy>::growByUninitialized(unsigned int)
PUBLIC 2f80 0 <.plt ELF section in TestBinarySearch>
STACK CFI INIT 12b0 f34 .cfa: sp 0 + .ra: lr
STACK CFI 12b2 .cfa: sp 20 + .ra: .cfa -4 + ^ r7: .cfa -8 + ^ r6: .cfa -12 + ^ r5: .cfa -16 + ^ r4: .cfa -20 + ^
STACK CFI 12b4 .cfa: r7 8 +
STACK CFI 12b8 r10: .cfa -24 + ^ r9: .cfa -28 + ^ r8: .cfa -32 + ^
STACK CFI INIT 21e4 118 .cfa: sp 0 + .ra: lr
STACK CFI 21e6 .cfa: sp 16 + .ra: .cfa -4 + ^ r7: .cfa -8 + ^ r5: .cfa -12 + ^ r4: .cfa -16 + ^
STACK CFI 21e8 .cfa: r7 8 +
STACK CFI INIT 22fc 3c .cfa: sp 0 + .ra: lr
STACK CFI 22fe .cfa: sp 20 + .ra: .cfa -4 + ^ r7: .cfa -8 + ^ r6: .cfa -12 + ^ r5: .cfa -16 + ^ r4: .cfa -20 + ^
STACK CFI 2300 .cfa: r7 8 +
STACK CFI 2304 r11: .cfa -24 + ^
STACK CFI INIT 2338 120 .cfa: sp 0 + .ra: lr
STACK CFI 233a .cfa: sp 16 + .ra: .cfa -4 + ^ r7: .cfa -8 + ^ r5: .cfa -12 + ^ r4: .cfa -16 + ^
STACK CFI 233c .cfa: r7 8 +
STACK CFI INIT 2458 c8 .cfa: sp 0 + .ra: lr
STACK CFI 245a .cfa: sp 16 + .ra: .cfa -4 + ^ r7: .cfa -8 + ^ r6: .cfa -12 + ^ r4: .cfa -16 + ^
STACK CFI 245c .cfa: r7 8 +
STACK CFI INIT 2520 c8 .cfa: sp 0 + .ra: lr
STACK CFI 2522 .cfa: sp 16 + .ra: .cfa -4 + ^ r7: .cfa -8 + ^ r6: .cfa -12 + ^ r4: .cfa -16 + ^
STACK CFI 2524 .cfa: r7 8 +
STACK CFI INIT 25e8 c0 .cfa: sp 0 + .ra: lr
STACK CFI 2680 .cfa: sp 16 + .ra: .cfa -4 + ^ r7: .cfa -8 + ^ r6: .cfa -12 + ^ r4: .cfa -16 + ^
STACK CFI 2682 .cfa: r7 8 +
STACK CFI INIT 26a8 12c .cfa: sp 0 + .ra: lr
STACK CFI 26aa .cfa: sp 20 + .ra: .cfa -4 + ^ r7: .cfa -8 + ^ r6: .cfa -12 + ^ r5: .cfa -16 + ^ r4: .cfa -20 + ^
STACK CFI 26ac .cfa: r7 8 +
STACK CFI 26b0 r10: .cfa -24 + ^ r9: .cfa -28 + ^ r8: .cfa -32 + ^
STACK CFI INIT 27d4 b8 .cfa: sp 0 + .ra: lr
STACK CFI 27d6 .cfa: sp 16 + .ra: .cfa -4 + ^ r7: .cfa -8 + ^ r5: .cfa -12 + ^ r4: .cfa -16 + ^
STACK CFI 27d8 .cfa: r7 8 +
STACK CFI INIT 288c a4 .cfa: sp 0 + .ra: lr
STACK CFI 288e .cfa: sp 20 + .ra: .cfa -4 + ^ r7: .cfa -8 + ^ r6: .cfa -12 + ^ r5: .cfa -16 + ^ r4: .cfa -20 + ^
STACK CFI 2890 .cfa: r7 8 +
STACK CFI 2894 r11: .cfa -24 + ^
STACK CFI INIT 2930 c0 .cfa: sp 0 + .ra: lr
STACK CFI 29c8 .cfa: sp 16 + .ra: .cfa -4 + ^ r7: .cfa -8 + ^ r6: .cfa -12 + ^ r4: .cfa -16 + ^
STACK CFI 29ca .cfa: r7 8 +
STACK CFI INIT 29f0 124 .cfa: sp 0 + .ra: lr
STACK CFI 29f2 .cfa: sp 20 + .ra: .cfa -4 + ^ r7: .cfa -8 + ^ r6: .cfa -12 + ^ r5: .cfa -16 + ^ r4: .cfa -20 + ^
STACK CFI 29f4 .cfa: r7 8 +
STACK CFI 29f8 r11: .cfa -24 + ^ r9: .cfa -28 + ^ r8: .cfa -32 + ^
STACK CFI INIT 2b14 124 .cfa: sp 0 + .ra: lr
STACK CFI 2b16 .cfa: sp 20 + .ra: .cfa -4 + ^ r7: .cfa -8 + ^ r6: .cfa -12 + ^ r5: .cfa -16 + ^ r4: .cfa -20 + ^
STACK CFI 2b18 .cfa: r7 8 +
STACK CFI 2b1c r10: .cfa -24 + ^ r9: .cfa -28 + ^ r8: .cfa -32 + ^
STACK CFI INIT 2c38 b0 .cfa: sp 0 + .ra: lr
STACK CFI 2c3a .cfa: sp 20 + .ra: .cfa -4 + ^ r7: .cfa -8 + ^ r6: .cfa -12 + ^ r5: .cfa -16 + ^ r4: .cfa -20 + ^
STACK CFI 2c3c .cfa: r7 8 +
STACK CFI 2c40 r11: .cfa -24 + ^
STACK CFI INIT 2ce8 130 .cfa: sp 0 + .ra: lr
STACK CFI 2cea .cfa: sp 16 + .ra: .cfa -4 + ^ r7: .cfa -8 + ^ r5: .cfa -12 + ^ r4: .cfa -16 + ^
STACK CFI 2cec .cfa: r7 8 +
STACK CFI INIT 2e18 164 .cfa: sp 0 + .ra: lr
STACK CFI 2e1a .cfa: sp 16 + .ra: .cfa -4 + ^ r7: .cfa -8 + ^ r5: .cfa -12 + ^ r4: .cfa -16 + ^
STACK CFI 2e1c .cfa: r7 8 +
