MODULE Linux arm 76EBCAF29FB1552071FA509DFEBF782C0 TestRandomNum
INFO CODE_ID F2CAEB76B19F205571FA509DFEBF782C9FC88FD8
INFO GENERATOR mozilla/dump_syms 2.3.6
PUBLIC 850 0 _start
PUBLIC 860 0 _start_main
PUBLIC 8cc 0 __atexit_handler_wrapper
PUBLIC 8e4 0 atexit
PUBLIC 910 0 pthread_atfork
PUBLIC 92c 0 call_fini_array
FUNC 970 180 0 main
FUNC af0 3c 0 MOZ_ReportAssertionFailure(char const*, char const*, int)
FUNC b2c 10 0 std::__ndk1::vector<unsigned long long, std::__ndk1::allocator<unsigned long long> >::__throw_length_error[abi:dn210000]()
FUNC b3c 14 0 std::__ndk1::__throw_length_error[abi:dn210000](char const*)
FUNC b50 10 0 std::__throw_bad_array_new_length([abi:dn210000], void)
PUBLIC m b60 0 __aeabi_memcpy
PUBLIC b70 0 <.plt ELF section in TestRandomNum>
STACK CFI INIT 970 180 .cfa: sp 0 + .ra: lr
STACK CFI 972 .cfa: sp 20 + .ra: .cfa -4 + ^ r7: .cfa -8 + ^ r6: .cfa -12 + ^ r5: .cfa -16 + ^ r4: .cfa -20 + ^
STACK CFI 974 .cfa: r7 8 +
STACK CFI 978 r11: .cfa -24 + ^ r10: .cfa -28 + ^ r9: .cfa -32 + ^ r8: .cfa -36 + ^
STACK CFI INIT af0 3c .cfa: sp 0 + .ra: lr
STACK CFI af2 .cfa: sp 20 + .ra: .cfa -4 + ^ r7: .cfa -8 + ^ r6: .cfa -12 + ^ r5: .cfa -16 + ^ r4: .cfa -20 + ^
STACK CFI af4 .cfa: r7 8 +
STACK CFI af8 r11: .cfa -24 + ^
STACK CFI INIT b2c 10 .cfa: sp 0 + .ra: lr
STACK CFI b2e .cfa: sp 8 + .ra: .cfa -4 + ^ r7: .cfa -8 + ^
STACK CFI b30 .cfa: r7 8 +
STACK CFI INIT b3c 14 .cfa: sp 0 + .ra: lr
STACK CFI b3e .cfa: sp 8 + .ra: .cfa -4 + ^ r7: .cfa -8 + ^
STACK CFI b40 .cfa: r7 8 +
STACK CFI INIT b50 10 .cfa: sp 0 + .ra: lr
STACK CFI b52 .cfa: sp 8 + .ra: .cfa -4 + ^ r7: .cfa -8 + ^
STACK CFI b54 .cfa: r7 8 +
