MODULE Linux arm 8E4D9A11971860B12B347B88B354BD680 TestFunctionTypeTraits
INFO CODE_ID 119A4D8E1897B1602B347B88B354BD687C5E6D56
INFO GENERATOR mozilla/dump_syms 2.3.6
FILE 0 hg:hg.mozilla.org/try:mfbt/tests/TestFunctionTypeTraits.cpp:bbdd9862e2f3fd0e897d79100b238eb7caf2c2d3
PUBLIC 3a8 0 _start
PUBLIC 3b8 0 _start_main
PUBLIC 424 0 __atexit_handler_wrapper
PUBLIC 43c 0 atexit
PUBLIC 468 0 pthread_atfork
PUBLIC 484 0 call_fini_array
FUNC 4c8 6 0 f0()
4c8 6 11 0
FUNC 4ce 8 0 f1(char)
4ce 8 13 0
FUNC 4d6 8 0 main
4d6 4 196 0
4da 4 230 0
PUBLIC 4e0 0 <.plt ELF section in TestFunctionTypeTraits>
STACK CFI INIT 4c8 6 .cfa: sp 0 + .ra: lr
STACK CFI 4ca .cfa: sp 8 + .ra: .cfa -4 + ^ r7: .cfa -8 + ^
STACK CFI 4cc .cfa: r7 8 +
STACK CFI INIT 4ce 8 .cfa: sp 0 + .ra: lr
STACK CFI 4d0 .cfa: sp 8 + .ra: .cfa -4 + ^ r7: .cfa -8 + ^
STACK CFI 4d2 .cfa: r7 8 +
STACK CFI INIT 4d6 8 .cfa: sp 0 + .ra: lr
STACK CFI 4d8 .cfa: sp 8 + .ra: .cfa -4 + ^ r7: .cfa -8 + ^
STACK CFI 4da .cfa: r7 8 +
