MODULE Linux arm ADD18C2FACD5FE078D176FBC5868DA620 TestBlockingProcess
INFO CODE_ID 2F8CD1ADD5AC07FE8D176FBC5868DA62CD539D7D
INFO GENERATOR mozilla/dump_syms 2.3.6
PUBLIC 460 0 _start
PUBLIC 470 0 _start_main
PUBLIC 4dc 0 __atexit_handler_wrapper
PUBLIC 4f4 0 atexit
PUBLIC 520 0 pthread_atfork
PUBLIC 53c 0 call_fini_array
FUNC 580 4c 0 main
PUBLIC 5d0 0 <.plt ELF section in TestBlockingProcess>
STACK CFI INIT 580 4c .cfa: sp 0 + .ra: lr
STACK CFI 582 .cfa: sp 8 + .ra: .cfa -4 + ^ r7: .cfa -8 + ^
STACK CFI 584 .cfa: r7 8 +
