MODULE Linux arm AB7D976CFF6F9BE53C81124CFE5CB8170 TestMacroArgs
INFO CODE_ID 6C977DAB6FFFE59B3C81124CFE5CB817CBB5B7EF
INFO GENERATOR mozilla/dump_syms 2.3.6
PUBLIC 3a8 0 _start
PUBLIC 3b8 0 _start_main
PUBLIC 424 0 __atexit_handler_wrapper
PUBLIC 43c 0 atexit
PUBLIC 468 0 pthread_atfork
PUBLIC 484 0 call_fini_array
FUNC 4c8 8 0 main
PUBLIC 4d0 0 <.plt ELF section in TestMacroArgs>
STACK CFI INIT 4c8 8 .cfa: sp 0 + .ra: lr
STACK CFI 4ca .cfa: sp 8 + .ra: .cfa -4 + ^ r7: .cfa -8 + ^
STACK CFI 4cc .cfa: r7 8 +
