MODULE Linux arm EBE7391E4BFBB478013077F3B9FF30F60 TestHashTable
INFO CODE_ID 1E39E7EBFB4B78B4013077F3B9FF30F6D3751E98
INFO GENERATOR mozilla/dump_syms 2.3.6
PUBLIC fac 0 _start
PUBLIC fbc 0 _start_main
PUBLIC 1028 0 __atexit_handler_wrapper
PUBLIC 1040 0 atexit
PUBLIC 106c 0 pthread_atfork
PUBLIC 1088 0 call_fini_array
FUNC 10cc 490 0 TestMoveConstructor()
FUNC 155c 3c 0 MOZ_ReportAssertionFailure(char const*, char const*, int)
FUNC 1598 23c 0 CheckSwapMap1(mozilla::HashMap<int, int, mozilla::DefaultHasher<int, void>, mozilla::MallocAllocPolicy> const&)
FUNC 17d4 23c 0 CheckSwapMap2(mozilla::HashMap<int, int, mozilla::DefaultHasher<int, void>, mozilla::MallocAllocPolicy> const&)
FUNC 1a10 220 0 TestSwap()
FUNC 1c30 3d8 0 TestEnumHash()
FUNC 2008 828 0 TestHashPair()
FUNC 2830 37c 0 TestCapacityAfterRemove()
FUNC 2bac c0 0 mozilla::HashMap<int, int, mozilla::DefaultHasher<int, void>, mozilla::MallocAllocPolicy>::remove(int const&)
FUNC 2c6c 96 0 mozilla::detail::HashTable<mozilla::HashMapEntry<int, int>, mozilla::HashMap<int, int, mozilla::DefaultHasher<int, void>, mozilla::MallocAllocPolicy>::MapHashPolicy, mozilla::MallocAllocPolicy>::ModIterator::~ModIterator()
FUNC 2d02 18 0 main
FUNC 2d1c b0 0 mozilla::detail::HashTable<mozilla::HashMapEntry<int, int>, mozilla::HashMap<int, int, mozilla::DefaultHasher<int, void>, mozilla::MallocAllocPolicy>::MapHashPolicy, mozilla::MallocAllocPolicy>::bestCapacity(unsigned int)
FUNC 2dcc 190 0 mozilla::detail::HashTable<mozilla::HashMapEntry<int, int>, mozilla::HashMap<int, int, mozilla::DefaultHasher<int, void>, mozilla::MallocAllocPolicy>::MapHashPolicy, mozilla::MallocAllocPolicy>::changeTableSize(unsigned int, mozilla::detail::HashTable<mozilla::HashMapEntry<int, int>, mozilla::HashMap<int, int, mozilla::DefaultHasher<int, void>, mozilla::MallocAllocPolicy>::MapHashPolicy, mozilla::MallocAllocPolicy>::FailureBehavior)
FUNC 2f5c d4 0 mozilla::detail::HashTable<mozilla::HashMapEntry<int, int>, mozilla::HashMap<int, int, mozilla::DefaultHasher<int, void>, mozilla::MallocAllocPolicy>::MapHashPolicy, mozilla::MallocAllocPolicy>::findNonLiveSlot(unsigned int)
FUNC 3030 94 0 mozilla::detail::EntrySlot<mozilla::HashMapEntry<int, int> >::setLive<mozilla::HashMapEntry<int, int> >(unsigned int, mozilla::HashMapEntry<int, int>&&)
FUNC 30c4 138 0 mozilla::detail::HashTable<mozilla::HashMapEntry<int, int>, mozilla::HashMap<int, int, mozilla::DefaultHasher<int, void>, mozilla::MallocAllocPolicy>::MapHashPolicy, mozilla::MallocAllocPolicy>::putNew<int, int>(int const&, int, int&&)
FUNC 31fc ac 0 mozilla::detail::HashTable<mozilla::HashMapEntry<int, int>, mozilla::HashMap<int, int, mozilla::DefaultHasher<int, void>, mozilla::MallocAllocPolicy>::MapHashPolicy, mozilla::MallocAllocPolicy>::putNewInfallibleInternal<int, int>(unsigned int, int, int&&)
FUNC 32a8 118 0 mozilla::detail::HashTable<mozilla::HashMapEntry<int, int>, mozilla::HashMap<int, int, mozilla::DefaultHasher<int, void>, mozilla::MallocAllocPolicy>::MapHashPolicy, mozilla::MallocAllocPolicy>::lookup<(mozilla::detail::HashTable<mozilla::HashMapEntry<int, int>, mozilla::HashMap<int, int, mozilla::DefaultHasher<int, void>, mozilla::MallocAllocPolicy>::MapHashPolicy, mozilla::MallocAllocPolicy>::LookupReason)0>(int const&, unsigned int) const
FUNC 33c0 94 0 mozilla::detail::EntrySlot<mozilla::HashMapEntry<int, int> >::setLive<int, int>(unsigned int, int, int&&)
FUNC 3454 190 0 mozilla::HashMap<SimpleEnum, int, mozilla::DefaultHasher<SimpleEnum, void>, mozilla::MallocAllocPolicy>::put<SimpleEnum, int>(SimpleEnum const&, SimpleEnum&&, int&&)
FUNC 35e4 1bc 0 mozilla::detail::HashTable<mozilla::HashMapEntry<SimpleEnum, int>, mozilla::HashMap<SimpleEnum, int, mozilla::DefaultHasher<SimpleEnum, void>, mozilla::MallocAllocPolicy>::MapHashPolicy, mozilla::MallocAllocPolicy>::lookup<(mozilla::detail::HashTable<mozilla::HashMapEntry<SimpleEnum, int>, mozilla::HashMap<SimpleEnum, int, mozilla::DefaultHasher<SimpleEnum, void>, mozilla::MallocAllocPolicy>::MapHashPolicy, mozilla::MallocAllocPolicy>::LookupReason)1>(SimpleEnum const&, unsigned int) const
FUNC 37a0 40 0 mozilla::Maybe<mozilla::detail::EntrySlot<mozilla::HashMapEntry<SimpleEnum, int> > >::emplace<mozilla::detail::EntrySlot<mozilla::HashMapEntry<SimpleEnum, int> >&>(mozilla::detail::EntrySlot<mozilla::HashMapEntry<SimpleEnum, int> >&)
FUNC 37e0 350 0 mozilla::detail::HashTable<mozilla::HashMapEntry<SimpleEnum, int>, mozilla::HashMap<SimpleEnum, int, mozilla::DefaultHasher<SimpleEnum, void>, mozilla::MallocAllocPolicy>::MapHashPolicy, mozilla::MallocAllocPolicy>::add<SimpleEnum, int>(mozilla::detail::HashTable<mozilla::HashMapEntry<SimpleEnum, int>, mozilla::HashMap<SimpleEnum, int, mozilla::DefaultHasher<SimpleEnum, void>, mozilla::MallocAllocPolicy>::MapHashPolicy, mozilla::MallocAllocPolicy>::AddPtr&, SimpleEnum, int&&)
FUNC 3b30 158 0 mozilla::detail::HashTable<mozilla::HashMapEntry<std::__ndk1::pair<int, bool>, int>, mozilla::HashMap<std::__ndk1::pair<int, bool>, int, mozilla::PairHasher<int, bool>, mozilla::MallocAllocPolicy>::MapHashPolicy, mozilla::MallocAllocPolicy>::putNew<std::__ndk1::pair<int, bool>&, int>(std::__ndk1::pair<int, bool> const&, std::__ndk1::pair<int, bool>&, int)
FUNC 3c88 ac 0 mozilla::detail::HashTable<mozilla::HashMapEntry<std::__ndk1::pair<int, bool>, int>, mozilla::HashMap<std::__ndk1::pair<int, bool>, int, mozilla::PairHasher<int, bool>, mozilla::MallocAllocPolicy>::MapHashPolicy, mozilla::MallocAllocPolicy>::putNewInfallibleInternal<std::__ndk1::pair<int, bool>&, int>(unsigned int, std::__ndk1::pair<int, bool>&, int)
FUNC 3d34 140 0 mozilla::detail::HashTable<mozilla::HashMapEntry<std::__ndk1::pair<int, bool>, int>, mozilla::HashMap<std::__ndk1::pair<int, bool>, int, mozilla::PairHasher<int, bool>, mozilla::MallocAllocPolicy>::MapHashPolicy, mozilla::MallocAllocPolicy>::lookup<(mozilla::detail::HashTable<mozilla::HashMapEntry<std::__ndk1::pair<int, bool>, int>, mozilla::HashMap<std::__ndk1::pair<int, bool>, int, mozilla::PairHasher<int, bool>, mozilla::MallocAllocPolicy>::MapHashPolicy, mozilla::MallocAllocPolicy>::LookupReason)0>(std::__ndk1::pair<int, bool> const&, unsigned int) const
FUNC 3e74 15c 0 mozilla::detail::HashTable<mozilla::HashMapEntry<std::__ndk1::pair<int, bool>, int>, mozilla::HashMap<std::__ndk1::pair<int, bool>, int, mozilla::PairHasher<int, bool>, mozilla::MallocAllocPolicy>::MapHashPolicy, mozilla::MallocAllocPolicy>::changeTableSize(unsigned int, mozilla::detail::HashTable<mozilla::HashMapEntry<std::__ndk1::pair<int, bool>, int>, mozilla::HashMap<std::__ndk1::pair<int, bool>, int, mozilla::PairHasher<int, bool>, mozilla::MallocAllocPolicy>::MapHashPolicy, mozilla::MallocAllocPolicy>::FailureBehavior)
FUNC 3fd0 dc 0 mozilla::detail::HashTable<mozilla::HashMapEntry<std::__ndk1::pair<int, bool>, int>, mozilla::HashMap<std::__ndk1::pair<int, bool>, int, mozilla::PairHasher<int, bool>, mozilla::MallocAllocPolicy>::MapHashPolicy, mozilla::MallocAllocPolicy>::findNonLiveSlot(unsigned int)
FUNC 40ac 98 0 mozilla::detail::EntrySlot<mozilla::HashMapEntry<std::__ndk1::pair<int, bool>, int> >::setLive<mozilla::HashMapEntry<std::__ndk1::pair<int, bool>, int> >(unsigned int, mozilla::HashMapEntry<std::__ndk1::pair<int, bool>, int>&&)
FUNC 4144 98 0 mozilla::detail::EntrySlot<mozilla::HashMapEntry<std::__ndk1::pair<int, bool>, int> >::setLive<std::__ndk1::pair<int, bool>&, int>(unsigned int, std::__ndk1::pair<int, bool>&, int)
FUNC 41dc 174 0 mozilla::detail::HashTable<mozilla::HashMapEntry<int, int>, mozilla::HashMap<int, int, mozilla::DefaultHasher<int, void>, mozilla::MallocAllocPolicy>::MapHashPolicy, mozilla::MallocAllocPolicy>::remove(mozilla::detail::HashTable<mozilla::HashMapEntry<int, int>, mozilla::HashMap<int, int, mozilla::DefaultHasher<int, void>, mozilla::MallocAllocPolicy>::MapHashPolicy, mozilla::MallocAllocPolicy>::Ptr)
FUNC 4350 ac 0 mozilla::detail::HashTable<mozilla::HashMapEntry<int, int>, mozilla::HashMap<int, int, mozilla::DefaultHasher<int, void>, mozilla::MallocAllocPolicy>::MapHashPolicy, mozilla::MallocAllocPolicy>::remove(mozilla::detail::EntrySlot<mozilla::HashMapEntry<int, int> >&)
FUNC 43fc 108 0 mozilla::detail::HashTable<mozilla::HashMapEntry<int, int>, mozilla::HashMap<int, int, mozilla::DefaultHasher<int, void>, mozilla::MallocAllocPolicy>::MapHashPolicy, mozilla::MallocAllocPolicy>::Iterator::Iterator(mozilla::detail::HashTable<mozilla::HashMapEntry<int, int>, mozilla::HashMap<int, int, mozilla::DefaultHasher<int, void>, mozilla::MallocAllocPolicy>::MapHashPolicy, mozilla::MallocAllocPolicy> const&)
FUNC 4504 140 0 mozilla::detail::HashTable<mozilla::HashMapEntry<int, int>, mozilla::HashMap<int, int, mozilla::DefaultHasher<int, void>, mozilla::MallocAllocPolicy>::MapHashPolicy, mozilla::MallocAllocPolicy>::rehashTableInPlace()
PUBLIC m 4644 0 __aeabi_memset8
PUBLIC m 4654 0 __aeabi_memclr
PUBLIC 4660 0 <.plt ELF section in TestHashTable>
STACK CFI INIT 10cc 490 .cfa: sp 0 + .ra: lr
STACK CFI 10ce .cfa: sp 20 + .ra: .cfa -4 + ^ r7: .cfa -8 + ^ r6: .cfa -12 + ^ r5: .cfa -16 + ^ r4: .cfa -20 + ^
STACK CFI 10d0 .cfa: r7 8 +
STACK CFI 10d4 r11: .cfa -24 + ^ r10: .cfa -28 + ^ r9: .cfa -32 + ^ r8: .cfa -36 + ^
STACK CFI INIT 155c 3c .cfa: sp 0 + .ra: lr
STACK CFI 155e .cfa: sp 20 + .ra: .cfa -4 + ^ r7: .cfa -8 + ^ r6: .cfa -12 + ^ r5: .cfa -16 + ^ r4: .cfa -20 + ^
STACK CFI 1560 .cfa: r7 8 +
STACK CFI 1564 r11: .cfa -24 + ^
STACK CFI INIT 1598 23c .cfa: sp 0 + .ra: lr
STACK CFI 159a .cfa: sp 16 + .ra: .cfa -4 + ^ r7: .cfa -8 + ^ r6: .cfa -12 + ^ r4: .cfa -16 + ^
STACK CFI 159c .cfa: r7 8 +
STACK CFI INIT 17d4 23c .cfa: sp 0 + .ra: lr
STACK CFI 17d6 .cfa: sp 16 + .ra: .cfa -4 + ^ r7: .cfa -8 + ^ r6: .cfa -12 + ^ r4: .cfa -16 + ^
STACK CFI 17d8 .cfa: r7 8 +
STACK CFI INIT 1a10 220 .cfa: sp 0 + .ra: lr
STACK CFI 1a12 .cfa: sp 16 + .ra: .cfa -4 + ^ r7: .cfa -8 + ^ r5: .cfa -12 + ^ r4: .cfa -16 + ^
STACK CFI 1a14 .cfa: r7 8 +
STACK CFI INIT 1c30 3d8 .cfa: sp 0 + .ra: lr
STACK CFI 1c32 .cfa: sp 16 + .ra: .cfa -4 + ^ r7: .cfa -8 + ^ r5: .cfa -12 + ^ r4: .cfa -16 + ^
STACK CFI 1c34 .cfa: r7 8 +
STACK CFI INIT 2008 828 .cfa: sp 0 + .ra: lr
STACK CFI 200a .cfa: sp 20 + .ra: .cfa -4 + ^ r7: .cfa -8 + ^ r6: .cfa -12 + ^ r5: .cfa -16 + ^ r4: .cfa -20 + ^
STACK CFI 200c .cfa: r7 8 +
STACK CFI 2010 r8: .cfa -24 + ^
STACK CFI INIT 2830 37c .cfa: sp 0 + .ra: lr
STACK CFI 2832 .cfa: sp 16 + .ra: .cfa -4 + ^ r7: .cfa -8 + ^ r5: .cfa -12 + ^ r4: .cfa -16 + ^
STACK CFI 2834 .cfa: r7 8 +
STACK CFI INIT 2bac c0 .cfa: sp 0 + .ra: lr
STACK CFI 2bae .cfa: sp 16 + .ra: .cfa -4 + ^ r7: .cfa -8 + ^ r6: .cfa -12 + ^ r4: .cfa -16 + ^
STACK CFI 2bb0 .cfa: r7 8 +
STACK CFI INIT 2c6c 96 .cfa: sp 0 + .ra: lr
STACK CFI 2c6e .cfa: sp 16 + .ra: .cfa -4 + ^ r7: .cfa -8 + ^ r5: .cfa -12 + ^ r4: .cfa -16 + ^
STACK CFI 2c70 .cfa: r7 8 +
STACK CFI INIT 2d02 18 .cfa: sp 0 + .ra: lr
STACK CFI 2d04 .cfa: sp 8 + .ra: .cfa -4 + ^ r7: .cfa -8 + ^
STACK CFI 2d06 .cfa: r7 8 +
STACK CFI INIT 2d1c b0 .cfa: sp 0 + .ra: lr
STACK CFI 2d1e .cfa: sp 16 + .ra: .cfa -4 + ^ r7: .cfa -8 + ^ r6: .cfa -12 + ^ r4: .cfa -16 + ^
STACK CFI 2d20 .cfa: r7 8 +
STACK CFI INIT 2dcc 190 .cfa: sp 0 + .ra: lr
STACK CFI 2dce .cfa: sp 20 + .ra: .cfa -4 + ^ r7: .cfa -8 + ^ r6: .cfa -12 + ^ r5: .cfa -16 + ^ r4: .cfa -20 + ^
STACK CFI 2dd0 .cfa: r7 8 +
STACK CFI 2dd4 r11: .cfa -24 + ^ r10: .cfa -28 + ^ r9: .cfa -32 + ^ r8: .cfa -36 + ^
STACK CFI INIT 2f5c d4 .cfa: sp 0 + .ra: lr
STACK CFI 2f5e .cfa: sp 20 + .ra: .cfa -4 + ^ r7: .cfa -8 + ^ r6: .cfa -12 + ^ r5: .cfa -16 + ^ r4: .cfa -20 + ^
STACK CFI 2f60 .cfa: r7 8 +
STACK CFI 2f64 r8: .cfa -24 + ^
STACK CFI INIT 3030 94 .cfa: sp 0 + .ra: lr
STACK CFI 3032 .cfa: sp 16 + .ra: .cfa -4 + ^ r7: .cfa -8 + ^ r6: .cfa -12 + ^ r4: .cfa -16 + ^
STACK CFI 3034 .cfa: r7 8 +
STACK CFI INIT 30c4 138 .cfa: sp 0 + .ra: lr
STACK CFI 30c6 .cfa: sp 20 + .ra: .cfa -4 + ^ r7: .cfa -8 + ^ r6: .cfa -12 + ^ r5: .cfa -16 + ^ r4: .cfa -20 + ^
STACK CFI 30c8 .cfa: r7 8 +
STACK CFI 30cc r11: .cfa -24 + ^ r9: .cfa -28 + ^ r8: .cfa -32 + ^
STACK CFI INIT 31fc ac .cfa: sp 0 + .ra: lr
STACK CFI 31fe .cfa: sp 20 + .ra: .cfa -4 + ^ r7: .cfa -8 + ^ r6: .cfa -12 + ^ r5: .cfa -16 + ^ r4: .cfa -20 + ^
STACK CFI 3200 .cfa: r7 8 +
STACK CFI 3204 r8: .cfa -24 + ^
STACK CFI INIT 32a8 118 .cfa: sp 0 + .ra: lr
STACK CFI 32aa .cfa: sp 20 + .ra: .cfa -4 + ^ r7: .cfa -8 + ^ r6: .cfa -12 + ^ r5: .cfa -16 + ^ r4: .cfa -20 + ^
STACK CFI 32ac .cfa: r7 8 +
STACK CFI 32b0 r10: .cfa -24 + ^ r9: .cfa -28 + ^ r8: .cfa -32 + ^
STACK CFI INIT 33c0 94 .cfa: sp 0 + .ra: lr
STACK CFI 33c2 .cfa: sp 16 + .ra: .cfa -4 + ^ r7: .cfa -8 + ^ r6: .cfa -12 + ^ r4: .cfa -16 + ^
STACK CFI 33c4 .cfa: r7 8 +
STACK CFI INIT 3454 190 .cfa: sp 0 + .ra: lr
STACK CFI 3456 .cfa: sp 20 + .ra: .cfa -4 + ^ r7: .cfa -8 + ^ r6: .cfa -12 + ^ r5: .cfa -16 + ^ r4: .cfa -20 + ^
STACK CFI 3458 .cfa: r7 8 +
STACK CFI 345c r11: .cfa -24 + ^ r9: .cfa -28 + ^ r8: .cfa -32 + ^
STACK CFI INIT 35e4 1bc .cfa: sp 0 + .ra: lr
STACK CFI 35e6 .cfa: sp 20 + .ra: .cfa -4 + ^ r7: .cfa -8 + ^ r6: .cfa -12 + ^ r5: .cfa -16 + ^ r4: .cfa -20 + ^
STACK CFI 35e8 .cfa: r7 8 +
STACK CFI 35ec r11: .cfa -24 + ^ r10: .cfa -28 + ^ r9: .cfa -32 + ^ r8: .cfa -36 + ^
STACK CFI INIT 37a0 40 .cfa: sp 0 + .ra: lr
STACK CFI 37b8 .cfa: sp 16 + .ra: .cfa -4 + ^ r7: .cfa -8 + ^ r6: .cfa -12 + ^ r4: .cfa -16 + ^
STACK CFI 37ba .cfa: r7 8 +
STACK CFI INIT 37e0 350 .cfa: sp 0 + .ra: lr
STACK CFI 37e2 .cfa: sp 20 + .ra: .cfa -4 + ^ r7: .cfa -8 + ^ r6: .cfa -12 + ^ r5: .cfa -16 + ^ r4: .cfa -20 + ^
STACK CFI 37e4 .cfa: r7 8 +
STACK CFI 37e8 r11: .cfa -24 + ^ r10: .cfa -28 + ^ r9: .cfa -32 + ^ r8: .cfa -36 + ^
STACK CFI INIT 0 190 .cfa: sp 0 + .ra: lr
STACK CFI 2 .cfa: sp 20 + .ra: .cfa -4 + ^ r7: .cfa -8 + ^ r6: .cfa -12 + ^ r5: .cfa -16 + ^ r4: .cfa -20 + ^
STACK CFI 4 .cfa: r7 8 +
STACK CFI 8 r11: .cfa -24 + ^ r10: .cfa -28 + ^ r9: .cfa -32 + ^ r8: .cfa -36 + ^
STACK CFI INIT 0 d4 .cfa: sp 0 + .ra: lr
STACK CFI 2 .cfa: sp 20 + .ra: .cfa -4 + ^ r7: .cfa -8 + ^ r6: .cfa -12 + ^ r5: .cfa -16 + ^ r4: .cfa -20 + ^
STACK CFI 4 .cfa: r7 8 +
STACK CFI 8 r8: .cfa -24 + ^
STACK CFI INIT 0 94 .cfa: sp 0 + .ra: lr
STACK CFI 2 .cfa: sp 16 + .ra: .cfa -4 + ^ r7: .cfa -8 + ^ r6: .cfa -12 + ^ r4: .cfa -16 + ^
STACK CFI 4 .cfa: r7 8 +
STACK CFI INIT 0 94 .cfa: sp 0 + .ra: lr
STACK CFI 2 .cfa: sp 16 + .ra: .cfa -4 + ^ r7: .cfa -8 + ^ r6: .cfa -12 + ^ r4: .cfa -16 + ^
STACK CFI 4 .cfa: r7 8 +
STACK CFI INIT 0 118 .cfa: sp 0 + .ra: lr
STACK CFI 2 .cfa: sp 20 + .ra: .cfa -4 + ^ r7: .cfa -8 + ^ r6: .cfa -12 + ^ r5: .cfa -16 + ^ r4: .cfa -20 + ^
STACK CFI 4 .cfa: r7 8 +
STACK CFI 8 r10: .cfa -24 + ^ r9: .cfa -28 + ^ r8: .cfa -32 + ^
STACK CFI INIT 0 190 .cfa: sp 0 + .ra: lr
STACK CFI 2 .cfa: sp 20 + .ra: .cfa -4 + ^ r7: .cfa -8 + ^ r6: .cfa -12 + ^ r5: .cfa -16 + ^ r4: .cfa -20 + ^
STACK CFI 4 .cfa: r7 8 +
STACK CFI 8 r11: .cfa -24 + ^ r9: .cfa -28 + ^ r8: .cfa -32 + ^
STACK CFI INIT 0 1bc .cfa: sp 0 + .ra: lr
STACK CFI 2 .cfa: sp 20 + .ra: .cfa -4 + ^ r7: .cfa -8 + ^ r6: .cfa -12 + ^ r5: .cfa -16 + ^ r4: .cfa -20 + ^
STACK CFI 4 .cfa: r7 8 +
STACK CFI 8 r11: .cfa -24 + ^ r10: .cfa -28 + ^ r9: .cfa -32 + ^ r8: .cfa -36 + ^
STACK CFI INIT 0 40 .cfa: sp 0 + .ra: lr
STACK CFI 18 .cfa: sp 16 + .ra: .cfa -4 + ^ r7: .cfa -8 + ^ r6: .cfa -12 + ^ r4: .cfa -16 + ^
STACK CFI 1a .cfa: r7 8 +
STACK CFI INIT 0 350 .cfa: sp 0 + .ra: lr
STACK CFI 2 .cfa: sp 20 + .ra: .cfa -4 + ^ r7: .cfa -8 + ^ r6: .cfa -12 + ^ r5: .cfa -16 + ^ r4: .cfa -20 + ^
STACK CFI 4 .cfa: r7 8 +
STACK CFI 8 r11: .cfa -24 + ^ r10: .cfa -28 + ^ r9: .cfa -32 + ^ r8: .cfa -36 + ^
STACK CFI INIT 0 190 .cfa: sp 0 + .ra: lr
STACK CFI 2 .cfa: sp 20 + .ra: .cfa -4 + ^ r7: .cfa -8 + ^ r6: .cfa -12 + ^ r5: .cfa -16 + ^ r4: .cfa -20 + ^
STACK CFI 4 .cfa: r7 8 +
STACK CFI 8 r11: .cfa -24 + ^ r10: .cfa -28 + ^ r9: .cfa -32 + ^ r8: .cfa -36 + ^
STACK CFI INIT 0 d4 .cfa: sp 0 + .ra: lr
STACK CFI 2 .cfa: sp 20 + .ra: .cfa -4 + ^ r7: .cfa -8 + ^ r6: .cfa -12 + ^ r5: .cfa -16 + ^ r4: .cfa -20 + ^
STACK CFI 4 .cfa: r7 8 +
STACK CFI 8 r8: .cfa -24 + ^
STACK CFI INIT 0 94 .cfa: sp 0 + .ra: lr
STACK CFI 2 .cfa: sp 16 + .ra: .cfa -4 + ^ r7: .cfa -8 + ^ r6: .cfa -12 + ^ r4: .cfa -16 + ^
STACK CFI 4 .cfa: r7 8 +
STACK CFI INIT 0 94 .cfa: sp 0 + .ra: lr
STACK CFI 2 .cfa: sp 16 + .ra: .cfa -4 + ^ r7: .cfa -8 + ^ r6: .cfa -12 + ^ r4: .cfa -16 + ^
STACK CFI 4 .cfa: r7 8 +
STACK CFI INIT 0 118 .cfa: sp 0 + .ra: lr
STACK CFI 2 .cfa: sp 20 + .ra: .cfa -4 + ^ r7: .cfa -8 + ^ r6: .cfa -12 + ^ r5: .cfa -16 + ^ r4: .cfa -20 + ^
STACK CFI 4 .cfa: r7 8 +
STACK CFI 8 r10: .cfa -24 + ^ r9: .cfa -28 + ^ r8: .cfa -32 + ^
STACK CFI INIT 3b30 158 .cfa: sp 0 + .ra: lr
STACK CFI 3b32 .cfa: sp 20 + .ra: .cfa -4 + ^ r7: .cfa -8 + ^ r6: .cfa -12 + ^ r5: .cfa -16 + ^ r4: .cfa -20 + ^
STACK CFI 3b34 .cfa: r7 8 +
STACK CFI 3b38 r10: .cfa -24 + ^ r9: .cfa -28 + ^ r8: .cfa -32 + ^
STACK CFI INIT 3c88 ac .cfa: sp 0 + .ra: lr
STACK CFI 3c8a .cfa: sp 20 + .ra: .cfa -4 + ^ r7: .cfa -8 + ^ r6: .cfa -12 + ^ r5: .cfa -16 + ^ r4: .cfa -20 + ^
STACK CFI 3c8c .cfa: r7 8 +
STACK CFI 3c90 r8: .cfa -24 + ^
STACK CFI INIT 3d34 140 .cfa: sp 0 + .ra: lr
STACK CFI 3d36 .cfa: sp 20 + .ra: .cfa -4 + ^ r7: .cfa -8 + ^ r6: .cfa -12 + ^ r5: .cfa -16 + ^ r4: .cfa -20 + ^
STACK CFI 3d38 .cfa: r7 8 +
STACK CFI 3d3c r10: .cfa -24 + ^ r9: .cfa -28 + ^ r8: .cfa -32 + ^
STACK CFI INIT 3e74 15c .cfa: sp 0 + .ra: lr
STACK CFI 3e76 .cfa: sp 20 + .ra: .cfa -4 + ^ r7: .cfa -8 + ^ r6: .cfa -12 + ^ r5: .cfa -16 + ^ r4: .cfa -20 + ^
STACK CFI 3e78 .cfa: r7 8 +
STACK CFI 3e7c r11: .cfa -24 + ^ r10: .cfa -28 + ^ r9: .cfa -32 + ^ r8: .cfa -36 + ^
STACK CFI INIT 3fd0 dc .cfa: sp 0 + .ra: lr
STACK CFI 3fd2 .cfa: sp 20 + .ra: .cfa -4 + ^ r7: .cfa -8 + ^ r6: .cfa -12 + ^ r5: .cfa -16 + ^ r4: .cfa -20 + ^
STACK CFI 3fd4 .cfa: r7 8 +
STACK CFI 3fd8 r8: .cfa -24 + ^
STACK CFI INIT 40ac 98 .cfa: sp 0 + .ra: lr
STACK CFI 40ae .cfa: sp 16 + .ra: .cfa -4 + ^ r7: .cfa -8 + ^ r6: .cfa -12 + ^ r4: .cfa -16 + ^
STACK CFI 40b0 .cfa: r7 8 +
STACK CFI INIT 4144 98 .cfa: sp 0 + .ra: lr
STACK CFI 4146 .cfa: sp 16 + .ra: .cfa -4 + ^ r7: .cfa -8 + ^ r6: .cfa -12 + ^ r4: .cfa -16 + ^
STACK CFI 4148 .cfa: r7 8 +
STACK CFI INIT 0 158 .cfa: sp 0 + .ra: lr
STACK CFI 2 .cfa: sp 20 + .ra: .cfa -4 + ^ r7: .cfa -8 + ^ r6: .cfa -12 + ^ r5: .cfa -16 + ^ r4: .cfa -20 + ^
STACK CFI 4 .cfa: r7 8 +
STACK CFI 8 r10: .cfa -24 + ^ r9: .cfa -28 + ^ r8: .cfa -32 + ^
STACK CFI INIT 0 ac .cfa: sp 0 + .ra: lr
STACK CFI 2 .cfa: sp 20 + .ra: .cfa -4 + ^ r7: .cfa -8 + ^ r6: .cfa -12 + ^ r5: .cfa -16 + ^ r4: .cfa -20 + ^
STACK CFI 4 .cfa: r7 8 +
STACK CFI 8 r8: .cfa -24 + ^
STACK CFI INIT 0 140 .cfa: sp 0 + .ra: lr
STACK CFI 2 .cfa: sp 20 + .ra: .cfa -4 + ^ r7: .cfa -8 + ^ r6: .cfa -12 + ^ r5: .cfa -16 + ^ r4: .cfa -20 + ^
STACK CFI 4 .cfa: r7 8 +
STACK CFI 8 r10: .cfa -24 + ^ r9: .cfa -28 + ^ r8: .cfa -32 + ^
STACK CFI INIT 0 15c .cfa: sp 0 + .ra: lr
STACK CFI 2 .cfa: sp 20 + .ra: .cfa -4 + ^ r7: .cfa -8 + ^ r6: .cfa -12 + ^ r5: .cfa -16 + ^ r4: .cfa -20 + ^
STACK CFI 4 .cfa: r7 8 +
STACK CFI 8 r11: .cfa -24 + ^ r10: .cfa -28 + ^ r9: .cfa -32 + ^ r8: .cfa -36 + ^
STACK CFI INIT 0 dc .cfa: sp 0 + .ra: lr
STACK CFI 2 .cfa: sp 20 + .ra: .cfa -4 + ^ r7: .cfa -8 + ^ r6: .cfa -12 + ^ r5: .cfa -16 + ^ r4: .cfa -20 + ^
STACK CFI 4 .cfa: r7 8 +
STACK CFI 8 r8: .cfa -24 + ^
STACK CFI INIT 0 98 .cfa: sp 0 + .ra: lr
STACK CFI 2 .cfa: sp 16 + .ra: .cfa -4 + ^ r7: .cfa -8 + ^ r6: .cfa -12 + ^ r4: .cfa -16 + ^
STACK CFI 4 .cfa: r7 8 +
STACK CFI INIT 0 98 .cfa: sp 0 + .ra: lr
STACK CFI 2 .cfa: sp 16 + .ra: .cfa -4 + ^ r7: .cfa -8 + ^ r6: .cfa -12 + ^ r4: .cfa -16 + ^
STACK CFI 4 .cfa: r7 8 +
STACK CFI INIT 41dc 174 .cfa: sp 0 + .ra: lr
STACK CFI 41de .cfa: sp 16 + .ra: .cfa -4 + ^ r7: .cfa -8 + ^ r5: .cfa -12 + ^ r4: .cfa -16 + ^
STACK CFI 41e0 .cfa: r7 8 +
STACK CFI INIT 4350 ac .cfa: sp 0 + .ra: lr
STACK CFI 4352 .cfa: sp 16 + .ra: .cfa -4 + ^ r7: .cfa -8 + ^ r6: .cfa -12 + ^ r4: .cfa -16 + ^
STACK CFI 4354 .cfa: r7 8 +
STACK CFI INIT 43fc 108 .cfa: sp 0 + .ra: lr
STACK CFI 43fe .cfa: sp 20 + .ra: .cfa -4 + ^ r7: .cfa -8 + ^ r6: .cfa -12 + ^ r5: .cfa -16 + ^ r4: .cfa -20 + ^
STACK CFI 4400 .cfa: r7 8 +
STACK CFI 4404 r10: .cfa -24 + ^ r9: .cfa -28 + ^ r8: .cfa -32 + ^
STACK CFI INIT 4504 140 .cfa: sp 0 + .ra: lr
STACK CFI 4506 .cfa: sp 20 + .ra: .cfa -4 + ^ r7: .cfa -8 + ^ r6: .cfa -12 + ^ r5: .cfa -16 + ^ r4: .cfa -20 + ^
STACK CFI 4508 .cfa: r7 8 +
STACK CFI 450c r10: .cfa -24 + ^ r9: .cfa -28 + ^ r8: .cfa -32 + ^
