MODULE Linux arm DD96A970FE8C124793936C72BEE34D730 TestArray
INFO CODE_ID 70A996DD8CFE471293936C72BEE34D7356CD0C8F
INFO GENERATOR mozilla/dump_syms 2.3.6
PUBLIC 3a8 0 _start
PUBLIC 3b8 0 _start_main
PUBLIC 424 0 __atexit_handler_wrapper
PUBLIC 43c 0 atexit
PUBLIC 468 0 pthread_atfork
PUBLIC 484 0 call_fini_array
FUNC 4c8 6 0 TestInitialValueByConstructor()
FUNC 4ce 8 0 main
PUBLIC 4e0 0 <.plt ELF section in TestArray>
STACK CFI INIT 4c8 6 .cfa: sp 0 + .ra: lr
STACK CFI 4ca .cfa: sp 8 + .ra: .cfa -4 + ^ r7: .cfa -8 + ^
STACK CFI 4cc .cfa: r7 8 +
STACK CFI INIT 4ce 8 .cfa: sp 0 + .ra: lr
STACK CFI 4d0 .cfa: sp 8 + .ra: .cfa -4 + ^ r7: .cfa -8 + ^
STACK CFI 4d2 .cfa: r7 8 +
